
/mnt/Vol_B/HobbyProject/DroneFC/RP2350/build/CROX.elf:     file format elf32-littlearm

Sections:
Idx Name          Size      VMA       LMA       File off  Algn
  0 .text         0000968c  10000000  10000000  00001000  2**3
                  CONTENTS, ALLOC, LOAD, READONLY, CODE
  1 .rodata       000006ac  10009690  10009690  0000a690  2**3
                  CONTENTS, ALLOC, LOAD, READONLY, DATA
  2 .ARM.exidx    00000008  10009d3c  10009d3c  0000ad3c  2**2
                  CONTENTS, ALLOC, LOAD, READONLY, DATA
  3 .binary_info  00000024  10009d44  10009d44  0000ad44  2**2
                  CONTENTS, ALLOC, LOAD, READONLY, DATA
  4 .ram_vector_table 00000110  20000000  20000000  0000e000  2**2
                  ALLOC
  5 .uninitialized_data 00000000  20000110  20000110  0000d3e0  2**0
                  CONTENTS
  6 .data         00001664  20000110  10009d68  0000b110  2**3
                  CONTENTS, ALLOC, LOAD, READONLY, CODE
  7 .tdata        00000000  20001774  20001774  0000d3e0  2**0
                  CONTENTS, ALLOC, LOAD, DATA, THREAD_LOCAL
  8 .tbss         00000000  20001774  20001774  00000000  2**0
                  ALLOC, THREAD_LOCAL
  9 .bss          00000f48  20001778  1000b3cc  0000d778  2**3
                  ALLOC
 10 .heap         00000800  200026c0  1000b3cc  0000d6c0  2**2
                  ALLOC, READONLY
 11 .scratch_x    00000000  20080000  20080000  0000d3e0  2**0
                  CONTENTS
 12 .scratch_y    00000000  20081000  20081000  0000d3e0  2**0
                  CONTENTS
 13 .stack1_dummy 00000800  20080000  20080000  0000e000  2**2
                  ALLOC
 14 .stack_dummy  00000800  20081000  20081000  0000e000  2**5
                  ALLOC, READONLY
 15 .flash_end    00000014  1000b3cc  1000b3cc  0000d3cc  2**2
                  CONTENTS, ALLOC, LOAD, READONLY, DATA
 16 .ARM.attributes 00000034  00000000  00000000  0000d3e0  2**0
                  CONTENTS, READONLY
 17 .comment      0000001e  00000000  00000000  0000d414  2**0
                  CONTENTS, READONLY
 18 .debug_info   0004a48b  00000000  00000000  0000d432  2**0
                  CONTENTS, READONLY, DEBUGGING, OCTETS
 19 .debug_abbrev 0000c129  00000000  00000000  000578bd  2**0
                  CONTENTS, READONLY, DEBUGGING, OCTETS
 20 .debug_loclists 00026de9  00000000  00000000  000639e6  2**0
                  CONTENTS, READONLY, DEBUGGING, OCTETS
 21 .debug_aranges 00001908  00000000  00000000  0008a7d0  2**3
                  CONTENTS, READONLY, DEBUGGING, OCTETS
 22 .debug_rnglists 00006b39  00000000  00000000  0008c0d8  2**0
                  CONTENTS, READONLY, DEBUGGING, OCTETS
 23 .debug_line   00030b7e  00000000  00000000  00092c11  2**0
                  CONTENTS, READONLY, DEBUGGING, OCTETS
 24 .debug_str    0000d145  00000000  00000000  000c378f  2**0
                  CONTENTS, READONLY, DEBUGGING, OCTETS
 25 .debug_frame  00004148  00000000  00000000  000d08d4  2**2
                  CONTENTS, READONLY, DEBUGGING, OCTETS
 26 .debug_line_str 00000258  00000000  00000000  000d4a1c  2**0
                  CONTENTS, READONLY, DEBUGGING, OCTETS

/mnt/Vol_B/HobbyProject/DroneFC/RP2350/build/CROX.elf:     file format elf32-littlearm


Disassembly of section .text:

10000000 <__VECTOR_TABLE>:
10000000:	20082000 	.word	0x20082000
10000004:	1000015d 	.word	0x1000015d
10000008:	1000011b 	.word	0x1000011b
1000000c:	1000011d 	.word	0x1000011d
10000010:	10000111 	.word	0x10000111
10000014:	10000111 	.word	0x10000111
10000018:	10000111 	.word	0x10000111
1000001c:	10000111 	.word	0x10000111
10000020:	10000119 	.word	0x10000119
10000024:	10000119 	.word	0x10000119
10000028:	10000119 	.word	0x10000119
1000002c:	1000011f 	.word	0x1000011f
10000030:	10000111 	.word	0x10000111
10000034:	10000119 	.word	0x10000119
10000038:	10000121 	.word	0x10000121
1000003c:	10000123 	.word	0x10000123
10000040:	10000111 	.word	0x10000111
10000044:	10000111 	.word	0x10000111
10000048:	10000111 	.word	0x10000111
1000004c:	10000111 	.word	0x10000111
10000050:	10000111 	.word	0x10000111
10000054:	10000111 	.word	0x10000111
10000058:	10000111 	.word	0x10000111
1000005c:	10000111 	.word	0x10000111
10000060:	10000111 	.word	0x10000111
10000064:	10000111 	.word	0x10000111
10000068:	10000111 	.word	0x10000111
1000006c:	10000111 	.word	0x10000111
10000070:	10000111 	.word	0x10000111
10000074:	10000111 	.word	0x10000111
10000078:	10000111 	.word	0x10000111
1000007c:	10000111 	.word	0x10000111
10000080:	10000111 	.word	0x10000111
10000084:	10000111 	.word	0x10000111
10000088:	10000111 	.word	0x10000111
1000008c:	10000111 	.word	0x10000111
10000090:	10000111 	.word	0x10000111
10000094:	10000111 	.word	0x10000111
10000098:	10000111 	.word	0x10000111
1000009c:	10000111 	.word	0x10000111
100000a0:	10000111 	.word	0x10000111
100000a4:	10000111 	.word	0x10000111
100000a8:	10000111 	.word	0x10000111
100000ac:	10000111 	.word	0x10000111
100000b0:	10000111 	.word	0x10000111
100000b4:	10000111 	.word	0x10000111
100000b8:	10000111 	.word	0x10000111
100000bc:	10000111 	.word	0x10000111
100000c0:	10000111 	.word	0x10000111
100000c4:	10000111 	.word	0x10000111
100000c8:	10000111 	.word	0x10000111
100000cc:	10000111 	.word	0x10000111
100000d0:	10000111 	.word	0x10000111
100000d4:	10000111 	.word	0x10000111
100000d8:	10000111 	.word	0x10000111
100000dc:	10000111 	.word	0x10000111
100000e0:	10000111 	.word	0x10000111
100000e4:	10000111 	.word	0x10000111
100000e8:	10000111 	.word	0x10000111
100000ec:	10000111 	.word	0x10000111
100000f0:	10000111 	.word	0x10000111
100000f4:	10000111 	.word	0x10000111
100000f8:	10000111 	.word	0x10000111
100000fc:	10000111 	.word	0x10000111
10000100:	10000111 	.word	0x10000111
10000104:	10000111 	.word	0x10000111
10000108:	10000111 	.word	0x10000111
1000010c:	10000111 	.word	0x10000111

10000110 <__unhandled_user_irq>:
10000110:	f3ef 8005 	mrs	r0, IPSR
10000114:	3810      	subs	r0, #16

10000116 <unhandled_user_irq_num_in_r0>:
10000116:	be00      	bkpt	0x0000

10000118 <isr_invalid>:
10000118:	be00      	bkpt	0x0000

1000011a <isr_nmi>:
1000011a:	be00      	bkpt	0x0000

1000011c <isr_hardfault>:
1000011c:	be00      	bkpt	0x0000

1000011e <isr_svcall>:
1000011e:	be00      	bkpt	0x0000

10000120 <isr_pendsv>:
10000120:	be00      	bkpt	0x0000

10000122 <isr_systick>:
10000122:	be00      	bkpt	0x0000

10000124 <__default_isrs_end>:
10000124:	7188ebf2 	.word	0x7188ebf2
10000128:	10009d44 	.word	0x10009d44
1000012c:	10009d68 	.word	0x10009d68
10000130:	100001a0 	.word	0x100001a0
10000134:	e71aa390 	.word	0xe71aa390

10000138 <__binary_info_header_end>:
10000138:	ffffded3 	.word	0xffffded3
1000013c:	10210142 	.word	0x10210142
10000140:	000001ff 	.word	0x000001ff
10000144:	0000b294 	.word	0x0000b294
10000148:	ab123579 	.word	0xab123579

1000014c <_entry_point>:
1000014c:	f04f 0000 	mov.w	r0, #0

10000150 <_enter_vtable_in_r0>:
10000150:	491e      	ldr	r1, [pc, #120]	@ (100001cc <data_cpy_table+0x2c>)
10000152:	6008      	str	r0, [r1, #0]
10000154:	c806      	ldmia	r0!, {r1, r2}
10000156:	f381 8808 	msr	MSP, r1
1000015a:	4710      	bx	r2

1000015c <_reset_handler>:
1000015c:	f04f 4050 	mov.w	r0, #3489660928	@ 0xd0000000
10000160:	6800      	ldr	r0, [r0, #0]
10000162:	b110      	cbz	r0, 1000016a <hold_non_core0_in_bootrom+0x6>

10000164 <hold_non_core0_in_bootrom>:
10000164:	f04f 0000 	mov.w	r0, #0
10000168:	e7f2      	b.n	10000150 <_enter_vtable_in_r0>
1000016a:	a40d      	add	r4, pc, #52	@ (adr r4, 100001a0 <data_cpy_table>)
1000016c:	cc0e      	ldmia	r4!, {r1, r2, r3}
1000016e:	2900      	cmp	r1, #0
10000170:	d002      	beq.n	10000178 <hold_non_core0_in_bootrom+0x14>
10000172:	f000 f812 	bl	1000019a <data_cpy>
10000176:	e7f9      	b.n	1000016c <hold_non_core0_in_bootrom+0x8>
10000178:	4915      	ldr	r1, [pc, #84]	@ (100001d0 <data_cpy_table+0x30>)
1000017a:	4a16      	ldr	r2, [pc, #88]	@ (100001d4 <data_cpy_table+0x34>)
1000017c:	2000      	movs	r0, #0
1000017e:	e000      	b.n	10000182 <bss_fill_test>

10000180 <bss_fill_loop>:
10000180:	c101      	stmia	r1!, {r0}

10000182 <bss_fill_test>:
10000182:	4291      	cmp	r1, r2
10000184:	d1fc      	bne.n	10000180 <bss_fill_loop>

10000186 <platform_entry>:
10000186:	4914      	ldr	r1, [pc, #80]	@ (100001d8 <data_cpy_table+0x38>)
10000188:	4788      	blx	r1
1000018a:	4914      	ldr	r1, [pc, #80]	@ (100001dc <data_cpy_table+0x3c>)
1000018c:	4788      	blx	r1
1000018e:	4914      	ldr	r1, [pc, #80]	@ (100001e0 <data_cpy_table+0x40>)
10000190:	4788      	blx	r1
10000192:	be00      	bkpt	0x0000
10000194:	e7fd      	b.n	10000192 <platform_entry+0xc>

10000196 <data_cpy_loop>:
10000196:	c901      	ldmia	r1!, {r0}
10000198:	c201      	stmia	r2!, {r0}

1000019a <data_cpy>:
1000019a:	429a      	cmp	r2, r3
1000019c:	d3fb      	bcc.n	10000196 <data_cpy_loop>
1000019e:	4770      	bx	lr

100001a0 <data_cpy_table>:
100001a0:	10009d68 	.word	0x10009d68
100001a4:	20000110 	.word	0x20000110
100001a8:	20001774 	.word	0x20001774
100001ac:	1000b3cc 	.word	0x1000b3cc
100001b0:	20080000 	.word	0x20080000
100001b4:	20080000 	.word	0x20080000
100001b8:	1000b3cc 	.word	0x1000b3cc
100001bc:	20081000 	.word	0x20081000
100001c0:	20081000 	.word	0x20081000
100001c4:	00000000 	.word	0x00000000
100001c8:	4770      	bx	lr
100001ca:	0000      	.short	0x0000
100001cc:	e000ed08 	.word	0xe000ed08
100001d0:	20001774 	.word	0x20001774
100001d4:	200026c0 	.word	0x200026c0
100001d8:	10006341 	.word	0x10006341
100001dc:	100010e9 	.word	0x100010e9
100001e0:	10006339 	.word	0x10006339

100001e4 <_init>:
100001e4:	b5f8      	push	{r3, r4, r5, r6, r7, lr}
100001e6:	bf00      	nop

100001e8 <frame_dummy>:
100001e8:	b508      	push	{r3, lr}
100001ea:	4b03      	ldr	r3, [pc, #12]	@ (100001f8 <frame_dummy+0x10>)
100001ec:	b11b      	cbz	r3, 100001f6 <frame_dummy+0xe>
100001ee:	4903      	ldr	r1, [pc, #12]	@ (100001fc <frame_dummy+0x14>)
100001f0:	4803      	ldr	r0, [pc, #12]	@ (10000200 <frame_dummy+0x18>)
100001f2:	f3af 8000 	nop.w
100001f6:	bd08      	pop	{r3, pc}
100001f8:	00000000 	.word	0x00000000
100001fc:	2000261c 	.word	0x2000261c
10000200:	1000968c 	.word	0x1000968c

10000204 <_Z7mpu_isrjm>:
10000204:	2814      	cmp	r0, #20
10000206:	d000      	beq.n	1000020a <_Z7mpu_isrjm+0x6>
10000208:	4770      	bx	lr
1000020a:	074b      	lsls	r3, r1, #29
1000020c:	d5fc      	bpl.n	10000208 <_Z7mpu_isrjm+0x4>
1000020e:	2201      	movs	r2, #1
10000210:	4b01      	ldr	r3, [pc, #4]	@ (10000218 <_Z7mpu_isrjm+0x14>)
10000212:	701a      	strb	r2, [r3, #0]
10000214:	4770      	bx	lr
10000216:	bf00      	nop
10000218:	200026ba 	.word	0x200026ba

1000021c <_ZN13QuaternionEKF6updateEffff>:
1000021c:	b530      	push	{r4, r5, lr}
1000021e:	ed2d 8b10 	vpush	{d8-d15}
10000222:	ee09 2a10 	vmov	s18, r2
10000226:	ee06 1a90 	vmov	s13, r1
1000022a:	ee29 7a09 	vmul.f32	s14, s18, s18
1000022e:	ee06 3a10 	vmov	s12, r3
10000232:	eea6 7aa6 	vfma.f32	s14, s13, s13
10000236:	eddf 7a08 	vldr	s15, [pc, #32]	@ 10000258 <_ZN13QuaternionEKF6updateEffff+0x3c>
1000023a:	eea6 7a06 	vfma.f32	s14, s12, s12
1000023e:	eeb4 7a67 	vcmp.f32	s14, s15
10000242:	eef1 fa10 	vmrs	APSR_nzcv, fpscr
10000246:	b0cd      	sub	sp, #308	@ 0x134
10000248:	ed8d 7a06 	vstr	s14, [sp, #24]
1000024c:	920d      	str	r2, [sp, #52]	@ 0x34
1000024e:	9108      	str	r1, [sp, #32]
10000250:	930e      	str	r3, [sp, #56]	@ 0x38
10000252:	f000 873f 	beq.w	100010d4 <_ZN13QuaternionEKF6updateEffff+0xeb8>
10000256:	e001      	b.n	1000025c <_ZN13QuaternionEKF6updateEffff+0x40>
10000258:	00000000 	.word	0x00000000
1000025c:	edd0 ba01 	vldr	s23, [r0, #4]
10000260:	edd0 6a03 	vldr	s13, [r0, #12]
10000264:	edd0 5a02 	vldr	s11, [r0, #8]
10000268:	eeb8 7a00 	vmov.f32	s14, #128	@ 0xc0000000 -2.0
1000026c:	ed90 4a08 	vldr	s8, [r0, #32]
10000270:	ee2b 6a87 	vmul.f32	s12, s23, s14
10000274:	edd0 4a09 	vldr	s9, [r0, #36]	@ 0x24
10000278:	ee26 7a87 	vmul.f32	s14, s13, s14
1000027c:	edcd 5a09 	vstr	s11, [sp, #36]	@ 0x24
10000280:	eeb0 3a67 	vmov.f32	s6, s15
10000284:	ee75 5aa5 	vadd.f32	s11, s11, s11
10000288:	eef0 2a67 	vmov.f32	s5, s15
1000028c:	eef0 1a67 	vmov.f32	s3, s15
10000290:	eeb0 8a67 	vmov.f32	s16, s15
10000294:	edd0 aa10 	vldr	s21, [r0, #64]	@ 0x40
10000298:	ed90 5a0a 	vldr	s10, [r0, #40]	@ 0x28
1000029c:	edd0 3a04 	vldr	s7, [r0, #16]
100002a0:	eee7 1a04 	vfma.f32	s3, s14, s8
100002a4:	eea6 3a44 	vfms.f32	s6, s12, s8
100002a8:	eee6 2a64 	vfms.f32	s5, s12, s9
100002ac:	eea5 8a84 	vfma.f32	s16, s11, s8
100002b0:	eeb0 2a67 	vmov.f32	s4, s15
100002b4:	eeb0 0a67 	vmov.f32	s0, s15
100002b8:	eeb0 4a67 	vmov.f32	s8, s15
100002bc:	edd0 8a17 	vldr	s17, [r0, #92]	@ 0x5c
100002c0:	ed90 aa11 	vldr	s20, [r0, #68]	@ 0x44
100002c4:	edcd 6a0a 	vstr	s13, [sp, #40]	@ 0x28
100002c8:	eea6 2a45 	vfms.f32	s4, s12, s10
100002cc:	ee73 6aa3 	vadd.f32	s13, s7, s7
100002d0:	eea5 0aa4 	vfma.f32	s0, s11, s9
100002d4:	eea7 4a24 	vfma.f32	s8, s14, s9
100002d8:	eee5 2aea 	vfms.f32	s5, s11, s21
100002dc:	edd0 da1e 	vldr	s27, [r0, #120]	@ 0x78
100002e0:	ed90 ca18 	vldr	s24, [r0, #96]	@ 0x60
100002e4:	edcd ba0f 	vstr	s23, [sp, #60]	@ 0x3c
100002e8:	eea5 2aca 	vfms.f32	s4, s11, s20
100002ec:	edd0 ba0b 	vldr	s23, [r0, #44]	@ 0x2c
100002f0:	eea6 0a6a 	vfms.f32	s0, s12, s21
100002f4:	eea6 4aaa 	vfma.f32	s8, s13, s21
100002f8:	eee7 2a28 	vfma.f32	s5, s14, s17
100002fc:	eef0 0a67 	vmov.f32	s1, s15
10000300:	eef0 4a67 	vmov.f32	s9, s15
10000304:	eef0 fa67 	vmov.f32	s31, s15
10000308:	ed90 ea1f 	vldr	s28, [r0, #124]	@ 0x7c
1000030c:	eee7 fa2b 	vfma.f32	s31, s14, s23
10000310:	edcd 3a07 	vstr	s7, [sp, #28]
10000314:	eee5 0a85 	vfma.f32	s1, s11, s10
10000318:	eef0 3a61 	vmov.f32	s7, s3
1000031c:	eee7 4a05 	vfma.f32	s9, s14, s10
10000320:	eea7 2a0c 	vfma.f32	s4, s14, s24
10000324:	eea6 0aa8 	vfma.f32	s0, s13, s17
10000328:	eea6 4a28 	vfma.f32	s8, s12, s17
1000032c:	eee6 2aad 	vfma.f32	s5, s13, s27
10000330:	edd0 8a25 	vldr	s17, [r0, #148]	@ 0x94
10000334:	eef0 1a67 	vmov.f32	s3, s15
10000338:	eeb0 1a67 	vmov.f32	s2, s15
1000033c:	ed90 ba0f 	vldr	s22, [r0, #60]	@ 0x3c
10000340:	edd0 9a12 	vldr	s19, [r0, #72]	@ 0x48
10000344:	eee6 1a6b 	vfms.f32	s3, s12, s23
10000348:	eea5 1aab 	vfma.f32	s2, s11, s23
1000034c:	eeb0 5a6f 	vmov.f32	s10, s31
10000350:	eee6 0a4a 	vfms.f32	s1, s12, s20
10000354:	eee6 4a8a 	vfma.f32	s9, s13, s20
10000358:	eea6 2a8e 	vfma.f32	s4, s13, s28
1000035c:	eee8 2aa7 	vfma.f32	s5, s17, s15
10000360:	edd0 8a26 	vldr	s17, [r0, #152]	@ 0x98
10000364:	ed90 9a16 	vldr	s18, [r0, #88]	@ 0x58
10000368:	edd0 ca19 	vldr	s25, [r0, #100]	@ 0x64
1000036c:	eea5 3acb 	vfms.f32	s6, s11, s22
10000370:	eee5 1ae9 	vfms.f32	s3, s11, s19
10000374:	eea6 1a69 	vfms.f32	s2, s12, s19
10000378:	eea6 5aa9 	vfma.f32	s10, s13, s19
1000037c:	eee6 0a8c 	vfma.f32	s1, s13, s24
10000380:	eee6 4a0c 	vfma.f32	s9, s12, s24
10000384:	eea7 0a6d 	vfms.f32	s0, s14, s27
10000388:	eea5 4aad 	vfma.f32	s8, s11, s27
1000038c:	eea8 2aa7 	vfma.f32	s4, s17, s15
10000390:	edd0 8a25 	vldr	s17, [r0, #148]	@ 0x94
10000394:	ed90 da1d 	vldr	s26, [r0, #116]	@ 0x74
10000398:	edd0 ea20 	vldr	s29, [r0, #128]	@ 0x80
1000039c:	eea7 3a09 	vfma.f32	s6, s14, s18
100003a0:	eee7 1a2c 	vfma.f32	s3, s14, s25
100003a4:	eea6 1aac 	vfma.f32	s2, s13, s25
100003a8:	eea6 5a2c 	vfma.f32	s10, s12, s25
100003ac:	eee7 0a4e 	vfms.f32	s1, s14, s28
100003b0:	eee5 4a8e 	vfma.f32	s9, s11, s28
100003b4:	eea8 0aa7 	vfma.f32	s0, s17, s15
100003b8:	eea8 4aa7 	vfma.f32	s8, s17, s15
100003bc:	edd0 8a26 	vldr	s17, [r0, #152]	@ 0x98
100003c0:	ed90 fa24 	vldr	s30, [r0, #144]	@ 0x90
100003c4:	eea6 3a8d 	vfma.f32	s6, s13, s26
100003c8:	eee6 1aae 	vfma.f32	s3, s13, s29
100003cc:	eea7 1a6e 	vfms.f32	s2, s14, s29
100003d0:	eea5 5aae 	vfma.f32	s10, s11, s29
100003d4:	eee8 0aa7 	vfma.f32	s1, s17, s15
100003d8:	eee8 4aa7 	vfma.f32	s9, s17, s15
100003dc:	edd0 8a27 	vldr	s17, [r0, #156]	@ 0x9c
100003e0:	eee6 3a8b 	vfma.f32	s7, s13, s22
100003e4:	eea6 8a4b 	vfms.f32	s16, s12, s22
100003e8:	eeaf 3a27 	vfma.f32	s6, s30, s15
100003ec:	eee8 1aa7 	vfma.f32	s3, s17, s15
100003f0:	eea8 1aa7 	vfma.f32	s2, s17, s15
100003f4:	eea8 5aa7 	vfma.f32	s10, s17, s15
100003f8:	edd0 8a2b 	vldr	s17, [r0, #172]	@ 0xac
100003fc:	eee6 3a09 	vfma.f32	s7, s12, s18
10000400:	eea6 8a89 	vfma.f32	s16, s13, s18
10000404:	eea8 3aa7 	vfma.f32	s6, s17, s15
10000408:	edd0 8a2c 	vldr	s17, [r0, #176]	@ 0xb0
1000040c:	eee5 3a8d 	vfma.f32	s7, s11, s26
10000410:	eea7 8a4d 	vfms.f32	s16, s14, s26
10000414:	eee8 2aa7 	vfma.f32	s5, s17, s15
10000418:	edd0 8a2d 	vldr	s17, [r0, #180]	@ 0xb4
1000041c:	eeef 3a27 	vfma.f32	s7, s30, s15
10000420:	eeaf 8a27 	vfma.f32	s16, s30, s15
10000424:	eea8 2aa7 	vfma.f32	s4, s17, s15
10000428:	edd0 8a2b 	vldr	s17, [r0, #172]	@ 0xac
1000042c:	eea8 8aa7 	vfma.f32	s16, s17, s15
10000430:	eee8 3aa7 	vfma.f32	s7, s17, s15
10000434:	edd0 8a2c 	vldr	s17, [r0, #176]	@ 0xb0
10000438:	eea8 0aa7 	vfma.f32	s0, s17, s15
1000043c:	eea8 4aa7 	vfma.f32	s8, s17, s15
10000440:	edd0 8a2d 	vldr	s17, [r0, #180]	@ 0xb4
10000444:	eee8 0aa7 	vfma.f32	s1, s17, s15
10000448:	eee8 4aa7 	vfma.f32	s9, s17, s15
1000044c:	edd0 8a2e 	vldr	s17, [r0, #184]	@ 0xb8
10000450:	eee8 1aa7 	vfma.f32	s3, s17, s15
10000454:	eea8 1aa7 	vfma.f32	s2, s17, s15
10000458:	eea8 5aa7 	vfma.f32	s10, s17, s15
1000045c:	edd0 8a32 	vldr	s17, [r0, #200]	@ 0xc8
10000460:	eea8 3aa7 	vfma.f32	s6, s17, s15
10000464:	edd0 8a33 	vldr	s17, [r0, #204]	@ 0xcc
10000468:	eee8 2aa7 	vfma.f32	s5, s17, s15
1000046c:	edd0 8a34 	vldr	s17, [r0, #208]	@ 0xd0
10000470:	eeb0 ea48 	vmov.f32	s28, s16
10000474:	eea8 2aa7 	vfma.f32	s4, s17, s15
10000478:	edd0 8a32 	vldr	s17, [r0, #200]	@ 0xc8
1000047c:	eee8 3aa7 	vfma.f32	s7, s17, s15
10000480:	eea8 eaa7 	vfma.f32	s28, s17, s15
10000484:	edd0 8a33 	vldr	s17, [r0, #204]	@ 0xcc
10000488:	eea8 0aa7 	vfma.f32	s0, s17, s15
1000048c:	eef0 ea40 	vmov.f32	s29, s0
10000490:	ed90 0a34 	vldr	s0, [r0, #208]	@ 0xd0
10000494:	eee0 4a27 	vfma.f32	s9, s0, s15
10000498:	eee0 0a27 	vfma.f32	s1, s0, s15
1000049c:	ed90 0a35 	vldr	s0, [r0, #212]	@ 0xd4
100004a0:	eea8 4aa7 	vfma.f32	s8, s17, s15
100004a4:	eee0 1a27 	vfma.f32	s3, s0, s15
100004a8:	eea0 1a27 	vfma.f32	s2, s0, s15
100004ac:	eea0 5a27 	vfma.f32	s10, s0, s15
100004b0:	edd0 8a0c 	vldr	s17, [r0, #48]	@ 0x30
100004b4:	eeb0 0a67 	vmov.f32	s0, s15
100004b8:	edd0 9a0c 	vldr	s19, [r0, #48]	@ 0x30
100004bc:	eea6 0a68 	vfms.f32	s0, s12, s17
100004c0:	eef0 8a67 	vmov.f32	s17, s15
100004c4:	eee5 8aa9 	vfma.f32	s17, s11, s19
100004c8:	edcd 0a02 	vstr	s1, [sp, #8]
100004cc:	eef0 0a68 	vmov.f32	s1, s17
100004d0:	eef0 8a67 	vmov.f32	s17, s15
100004d4:	eee7 8a29 	vfma.f32	s17, s14, s19
100004d8:	edd0 da0e 	vldr	s27, [r0, #56]	@ 0x38
100004dc:	edd0 9a0d 	vldr	s19, [r0, #52]	@ 0x34
100004e0:	ed8d 1a01 	vstr	s2, [sp, #4]
100004e4:	eef0 aa67 	vmov.f32	s21, s15
100004e8:	eeb0 1a68 	vmov.f32	s2, s17
100004ec:	eef0 8a67 	vmov.f32	s17, s15
100004f0:	eee5 aaad 	vfma.f32	s21, s11, s27
100004f4:	eee6 8a69 	vfms.f32	s17, s12, s19
100004f8:	eef0 ba6a 	vmov.f32	s23, s21
100004fc:	eeb0 9a68 	vmov.f32	s18, s17
10000500:	eeb0 8a67 	vmov.f32	s16, s15
10000504:	eef0 8a67 	vmov.f32	s17, s15
10000508:	eef0 aa67 	vmov.f32	s21, s15
1000050c:	ed90 da15 	vldr	s26, [r0, #84]	@ 0x54
10000510:	eee5 8aa9 	vfma.f32	s17, s11, s19
10000514:	eea7 8a29 	vfma.f32	s16, s14, s19
10000518:	eee7 aa2d 	vfma.f32	s21, s14, s27
1000051c:	edd0 9a0e 	vldr	s19, [r0, #56]	@ 0x38
10000520:	eeb0 ca67 	vmov.f32	s24, s15
10000524:	ed90 ba1c 	vldr	s22, [r0, #112]	@ 0x70
10000528:	edd0 da13 	vldr	s27, [r0, #76]	@ 0x4c
1000052c:	eea6 ca69 	vfms.f32	s24, s12, s19
10000530:	eee6 aa8d 	vfma.f32	s21, s13, s26
10000534:	eee6 ba4d 	vfms.f32	s23, s12, s26
10000538:	eee6 aa0b 	vfma.f32	s21, s12, s22
1000053c:	eea5 0aed 	vfms.f32	s0, s11, s27
10000540:	eee6 0a6d 	vfms.f32	s1, s12, s27
10000544:	eea6 1aad 	vfma.f32	s2, s13, s27
10000548:	eea5 cacd 	vfms.f32	s24, s11, s26
1000054c:	edd0 da14 	vldr	s27, [r0, #80]	@ 0x50
10000550:	ed90 da1a 	vldr	s26, [r0, #104]	@ 0x68
10000554:	edd0 ca1b 	vldr	s25, [r0, #108]	@ 0x6c
10000558:	eea5 9aed 	vfms.f32	s18, s11, s27
1000055c:	eee6 8a6d 	vfms.f32	s17, s12, s27
10000560:	eea6 8aad 	vfma.f32	s16, s13, s27
10000564:	eea7 0a0d 	vfma.f32	s0, s14, s26
10000568:	eee6 0a8d 	vfma.f32	s1, s13, s26
1000056c:	eea6 1a0d 	vfma.f32	s2, s12, s26
10000570:	eef0 da6a 	vmov.f32	s27, s21
10000574:	edd0 aa21 	vldr	s21, [r0, #132]	@ 0x84
10000578:	ed90 aa22 	vldr	s20, [r0, #136]	@ 0x88
1000057c:	eea7 9a2c 	vfma.f32	s18, s14, s25
10000580:	eea6 8a2c 	vfma.f32	s16, s12, s25
10000584:	eea6 0aaa 	vfma.f32	s0, s13, s21
10000588:	eee7 0a6a 	vfms.f32	s1, s14, s21
1000058c:	eea5 1aaa 	vfma.f32	s2, s11, s21
10000590:	eef0 aa67 	vmov.f32	s21, s15
10000594:	eea7 ca0b 	vfma.f32	s24, s14, s22
10000598:	eea6 9a8a 	vfma.f32	s18, s13, s20
1000059c:	eea5 8a8a 	vfma.f32	s16, s11, s20
100005a0:	eee6 8aac 	vfma.f32	s17, s13, s25
100005a4:	eeb0 da6b 	vmov.f32	s26, s23
100005a8:	eee6 aa43 	vfms.f32	s21, s12, s6
100005ac:	eef0 ca4c 	vmov.f32	s25, s24
100005b0:	eea6 da8b 	vfma.f32	s26, s13, s22
100005b4:	ed90 ca29 	vldr	s24, [r0, #164]	@ 0xa4
100005b8:	eee7 8a4a 	vfms.f32	s17, s14, s20
100005bc:	eeb0 fa49 	vmov.f32	s30, s18
100005c0:	eeb0 ba48 	vmov.f32	s22, s16
100005c4:	eeb0 aa67 	vmov.f32	s20, s15
100005c8:	eee5 aae2 	vfms.f32	s21, s11, s5
100005cc:	edd0 9a28 	vldr	s19, [r0, #160]	@ 0xa0
100005d0:	edd0 ba23 	vldr	s23, [r0, #140]	@ 0x8c
100005d4:	eeac fa27 	vfma.f32	s30, s24, s15
100005d8:	eeec 8a27 	vfma.f32	s17, s24, s15
100005dc:	eeac ba27 	vfma.f32	s22, s24, s15
100005e0:	eee7 aa02 	vfma.f32	s21, s14, s4
100005e4:	eea7 aa0e 	vfma.f32	s20, s14, s28
100005e8:	eeb0 ca67 	vmov.f32	s24, s15
100005ec:	eee9 0aa7 	vfma.f32	s1, s19, s15
100005f0:	eea7 da6b 	vfms.f32	s26, s14, s23
100005f4:	eeb0 8a6a 	vmov.f32	s16, s21
100005f8:	eeb0 9a68 	vmov.f32	s18, s17
100005fc:	eea5 ca83 	vfma.f32	s24, s11, s6
10000600:	edd0 8a2f 	vldr	s17, [r0, #188]	@ 0xbc
10000604:	ed8d 5a04 	vstr	s10, [sp, #16]
10000608:	eea6 aaae 	vfma.f32	s20, s13, s29
1000060c:	ed9d 5a02 	vldr	s10, [sp, #8]
10000610:	eea9 0aa7 	vfma.f32	s0, s19, s15
10000614:	eef0 fa4d 	vmov.f32	s31, s26
10000618:	eea6 aa05 	vfma.f32	s20, s12, s10
1000061c:	eeb0 da60 	vmov.f32	s26, s1
10000620:	eef0 0a4c 	vmov.f32	s1, s24
10000624:	eeb0 ca48 	vmov.f32	s24, s16
10000628:	ed9d 8a01 	vldr	s16, [sp, #4]
1000062c:	eea8 0aa7 	vfma.f32	s0, s17, s15
10000630:	eea5 aa88 	vfma.f32	s20, s11, s16
10000634:	eea9 1aa7 	vfma.f32	s2, s19, s15
10000638:	eee6 caab 	vfma.f32	s25, s13, s23
1000063c:	eee5 daab 	vfma.f32	s27, s11, s23
10000640:	eef0 9a40 	vmov.f32	s19, s0
10000644:	eef0 ba4a 	vmov.f32	s23, s20
10000648:	ed90 aa36 	vldr	s20, [r0, #216]	@ 0xd8
1000064c:	eeea 9a27 	vfma.f32	s19, s20, s15
10000650:	eeb0 aa4f 	vmov.f32	s20, s30
10000654:	ed90 fa30 	vldr	s30, [r0, #192]	@ 0xc0
10000658:	eeaf aa27 	vfma.f32	s20, s30, s15
1000065c:	ed90 fa2a 	vldr	s30, [r0, #168]	@ 0xa8
10000660:	eeef ca27 	vfma.f32	s25, s30, s15
10000664:	eea8 1aa7 	vfma.f32	s2, s17, s15
10000668:	eea8 daa7 	vfma.f32	s26, s17, s15
1000066c:	eeb0 fa6c 	vmov.f32	s30, s25
10000670:	edd0 ca36 	vldr	s25, [r0, #216]	@ 0xd8
10000674:	eeb0 0a67 	vmov.f32	s0, s15
10000678:	eeac daa7 	vfma.f32	s26, s25, s15
1000067c:	eef0 ca41 	vmov.f32	s25, s2
10000680:	ed90 1a36 	vldr	s2, [r0, #216]	@ 0xd8
10000684:	eef0 aa67 	vmov.f32	s21, s15
10000688:	eee1 ca27 	vfma.f32	s25, s2, s15
1000068c:	eea5 0a8e 	vfma.f32	s0, s11, s28
10000690:	edcd ca03 	vstr	s25, [sp, #12]
10000694:	eeb0 1a45 	vmov.f32	s2, s10
10000698:	edd0 ca30 	vldr	s25, [r0, #192]	@ 0xc0
1000069c:	eee6 aa4e 	vfms.f32	s21, s12, s28
100006a0:	eef0 8a67 	vmov.f32	s17, s15
100006a4:	eea6 0a6e 	vfms.f32	s0, s12, s29
100006a8:	eeac 9aa7 	vfma.f32	s18, s25, s15
100006ac:	eeac baa7 	vfma.f32	s22, s25, s15
100006b0:	eea6 0a81 	vfma.f32	s0, s13, s2
100006b4:	edd0 ca2a 	vldr	s25, [r0, #168]	@ 0xa8
100006b8:	eee7 8a03 	vfma.f32	s17, s14, s6
100006bc:	eee5 aaee 	vfms.f32	s21, s11, s29
100006c0:	eee6 0a62 	vfms.f32	s1, s12, s5
100006c4:	eeb0 1a67 	vmov.f32	s2, s15
100006c8:	eeec faa7 	vfma.f32	s31, s25, s15
100006cc:	eeec daa7 	vfma.f32	s27, s25, s15
100006d0:	eee7 aa05 	vfma.f32	s21, s14, s10
100006d4:	edd0 ca37 	vldr	s25, [r0, #220]	@ 0xdc
100006d8:	eee6 8aa2 	vfma.f32	s17, s13, s5
100006dc:	eee6 0a82 	vfma.f32	s1, s13, s4
100006e0:	eea7 1a23 	vfma.f32	s2, s14, s7
100006e4:	eeb0 5a69 	vmov.f32	s10, s19
100006e8:	eeac baa7 	vfma.f32	s22, s25, s15
100006ec:	eee6 aa88 	vfma.f32	s21, s13, s16
100006f0:	eea7 0a48 	vfms.f32	s0, s14, s16
100006f4:	eee6 8a02 	vfma.f32	s17, s12, s4
100006f8:	eee7 0a61 	vfms.f32	s1, s14, s3
100006fc:	eea6 1a84 	vfma.f32	s2, s13, s8
10000700:	edcd fa05 	vstr	s31, [sp, #20]
10000704:	eeac 9aa7 	vfma.f32	s18, s25, s15
10000708:	eeac aaa7 	vfma.f32	s20, s25, s15
1000070c:	eee5 0a27 	vfma.f32	s1, s10, s15
10000710:	eef0 ca4b 	vmov.f32	s25, s22
10000714:	eddd fa05 	vldr	s31, [sp, #20]
10000718:	ed90 ba31 	vldr	s22, [r0, #196]	@ 0xc4
1000071c:	eea6 1a24 	vfma.f32	s2, s12, s9
10000720:	eeed ba27 	vfma.f32	s23, s26, s15
10000724:	eee5 8aa1 	vfma.f32	s17, s11, s3
10000728:	eeed aa27 	vfma.f32	s21, s26, s15
1000072c:	eead 0a27 	vfma.f32	s0, s26, s15
10000730:	eee9 ba27 	vfma.f32	s23, s18, s15
10000734:	eeab fa27 	vfma.f32	s30, s22, s15
10000738:	eee5 8a27 	vfma.f32	s17, s10, s15
1000073c:	eee9 aa27 	vfma.f32	s21, s18, s15
10000740:	eea9 0a27 	vfma.f32	s0, s18, s15
10000744:	eeeb fa27 	vfma.f32	s31, s22, s15
10000748:	eeeb da27 	vfma.f32	s27, s22, s15
1000074c:	ed8d 9a0b 	vstr	s18, [sp, #44]	@ 0x2c
10000750:	eeb0 ba60 	vmov.f32	s22, s1
10000754:	ed9d 9a04 	vldr	s18, [sp, #16]
10000758:	eef0 0a41 	vmov.f32	s1, s2
1000075c:	eeb0 8a68 	vmov.f32	s16, s17
10000760:	eee5 0a89 	vfma.f32	s1, s11, s18
10000764:	eddd 8a03 	vldr	s17, [sp, #12]
10000768:	eea6 caa1 	vfma.f32	s24, s13, s3
1000076c:	eee8 0aa7 	vfma.f32	s1, s17, s15
10000770:	eea9 caa7 	vfma.f32	s24, s19, s15
10000774:	edd0 8a38 	vldr	s17, [r0, #224]	@ 0xe0
10000778:	eef0 9a6b 	vmov.f32	s19, s23
1000077c:	eef0 ba4f 	vmov.f32	s23, s30
10000780:	eee8 faa7 	vfma.f32	s31, s17, s15
10000784:	eeaa ca27 	vfma.f32	s24, s20, s15
10000788:	eeb0 fa6a 	vmov.f32	s30, s21
1000078c:	eeb0 1a67 	vmov.f32	s2, s15
10000790:	eef0 aa6b 	vmov.f32	s21, s23
10000794:	edcd fa05 	vstr	s31, [sp, #20]
10000798:	eee8 aaa7 	vfma.f32	s21, s17, s15
1000079c:	eef0 fa4c 	vmov.f32	s31, s24
100007a0:	eea5 1aa3 	vfma.f32	s2, s11, s7
100007a4:	eee8 daa7 	vfma.f32	s27, s17, s15
100007a8:	eeea faa7 	vfma.f32	s31, s21, s15
100007ac:	eddd 8a05 	vldr	s17, [sp, #20]
100007b0:	eeb0 ca69 	vmov.f32	s24, s19
100007b4:	ed8d 5a0c 	vstr	s10, [sp, #48]	@ 0x30
100007b8:	eeaa ba27 	vfma.f32	s22, s20, s15
100007bc:	eeb0 5a40 	vmov.f32	s10, s0
100007c0:	eea6 1a44 	vfms.f32	s2, s12, s8
100007c4:	eeb0 0a67 	vmov.f32	s0, s15
100007c8:	eef0 ba6f 	vmov.f32	s23, s31
100007cc:	eea8 caa7 	vfma.f32	s24, s17, s15
100007d0:	eea8 faa7 	vfma.f32	s30, s17, s15
100007d4:	eea8 5aa7 	vfma.f32	s10, s17, s15
100007d8:	eeaa baa7 	vfma.f32	s22, s21, s15
100007dc:	eddd 8a60 	vldr	s17, [sp, #384]	@ 0x180
100007e0:	eeaa 8a27 	vfma.f32	s16, s20, s15
100007e4:	eea6 0a63 	vfms.f32	s0, s12, s7
100007e8:	eeec 0aa7 	vfma.f32	s1, s25, s15
100007ec:	eea6 1aa4 	vfma.f32	s2, s13, s9
100007f0:	eef0 fa4c 	vmov.f32	s31, s24
100007f4:	eef0 9a4b 	vmov.f32	s19, s22
100007f8:	ee3b caa8 	vadd.f32	s24, s23, s17
100007fc:	ee38 ba85 	vadd.f32	s22, s17, s10
10000800:	eeaa 8aa7 	vfma.f32	s16, s21, s15
10000804:	eea7 1a49 	vfms.f32	s2, s14, s18
10000808:	eddd ba03 	vldr	s23, [sp, #12]
1000080c:	eea5 0ac4 	vfms.f32	s0, s11, s8
10000810:	eeed 0aa7 	vfma.f32	s1, s27, s15
10000814:	eea7 0a24 	vfma.f32	s0, s14, s9
10000818:	ee78 0aa0 	vadd.f32	s1, s17, s1
1000081c:	eeab 1aa7 	vfma.f32	s2, s23, s15
10000820:	ee6f 8a08 	vmul.f32	s17, s30, s16
10000824:	ed8d 8a14 	vstr	s16, [sp, #80]	@ 0x50
10000828:	ee28 8a4b 	vnmul.f32	s16, s16, s22
1000082c:	eea6 0a89 	vfma.f32	s0, s13, s18
10000830:	eeaf 8aa9 	vfma.f32	s16, s31, s19
10000834:	eeb0 9a4c 	vmov.f32	s18, s24
10000838:	eeac 1aa7 	vfma.f32	s2, s25, s15
1000083c:	ee2c ca2f 	vmul.f32	s24, s24, s31
10000840:	eeab 0aa7 	vfma.f32	s0, s23, s15
10000844:	ee29 5acf 	vnmul.f32	s10, s19, s30
10000848:	edcd fa13 	vstr	s31, [sp, #76]	@ 0x4c
1000084c:	eead 1aa7 	vfma.f32	s2, s27, s15
10000850:	eef0 fa48 	vmov.f32	s31, s16
10000854:	ee3c 8a68 	vsub.f32	s16, s24, s17
10000858:	eea9 5a0b 	vfma.f32	s10, s18, s22
1000085c:	eeac 0aa7 	vfma.f32	s0, s25, s15
10000860:	ee21 8a48 	vnmul.f32	s16, s2, s16
10000864:	eead 0aa7 	vfma.f32	s0, s27, s15
10000868:	eea5 8a20 	vfma.f32	s16, s10, s1
1000086c:	eeaf 8a80 	vfma.f32	s16, s31, s0
10000870:	ed8d 9a10 	vstr	s18, [sp, #64]	@ 0x40
10000874:	ed8d 5a11 	vstr	s10, [sp, #68]	@ 0x44
10000878:	eeb0 9ac8 	vabs.f32	s18, s16
1000087c:	ed9f 5a86 	vldr	s10, [pc, #536]	@ 10000a98 <_ZN13QuaternionEKF6updateEffff+0x87c>
10000880:	eeb4 9ac5 	vcmpe.f32	s18, s10
10000884:	eef1 fa10 	vmrs	APSR_nzcv, fpscr
10000888:	edcd 9a15 	vstr	s19, [sp, #84]	@ 0x54
1000088c:	edcd fa12 	vstr	s31, [sp, #72]	@ 0x48
10000890:	f100 8420 	bmi.w	100010d4 <_ZN13QuaternionEKF6updateEffff+0xeb8>
10000894:	eddd fa06 	vldr	s31, [sp, #24]
10000898:	4604      	mov	r4, r0
1000089a:	ee1f 0a90 	vmov	r0, s31
1000089e:	ee78 8acc 	vsub.f32	s17, s17, s24
100008a2:	ed9d 5a09 	vldr	s10, [sp, #36]	@ 0x24
100008a6:	eef6 9a00 	vmov.f32	s19, #96	@ 0x3f000000  0.5
100008aa:	9317      	str	r3, [sp, #92]	@ 0x5c
100008ac:	4b7b      	ldr	r3, [pc, #492]	@ (10000a9c <_ZN13QuaternionEKF6updateEffff+0x880>)
100008ae:	edcd 8a0d 	vstr	s17, [sp, #52]	@ 0x34
100008b2:	eba3 0360 	sub.w	r3, r3, r0, asr #1
100008b6:	ee08 3a90 	vmov	s17, r3
100008ba:	ee25 ca45 	vnmul.f32	s24, s10, s10
100008be:	ee6f 9aa9 	vmul.f32	s19, s31, s19
100008c2:	eddd ba0f 	vldr	s23, [sp, #60]	@ 0x3c
100008c6:	ee69 9aa8 	vmul.f32	s19, s19, s17
100008ca:	ed9d 5a0a 	vldr	s10, [sp, #40]	@ 0x28
100008ce:	eef0 fa4c 	vmov.f32	s31, s24
100008d2:	eeb7 ca00 	vmov.f32	s24, #112	@ 0x3f800000  1.0
100008d6:	edcd 9a06 	vstr	s19, [sp, #24]
100008da:	ee8c ca08 	vdiv.f32	s24, s24, s16
100008de:	ee65 9a6b 	vnmul.f32	s19, s10, s23
100008e2:	ed9d 8a07 	vldr	s16, [sp, #28]
100008e6:	ed9d 5a09 	vldr	s10, [sp, #36]	@ 0x24
100008ea:	eee5 9a08 	vfma.f32	s19, s10, s16
100008ee:	ed9d 5a0a 	vldr	s10, [sp, #40]	@ 0x28
100008f2:	edcd 9a08 	vstr	s19, [sp, #32]
100008f6:	ee65 9a08 	vmul.f32	s19, s10, s16
100008fa:	ed9d 5a09 	vldr	s10, [sp, #36]	@ 0x24
100008fe:	eeeb 9a85 	vfma.f32	s19, s23, s10
10000902:	ed9d 8a06 	vldr	s16, [sp, #24]
10000906:	eeeb faab 	vfma.f32	s31, s23, s23
1000090a:	eef0 ba69 	vmov.f32	s23, s19
1000090e:	eef7 9a08 	vmov.f32	s19, #120	@ 0x3fc00000  1.5
10000912:	ed9d 5a0a 	vldr	s10, [sp, #40]	@ 0x28
10000916:	eee8 9ac8 	vfms.f32	s19, s17, s16
1000091a:	eee5 fa45 	vfms.f32	s31, s10, s10
1000091e:	eeb0 5a69 	vmov.f32	s10, s19
10000922:	eddd 9a08 	vldr	s19, [sp, #32]
10000926:	ee79 9aa9 	vadd.f32	s19, s19, s19
1000092a:	ed9d 8a07 	vldr	s16, [sp, #28]
1000092e:	edcd 9a08 	vstr	s19, [sp, #32]
10000932:	ee7b 9aab 	vadd.f32	s19, s23, s23
10000936:	eef0 ba6f 	vmov.f32	s23, s31
1000093a:	eee8 ba08 	vfma.f32	s23, s16, s16
1000093e:	ed9d 8a11 	vldr	s16, [sp, #68]	@ 0x44
10000942:	ee28 8a0c 	vmul.f32	s16, s16, s24
10000946:	ed8d 8a11 	vstr	s16, [sp, #68]	@ 0x44
1000094a:	ed9d 8a0d 	vldr	s16, [sp, #52]	@ 0x34
1000094e:	ee28 8a0c 	vmul.f32	s16, s16, s24
10000952:	ed8d 8a16 	vstr	s16, [sp, #88]	@ 0x58
10000956:	ed9d 8a12 	vldr	s16, [sp, #72]	@ 0x48
1000095a:	ee28 8a0c 	vmul.f32	s16, s16, s24
1000095e:	910e      	str	r1, [sp, #56]	@ 0x38
10000960:	ee65 fa28 	vmul.f32	s31, s10, s17
10000964:	ed8d 8a06 	vstr	s16, [sp, #24]
10000968:	ed9d 5a0e 	vldr	s10, [sp, #56]	@ 0x38
1000096c:	ed9d 8a08 	vldr	s16, [sp, #32]
10000970:	ee09 2a10 	vmov	s18, r2
10000974:	ee95 8a2f 	vfnms.f32	s16, s10, s31
10000978:	eed9 9a2f 	vfnms.f32	s19, s18, s31
1000097c:	ed9d 5a17 	vldr	s10, [sp, #92]	@ 0x5c
10000980:	ed8d 8a0d 	vstr	s16, [sp, #52]	@ 0x34
10000984:	eeb0 8a6b 	vmov.f32	s16, s23
10000988:	edcd 9a08 	vstr	s19, [sp, #32]
1000098c:	ee95 8a2f 	vfnms.f32	s16, s10, s31
10000990:	eddd 9a10 	vldr	s19, [sp, #64]	@ 0x40
10000994:	ed8d 8a0e 	vstr	s16, [sp, #56]	@ 0x38
10000998:	ee21 5a69 	vnmul.f32	s10, s2, s19
1000099c:	ed9d 8a14 	vldr	s16, [sp, #80]	@ 0x50
100009a0:	eddd ba15 	vldr	s23, [sp, #84]	@ 0x54
100009a4:	eea0 5a2b 	vfma.f32	s10, s0, s23
100009a8:	ee6b bae0 	vnmul.f32	s23, s23, s1
100009ac:	ee60 fa4b 	vnmul.f32	s31, s0, s22
100009b0:	ee68 8a40 	vnmul.f32	s17, s16, s0
100009b4:	eee1 ba08 	vfma.f32	s23, s2, s16
100009b8:	ed9d 8a13 	vldr	s16, [sp, #76]	@ 0x4c
100009bc:	eeef fa01 	vfma.f32	s31, s30, s2
100009c0:	ee20 facf 	vnmul.f32	s30, s1, s30
100009c4:	ee21 1a48 	vnmul.f32	s2, s2, s16
100009c8:	eee9 8aa0 	vfma.f32	s17, s19, s1
100009cc:	eeab 1a20 	vfma.f32	s2, s22, s1
100009d0:	eea8 fa00 	vfma.f32	s30, s16, s0
100009d4:	ee25 ba0c 	vmul.f32	s22, s10, s24
100009d8:	ee68 0a8c 	vmul.f32	s1, s17, s24
100009dc:	ee6f fa8c 	vmul.f32	s31, s31, s24
100009e0:	ee2f fa0c 	vmul.f32	s30, s30, s24
100009e4:	ee6b ba8c 	vmul.f32	s23, s23, s24
100009e8:	ee21 ca0c 	vmul.f32	s24, s2, s24
100009ec:	2254      	movs	r2, #84	@ 0x54
100009ee:	2100      	movs	r1, #0
100009f0:	a822      	add	r0, sp, #136	@ 0x88
100009f2:	edcd 7a1a 	vstr	s15, [sp, #104]	@ 0x68
100009f6:	edcd 6a10 	vstr	s13, [sp, #64]	@ 0x40
100009fa:	ed8d 7a12 	vstr	s14, [sp, #72]	@ 0x48
100009fe:	edcd 4a1b 	vstr	s9, [sp, #108]	@ 0x6c
10000a02:	edcd 5a14 	vstr	s11, [sp, #80]	@ 0x50
10000a06:	ed8d 4a1c 	vstr	s8, [sp, #112]	@ 0x70
10000a0a:	ed8d 6a15 	vstr	s12, [sp, #84]	@ 0x54
10000a0e:	edcd 3a1d 	vstr	s7, [sp, #116]	@ 0x74
10000a12:	edcd 1a1e 	vstr	s3, [sp, #120]	@ 0x78
10000a16:	ed8d 2a1f 	vstr	s4, [sp, #124]	@ 0x7c
10000a1a:	edcd 2a20 	vstr	s5, [sp, #128]	@ 0x80
10000a1e:	ed8d 3a21 	vstr	s6, [sp, #132]	@ 0x84
10000a22:	edcd 0a13 	vstr	s1, [sp, #76]	@ 0x4c
10000a26:	f008 fc7f 	bl	10009328 <memset>
10000a2a:	ed9d 7a12 	vldr	s14, [sp, #72]	@ 0x48
10000a2e:	eddd 6a10 	vldr	s13, [sp, #64]	@ 0x40
10000a32:	ed9d 6a15 	vldr	s12, [sp, #84]	@ 0x54
10000a36:	eddd 5a14 	vldr	s11, [sp, #80]	@ 0x50
10000a3a:	4623      	mov	r3, r4
10000a3c:	4622      	mov	r2, r4
10000a3e:	ed8d ba10 	vstr	s22, [sp, #64]	@ 0x40
10000a42:	edcd fa12 	vstr	s31, [sp, #72]	@ 0x48
10000a46:	ed8d fa14 	vstr	s30, [sp, #80]	@ 0x50
10000a4a:	edcd ba15 	vstr	s23, [sp, #84]	@ 0x54
10000a4e:	ed8d ca17 	vstr	s24, [sp, #92]	@ 0x5c
10000a52:	edcd ea18 	vstr	s29, [sp, #96]	@ 0x60
10000a56:	ed8d ea19 	vstr	s28, [sp, #100]	@ 0x64
10000a5a:	ed9d 8a03 	vldr	s16, [sp, #12]
10000a5e:	ed9d 5a04 	vldr	s10, [sp, #16]
10000a62:	eddd 4a1b 	vldr	s9, [sp, #108]	@ 0x6c
10000a66:	ed9d 4a1c 	vldr	s8, [sp, #112]	@ 0x70
10000a6a:	eddd 3a1d 	vldr	s7, [sp, #116]	@ 0x74
10000a6e:	ed9d 3a21 	vldr	s6, [sp, #132]	@ 0x84
10000a72:	eddd 2a20 	vldr	s5, [sp, #128]	@ 0x80
10000a76:	ed9d 2a1f 	vldr	s4, [sp, #124]	@ 0x7c
10000a7a:	eddd 8a05 	vldr	s17, [sp, #20]
10000a7e:	eddd 1a1e 	vldr	s3, [sp, #120]	@ 0x78
10000a82:	ed9d 9a0b 	vldr	s18, [sp, #44]	@ 0x2c
10000a86:	eddd 9a0c 	vldr	s19, [sp, #48]	@ 0x30
10000a8a:	eddd 7a1a 	vldr	s15, [sp, #104]	@ 0x68
10000a8e:	a922      	add	r1, sp, #136	@ 0x88
10000a90:	f104 00c4 	add.w	r0, r4, #196	@ 0xc4
10000a94:	e004      	b.n	10000aa0 <_ZN13QuaternionEKF6updateEffff+0x884>
10000a96:	bf00      	nop
10000a98:	358637bd 	.word	0x358637bd
10000a9c:	5f3759df 	.word	0x5f3759df
10000aa0:	edd2 fa08 	vldr	s31, [r2, #32]
10000aa4:	ed91 0a00 	vldr	s0, [r1]
10000aa8:	edd1 0a01 	vldr	s1, [r1, #4]
10000aac:	ed91 1a02 	vldr	s2, [r1, #8]
10000ab0:	ed92 fa09 	vldr	s30, [r2, #36]	@ 0x24
10000ab4:	eea7 0a2f 	vfma.f32	s0, s14, s31
10000ab8:	eee5 0aaf 	vfma.f32	s1, s11, s31
10000abc:	eea6 1a6f 	vfms.f32	s2, s12, s31
10000ac0:	edd2 ea0a 	vldr	s29, [r2, #40]	@ 0x28
10000ac4:	eea6 0a8f 	vfma.f32	s0, s13, s30
10000ac8:	eee6 0a4f 	vfms.f32	s1, s12, s30
10000acc:	eea5 1acf 	vfms.f32	s2, s11, s30
10000ad0:	ed92 ea0b 	vldr	s28, [r2, #44]	@ 0x2c
10000ad4:	eea6 0a2e 	vfma.f32	s0, s12, s29
10000ad8:	eee6 0aae 	vfma.f32	s1, s13, s29
10000adc:	eea7 1a2e 	vfma.f32	s2, s14, s29
10000ae0:	ed92 ca0c 	vldr	s24, [r2, #48]	@ 0x30
10000ae4:	eea5 0a8e 	vfma.f32	s0, s11, s28
10000ae8:	eee7 0a4e 	vfms.f32	s1, s14, s28
10000aec:	eea6 1a8e 	vfma.f32	s2, s13, s28
10000af0:	edd2 ba0d 	vldr	s23, [r2, #52]	@ 0x34
10000af4:	eeac 0a27 	vfma.f32	s0, s24, s15
10000af8:	eeec 0a27 	vfma.f32	s1, s24, s15
10000afc:	eeac 1a27 	vfma.f32	s2, s24, s15
10000b00:	ed92 ba0e 	vldr	s22, [r2, #56]	@ 0x38
10000b04:	eeab 0aa7 	vfma.f32	s0, s23, s15
10000b08:	eeeb 0aa7 	vfma.f32	s1, s23, s15
10000b0c:	eeab 1aa7 	vfma.f32	s2, s23, s15
10000b10:	eeab 0a27 	vfma.f32	s0, s22, s15
10000b14:	eeeb 0a27 	vfma.f32	s1, s22, s15
10000b18:	eeab 1a27 	vfma.f32	s2, s22, s15
10000b1c:	321c      	adds	r2, #28
10000b1e:	4290      	cmp	r0, r2
10000b20:	f101 010c 	add.w	r1, r1, #12
10000b24:	ed01 0a03 	vstr	s0, [r1, #-12]
10000b28:	ed41 0a02 	vstr	s1, [r1, #-8]
10000b2c:	ed01 1a01 	vstr	s2, [r1, #-4]
10000b30:	d1b6      	bne.n	10000aa0 <_ZN13QuaternionEKF6updateEffff+0x884>
10000b32:	ed9d ba10 	vldr	s22, [sp, #64]	@ 0x40
10000b36:	ed9d 6a22 	vldr	s12, [sp, #136]	@ 0x88
10000b3a:	ed8d 8a03 	vstr	s16, [sp, #12]
10000b3e:	eeb0 8a67 	vmov.f32	s16, s15
10000b42:	eddd fa12 	vldr	s31, [sp, #72]	@ 0x48
10000b46:	ed9d 7a25 	vldr	s14, [sp, #148]	@ 0x94
10000b4a:	eeab 8a06 	vfma.f32	s16, s22, s12
10000b4e:	ed8d 5a04 	vstr	s10, [sp, #16]
10000b52:	edcd 8a05 	vstr	s17, [sp, #20]
10000b56:	ed9d 5a11 	vldr	s10, [sp, #68]	@ 0x44
10000b5a:	eef0 5a67 	vmov.f32	s11, s15
10000b5e:	eeb0 0a67 	vmov.f32	s0, s15
10000b62:	eef0 8a67 	vmov.f32	s17, s15
10000b66:	eddd 0a13 	vldr	s1, [sp, #76]	@ 0x4c
10000b6a:	ed9d fa14 	vldr	s30, [sp, #80]	@ 0x50
10000b6e:	eddd 6a26 	vldr	s13, [sp, #152]	@ 0x98
10000b72:	ed8d 8a10 	vstr	s16, [sp, #64]	@ 0x40
10000b76:	eee5 5a07 	vfma.f32	s11, s10, s14
10000b7a:	ed9d 8a16 	vldr	s16, [sp, #88]	@ 0x58
10000b7e:	eeab 0a07 	vfma.f32	s0, s22, s14
10000b82:	eeef 8a87 	vfma.f32	s17, s31, s14
10000b86:	ed8d 9a0b 	vstr	s18, [sp, #44]	@ 0x2c
10000b8a:	eeb0 1a67 	vmov.f32	s2, s15
10000b8e:	eeb0 9a67 	vmov.f32	s18, s15
10000b92:	ed9d 7a23 	vldr	s14, [sp, #140]	@ 0x8c
10000b96:	eeef 8a26 	vfma.f32	s17, s30, s13
10000b9a:	eea5 1a06 	vfma.f32	s2, s10, s12
10000b9e:	eeaf 9a86 	vfma.f32	s18, s31, s12
10000ba2:	eee8 5a26 	vfma.f32	s11, s16, s13
10000ba6:	eea0 0aa6 	vfma.f32	s0, s1, s13
10000baa:	edcd 9a0c 	vstr	s19, [sp, #48]	@ 0x30
10000bae:	eddd 6a10 	vldr	s13, [sp, #64]	@ 0x40
10000bb2:	eddd 9a28 	vldr	s19, [sp, #160]	@ 0xa0
10000bb6:	eeb0 6a67 	vmov.f32	s12, s15
10000bba:	eee0 6a87 	vfma.f32	s13, s1, s14
10000bbe:	eea5 6a29 	vfma.f32	s12, s10, s19
10000bc2:	eea8 1a07 	vfma.f32	s2, s16, s14
10000bc6:	eeaf 9a07 	vfma.f32	s18, s30, s14
10000bca:	ed9d 7a29 	vldr	s14, [sp, #164]	@ 0xa4
10000bce:	eea8 6a07 	vfma.f32	s12, s16, s14
10000bd2:	eeb0 7a67 	vmov.f32	s14, s15
10000bd6:	eeab 7a29 	vfma.f32	s14, s22, s19
10000bda:	ed8d 6a11 	vstr	s12, [sp, #68]	@ 0x44
10000bde:	eeb0 6a47 	vmov.f32	s12, s14
10000be2:	eeb0 7a67 	vmov.f32	s14, s15
10000be6:	eeaf 7aa9 	vfma.f32	s14, s31, s19
10000bea:	eddd 9a27 	vldr	s19, [sp, #156]	@ 0x9c
10000bee:	ed8d 7a12 	vstr	s14, [sp, #72]	@ 0x48
10000bf2:	ed9d 7a06 	vldr	s14, [sp, #24]
10000bf6:	eee7 5a29 	vfma.f32	s11, s14, s19
10000bfa:	eddd 9a24 	vldr	s19, [sp, #144]	@ 0x90
10000bfe:	eddd ba15 	vldr	s23, [sp, #84]	@ 0x54
10000c02:	eea7 1a29 	vfma.f32	s2, s14, s19
10000c06:	eddd 9a27 	vldr	s19, [sp, #156]	@ 0x9c
10000c0a:	eeab 0aa9 	vfma.f32	s0, s23, s19
10000c0e:	edcd 6a10 	vstr	s13, [sp, #64]	@ 0x40
10000c12:	ed9d ca17 	vldr	s24, [sp, #92]	@ 0x5c
10000c16:	eef0 6a65 	vmov.f32	s13, s11
10000c1a:	eeb0 7a41 	vmov.f32	s14, s2
10000c1e:	eef0 5a40 	vmov.f32	s11, s0
10000c22:	ed9d 1a10 	vldr	s2, [sp, #64]	@ 0x40
10000c26:	eeb0 0a68 	vmov.f32	s0, s17
10000c2a:	eddd 8a24 	vldr	s17, [sp, #144]	@ 0x90
10000c2e:	eeac 0a29 	vfma.f32	s0, s24, s19
10000c32:	eeab 1aa8 	vfma.f32	s2, s23, s17
10000c36:	eeac 9a28 	vfma.f32	s18, s24, s17
10000c3a:	eddd ea18 	vldr	s29, [sp, #96]	@ 0x60
10000c3e:	eef0 8a46 	vmov.f32	s17, s12
10000c42:	ed9d ea19 	vldr	s28, [sp, #100]	@ 0x64
10000c46:	eddd 9a29 	vldr	s19, [sp, #164]	@ 0xa4
10000c4a:	ed9d 6a12 	vldr	s12, [sp, #72]	@ 0x48
10000c4e:	eeaf 6a29 	vfma.f32	s12, s30, s19
10000c52:	eee0 8aa9 	vfma.f32	s17, s1, s19
10000c56:	ed8d 6a10 	vstr	s12, [sp, #64]	@ 0x40
10000c5a:	eddd 9a09 	vldr	s19, [sp, #36]	@ 0x24
10000c5e:	ed9d 6a0d 	vldr	s12, [sp, #52]	@ 0x34
10000c62:	eee6 9a26 	vfma.f32	s19, s12, s13
10000c66:	edcd 6a3a 	vstr	s13, [sp, #232]	@ 0xe8
10000c6a:	eeb0 6a69 	vmov.f32	s12, s19
10000c6e:	eddd 6a0d 	vldr	s13, [sp, #52]	@ 0x34
10000c72:	eddd 9a0f 	vldr	s19, [sp, #60]	@ 0x3c
10000c76:	ed8d 7a37 	vstr	s14, [sp, #220]	@ 0xdc
10000c7a:	eee6 9a87 	vfma.f32	s19, s13, s14
10000c7e:	ed9d 7a08 	vldr	s14, [sp, #32]
10000c82:	eef0 6a69 	vmov.f32	s13, s19
10000c86:	eea7 6a25 	vfma.f32	s12, s14, s11
10000c8a:	eee7 6a01 	vfma.f32	s13, s14, s2
10000c8e:	ed8d 1a38 	vstr	s2, [sp, #224]	@ 0xe0
10000c92:	ed8d 9a39 	vstr	s18, [sp, #228]	@ 0xe4
10000c96:	eeb0 1a46 	vmov.f32	s2, s12
10000c9a:	eeb0 6a49 	vmov.f32	s12, s18
10000c9e:	ed9d 9a0e 	vldr	s18, [sp, #56]	@ 0x38
10000ca2:	ed8d 0a3c 	vstr	s0, [sp, #240]	@ 0xf0
10000ca6:	eea9 1a00 	vfma.f32	s2, s18, s0
10000caa:	eeb0 0a66 	vmov.f32	s0, s13
10000cae:	ed9d 7a2a 	vldr	s14, [sp, #168]	@ 0xa8
10000cb2:	eea9 0a06 	vfma.f32	s0, s18, s12
10000cb6:	ed9d 6a10 	vldr	s12, [sp, #64]	@ 0x40
10000cba:	eeeb 8a87 	vfma.f32	s17, s23, s14
10000cbe:	eeac 6a07 	vfma.f32	s12, s24, s14
10000cc2:	edcd 5a3b 	vstr	s11, [sp, #236]	@ 0xec
10000cc6:	eddd 6a11 	vldr	s13, [sp, #68]	@ 0x44
10000cca:	eddd 5a06 	vldr	s11, [sp, #24]
10000cce:	eddd 9a2b 	vldr	s19, [sp, #172]	@ 0xac
10000cd2:	eee5 6a87 	vfma.f32	s13, s11, s14
10000cd6:	eeb0 9a46 	vmov.f32	s18, s12
10000cda:	eef0 5a68 	vmov.f32	s11, s17
10000cde:	ed8d 1a0f 	vstr	s2, [sp, #60]	@ 0x3c
10000ce2:	eeb0 6a67 	vmov.f32	s12, s15
10000ce6:	eeb0 1a67 	vmov.f32	s2, s15
10000cea:	eef0 8a67 	vmov.f32	s17, s15
10000cee:	eea5 1a29 	vfma.f32	s2, s10, s19
10000cf2:	eeab 6a29 	vfma.f32	s12, s22, s19
10000cf6:	eeef 8aa9 	vfma.f32	s17, s31, s19
10000cfa:	eeb0 7a67 	vmov.f32	s14, s15
10000cfe:	eddd 9a2e 	vldr	s19, [sp, #184]	@ 0xb8
10000d02:	eea5 7a29 	vfma.f32	s14, s10, s19
10000d06:	eddd 9a2c 	vldr	s19, [sp, #176]	@ 0xb0
10000d0a:	ed8d 7a10 	vstr	s14, [sp, #64]	@ 0x40
10000d0e:	eea8 1a29 	vfma.f32	s2, s16, s19
10000d12:	ed9d 7a0d 	vldr	s14, [sp, #52]	@ 0x34
10000d16:	eddd 9a0a 	vldr	s19, [sp, #40]	@ 0x28
10000d1a:	eee7 9a26 	vfma.f32	s19, s14, s13
10000d1e:	eeb0 7a69 	vmov.f32	s14, s19
10000d22:	eddd 9a2c 	vldr	s19, [sp, #176]	@ 0xb0
10000d26:	eeef 8a29 	vfma.f32	s17, s30, s19
10000d2a:	eea0 6aa9 	vfma.f32	s12, s1, s19
10000d2e:	edcd 6a3d 	vstr	s13, [sp, #244]	@ 0xf4
10000d32:	edcd 5a3e 	vstr	s11, [sp, #248]	@ 0xf8
10000d36:	ed8d 9a09 	vstr	s18, [sp, #36]	@ 0x24
10000d3a:	ed8d 9a3f 	vstr	s18, [sp, #252]	@ 0xfc
10000d3e:	eef0 6a68 	vmov.f32	s13, s17
10000d42:	ed9d 9a10 	vldr	s18, [sp, #64]	@ 0x40
10000d46:	eddd 9a2f 	vldr	s19, [sp, #188]	@ 0xbc
10000d4a:	eddd 8a08 	vldr	s17, [sp, #32]
10000d4e:	eea8 9a29 	vfma.f32	s18, s16, s19
10000d52:	eea8 7aa5 	vfma.f32	s14, s17, s11
10000d56:	eddd 9a2d 	vldr	s19, [sp, #180]	@ 0xb4
10000d5a:	eddd 5a06 	vldr	s11, [sp, #24]
10000d5e:	ed8d 9a0a 	vstr	s18, [sp, #40]	@ 0x28
10000d62:	eea5 1aa9 	vfma.f32	s2, s11, s19
10000d66:	ed9d 9a0e 	vldr	s18, [sp, #56]	@ 0x38
10000d6a:	eeab 6aa9 	vfma.f32	s12, s23, s19
10000d6e:	eeec 6a29 	vfma.f32	s13, s24, s19
10000d72:	eddd 5a09 	vldr	s11, [sp, #36]	@ 0x24
10000d76:	eef0 9a47 	vmov.f32	s19, s14
10000d7a:	eee9 9a25 	vfma.f32	s19, s18, s11
10000d7e:	ed9d 7a0d 	vldr	s14, [sp, #52]	@ 0x34
10000d82:	eef0 5a69 	vmov.f32	s11, s19
10000d86:	eddd 9a07 	vldr	s19, [sp, #28]
10000d8a:	eee7 9a01 	vfma.f32	s19, s14, s2
10000d8e:	eeb0 7a69 	vmov.f32	s14, s19
10000d92:	eea8 7a86 	vfma.f32	s14, s17, s12
10000d96:	ed8d 6a41 	vstr	s12, [sp, #260]	@ 0x104
10000d9a:	eddd 8a2e 	vldr	s17, [sp, #184]	@ 0xb8
10000d9e:	eeb0 6a47 	vmov.f32	s12, s14
10000da2:	eef0 9a67 	vmov.f32	s19, s15
10000da6:	eea9 6a26 	vfma.f32	s12, s18, s13
10000daa:	eeeb 9a28 	vfma.f32	s19, s22, s17
10000dae:	ed9d 7a06 	vldr	s14, [sp, #24]
10000db2:	ed8d 1a40 	vstr	s2, [sp, #256]	@ 0x100
10000db6:	edcd 6a42 	vstr	s13, [sp, #264]	@ 0x108
10000dba:	eeb0 1a69 	vmov.f32	s2, s19
10000dbe:	eddd 6a0a 	vldr	s13, [sp, #40]	@ 0x28
10000dc2:	eddd 9a30 	vldr	s19, [sp, #192]	@ 0xc0
10000dc6:	ed8d 6a0e 	vstr	s12, [sp, #56]	@ 0x38
10000dca:	eeb0 6a67 	vmov.f32	s12, s15
10000dce:	eee7 6a29 	vfma.f32	s13, s14, s19
10000dd2:	eeaf 6aa8 	vfma.f32	s12, s31, s17
10000dd6:	eddd 8a0f 	vldr	s17, [sp, #60]	@ 0x3c
10000dda:	ed8d 6a07 	vstr	s12, [sp, #28]
10000dde:	edcd 6a0a 	vstr	s13, [sp, #40]	@ 0x28
10000de2:	ee28 6aa8 	vmul.f32	s12, s17, s17
10000de6:	eddd 6a31 	vldr	s13, [sp, #196]	@ 0xc4
10000dea:	eef0 8a67 	vmov.f32	s17, s15
10000dee:	eee5 8a26 	vfma.f32	s17, s10, s13
10000df2:	edcd 8a09 	vstr	s17, [sp, #36]	@ 0x24
10000df6:	eef0 8a67 	vmov.f32	s17, s15
10000dfa:	eeeb 8a26 	vfma.f32	s17, s22, s13
10000dfe:	edcd 8a10 	vstr	s17, [sp, #64]	@ 0x40
10000e02:	eef0 8a67 	vmov.f32	s17, s15
10000e06:	eddd 9a2f 	vldr	s19, [sp, #188]	@ 0xbc
10000e0a:	eeef 8aa6 	vfma.f32	s17, s31, s13
10000e0e:	eef0 6a41 	vmov.f32	s13, s2
10000e12:	ed9d 1a07 	vldr	s2, [sp, #28]
10000e16:	ed9d 7a32 	vldr	s14, [sp, #200]	@ 0xc8
10000e1a:	eeaf 1a29 	vfma.f32	s2, s30, s19
10000e1e:	edcd 8a12 	vstr	s17, [sp, #72]	@ 0x48
10000e22:	eddd 8a09 	vldr	s17, [sp, #36]	@ 0x24
10000e26:	ed8d 1a07 	vstr	s2, [sp, #28]
10000e2a:	eee8 8a07 	vfma.f32	s17, s16, s14
10000e2e:	ed9d 1a0a 	vldr	s2, [sp, #40]	@ 0x28
10000e32:	eee0 6aa9 	vfma.f32	s13, s1, s19
10000e36:	ed8d 1a43 	vstr	s2, [sp, #268]	@ 0x10c
10000e3a:	edcd 8a11 	vstr	s17, [sp, #68]	@ 0x44
10000e3e:	eddd 8a10 	vldr	s17, [sp, #64]	@ 0x40
10000e42:	eddd 9a30 	vldr	s19, [sp, #192]	@ 0xc0
10000e46:	eee0 8a87 	vfma.f32	s17, s1, s14
10000e4a:	eeeb 6aa9 	vfma.f32	s13, s23, s19
10000e4e:	eea0 6a00 	vfma.f32	s12, s0, s0
10000e52:	edcd 8a13 	vstr	s17, [sp, #76]	@ 0x4c
10000e56:	eef0 8a66 	vmov.f32	s17, s13
10000e5a:	eddd 6a07 	vldr	s13, [sp, #28]
10000e5e:	eeec 6a29 	vfma.f32	s13, s24, s19
10000e62:	eef0 9a46 	vmov.f32	s19, s12
10000e66:	ed9d 1a12 	vldr	s2, [sp, #72]	@ 0x48
10000e6a:	eee5 9aa5 	vfma.f32	s19, s11, s11
10000e6e:	eeaf 1a07 	vfma.f32	s2, s30, s14
10000e72:	ed9d 6a0e 	vldr	s12, [sp, #56]	@ 0x38
10000e76:	eeb0 7a69 	vmov.f32	s14, s19
10000e7a:	eea6 7a06 	vfma.f32	s14, s12, s12
10000e7e:	edcd 8a09 	vstr	s17, [sp, #36]	@ 0x24
10000e82:	ed8d 7a10 	vstr	s14, [sp, #64]	@ 0x40
10000e86:	edcd 8a44 	vstr	s17, [sp, #272]	@ 0x110
10000e8a:	ed9d 7a33 	vldr	s14, [sp, #204]	@ 0xcc
10000e8e:	eddd 8a11 	vldr	s17, [sp, #68]	@ 0x44
10000e92:	edcd 6a07 	vstr	s13, [sp, #28]
10000e96:	edcd 6a45 	vstr	s13, [sp, #276]	@ 0x114
10000e9a:	eddd 6a06 	vldr	s13, [sp, #24]
10000e9e:	eee6 8a87 	vfma.f32	s17, s13, s14
10000ea2:	ed8d 1a14 	vstr	s2, [sp, #80]	@ 0x50
10000ea6:	edcd 8a12 	vstr	s17, [sp, #72]	@ 0x48
10000eaa:	ed9d 6a14 	vldr	s12, [sp, #80]	@ 0x50
10000eae:	eddd 8a13 	vldr	s17, [sp, #76]	@ 0x4c
10000eb2:	eeac 6a07 	vfma.f32	s12, s24, s14
10000eb6:	eeeb 8a87 	vfma.f32	s17, s23, s14
10000eba:	eef0 9a67 	vmov.f32	s19, s15
10000ebe:	ed9d 7a34 	vldr	s14, [sp, #208]	@ 0xd0
10000ec2:	eee5 9a07 	vfma.f32	s19, s10, s14
10000ec6:	eef0 6a69 	vmov.f32	s13, s19
10000eca:	eef0 9a67 	vmov.f32	s19, s15
10000ece:	eeef 7a87 	vfma.f32	s15, s31, s14
10000ed2:	eeeb 9a07 	vfma.f32	s19, s22, s14
10000ed6:	eef0 fa67 	vmov.f32	s31, s15
10000eda:	eddd 7a10 	vldr	s15, [sp, #64]	@ 0x40
10000ede:	ed9d 7a35 	vldr	s14, [sp, #212]	@ 0xd4
10000ee2:	ed8d 6a11 	vstr	s12, [sp, #68]	@ 0x44
10000ee6:	eeb0 ba66 	vmov.f32	s22, s13
10000eea:	eeb0 6a69 	vmov.f32	s12, s19
10000eee:	ee17 5a90 	vmov	r5, s15
10000ef2:	eea8 ba07 	vfma.f32	s22, s16, s14
10000ef6:	eea0 6a87 	vfma.f32	s12, s1, s14
10000efa:	eef6 0a00 	vmov.f32	s1, #96	@ 0x3f000000  0.5
10000efe:	4977      	ldr	r1, [pc, #476]	@ (100010dc <_ZN13QuaternionEKF6updateEffff+0xec0>)
10000f00:	eddd 6a36 	vldr	s13, [sp, #216]	@ 0xd8
10000f04:	eba1 0165 	sub.w	r1, r1, r5, asr #1
10000f08:	eeef fa07 	vfma.f32	s31, s30, s14
10000f0c:	ee27 7aa0 	vmul.f32	s14, s15, s1
10000f10:	ee07 1a90 	vmov	s15, r1
10000f14:	eef0 0a4b 	vmov.f32	s1, s22
10000f18:	eeb0 ba46 	vmov.f32	s22, s12
10000f1c:	ed9d 5a06 	vldr	s10, [sp, #24]
10000f20:	eeab baa6 	vfma.f32	s22, s23, s13
10000f24:	ee27 7a27 	vmul.f32	s14, s14, s15
10000f28:	eef0 ba6f 	vmov.f32	s23, s31
10000f2c:	eef7 9a08 	vmov.f32	s19, #120	@ 0x3fc00000  1.5
10000f30:	ed9d 8a12 	vldr	s16, [sp, #72]	@ 0x48
10000f34:	eee5 0a26 	vfma.f32	s1, s10, s13
10000f38:	eeec ba26 	vfma.f32	s23, s24, s13
10000f3c:	eee7 9ac7 	vfms.f32	s19, s15, s14
10000f40:	ed9d fa11 	vldr	s30, [sp, #68]	@ 0x44
10000f44:	ee69 6aa7 	vmul.f32	s13, s19, s15
10000f48:	ed8d 8a46 	vstr	s16, [sp, #280]	@ 0x118
10000f4c:	edcd 8a47 	vstr	s17, [sp, #284]	@ 0x11c
10000f50:	ed8d fa48 	vstr	s30, [sp, #288]	@ 0x120
10000f54:	edcd 0a49 	vstr	s1, [sp, #292]	@ 0x124
10000f58:	ed8d ba4a 	vstr	s22, [sp, #296]	@ 0x128
10000f5c:	edcd ba4b 	vstr	s23, [sp, #300]	@ 0x12c
10000f60:	edd4 7a05 	vldr	s15, [r4, #20]
10000f64:	ed9d 5a0d 	vldr	s10, [sp, #52]	@ 0x34
10000f68:	ed9d 7a0a 	vldr	s14, [sp, #40]	@ 0x28
10000f6c:	ed9d ca0e 	vldr	s24, [sp, #56]	@ 0x38
10000f70:	ed9d 6a0f 	vldr	s12, [sp, #60]	@ 0x3c
10000f74:	eee5 7a07 	vfma.f32	s15, s10, s14
10000f78:	ee26 6a86 	vmul.f32	s12, s13, s12
10000f7c:	ee26 7a80 	vmul.f32	s14, s13, s0
10000f80:	ee66 5aa5 	vmul.f32	s11, s13, s11
10000f84:	ed9d 0a08 	vldr	s0, [sp, #32]
10000f88:	ee66 6a8c 	vmul.f32	s13, s13, s24
10000f8c:	ed9d ca09 	vldr	s24, [sp, #36]	@ 0x24
10000f90:	edc4 6a04 	vstr	s13, [r4, #16]
10000f94:	eee0 7a0c 	vfma.f32	s15, s0, s24
10000f98:	eddd 6a07 	vldr	s13, [sp, #28]
10000f9c:	eee9 7a26 	vfma.f32	s15, s18, s13
10000fa0:	edc4 7a05 	vstr	s15, [r4, #20]
10000fa4:	edd4 7a06 	vldr	s15, [r4, #24]
10000fa8:	eee5 7a08 	vfma.f32	s15, s10, s16
10000fac:	eee0 7a28 	vfma.f32	s15, s0, s17
10000fb0:	eee9 7a0f 	vfma.f32	s15, s18, s30
10000fb4:	edc4 7a06 	vstr	s15, [r4, #24]
10000fb8:	edd4 7a07 	vldr	s15, [r4, #28]
10000fbc:	eee5 7a20 	vfma.f32	s15, s10, s1
10000fc0:	eee0 7a0b 	vfma.f32	s15, s0, s22
10000fc4:	eee9 7a2b 	vfma.f32	s15, s18, s23
10000fc8:	ed9f 1a45 	vldr	s2, [pc, #276]	@ 100010e0 <_ZN13QuaternionEKF6updateEffff+0xec4>
10000fcc:	ed84 7a01 	vstr	s14, [r4, #4]
10000fd0:	ed84 6a02 	vstr	s12, [r4, #8]
10000fd4:	edc4 5a03 	vstr	s11, [r4, #12]
10000fd8:	edc4 7a07 	vstr	s15, [r4, #28]
10000fdc:	ed9d 8a03 	vldr	s16, [sp, #12]
10000fe0:	ed9d 5a04 	vldr	s10, [sp, #16]
10000fe4:	eddd 8a05 	vldr	s17, [sp, #20]
10000fe8:	ed9d 9a0b 	vldr	s18, [sp, #44]	@ 0x2c
10000fec:	eddd 9a0c 	vldr	s19, [sp, #48]	@ 0x30
10000ff0:	aa37      	add	r2, sp, #220	@ 0xdc
10000ff2:	edd2 5a00 	vldr	s11, [r2]
10000ff6:	eeb0 ca41 	vmov.f32	s24, s2
10000ffa:	eef0 ba41 	vmov.f32	s23, s2
10000ffe:	eeb0 ba41 	vmov.f32	s22, s2
10001002:	eeb0 7a41 	vmov.f32	s14, s2
10001006:	eef0 7a41 	vmov.f32	s15, s2
1000100a:	eeb0 0a41 	vmov.f32	s0, s2
1000100e:	eef0 0a41 	vmov.f32	s1, s2
10001012:	ed92 6a01 	vldr	s12, [r2, #4]
10001016:	eea3 caa5 	vfma.f32	s24, s7, s11
1000101a:	eee4 ba25 	vfma.f32	s23, s8, s11
1000101e:	eea4 baa5 	vfma.f32	s22, s9, s11
10001022:	eea5 7a25 	vfma.f32	s14, s10, s11
10001026:	eee8 7a25 	vfma.f32	s15, s16, s11
1000102a:	eeac 0aa5 	vfma.f32	s0, s25, s11
1000102e:	eeed 0aa5 	vfma.f32	s1, s27, s11
10001032:	eddd 5a02 	vldr	s11, [sp, #8]
10001036:	eea5 ba86 	vfma.f32	s22, s11, s12
1000103a:	eddd 5a01 	vldr	s11, [sp, #4]
1000103e:	edd2 6a02 	vldr	s13, [r2, #8]
10001042:	eea5 7a86 	vfma.f32	s14, s11, s12
10001046:	edd3 fa08 	vldr	s31, [r3, #32]
1000104a:	ed93 fa09 	vldr	s30, [r3, #36]	@ 0x24
1000104e:	331c      	adds	r3, #28
10001050:	eeae ca06 	vfma.f32	s24, s28, s12
10001054:	eeee ba86 	vfma.f32	s23, s29, s12
10001058:	eeed 7a06 	vfma.f32	s15, s26, s12
1000105c:	eea6 0a09 	vfma.f32	s0, s12, s18
10001060:	eee6 0a28 	vfma.f32	s1, s12, s17
10001064:	eea6 7aa1 	vfma.f32	s14, s13, s3
10001068:	ed93 6a04 	vldr	s12, [r3, #16]
1000106c:	eee6 7aa9 	vfma.f32	s15, s13, s19
10001070:	ee36 7a47 	vsub.f32	s14, s12, s14
10001074:	ed93 6a05 	vldr	s12, [r3, #20]
10001078:	eea6 0a8a 	vfma.f32	s0, s13, s20
1000107c:	ee76 7a67 	vsub.f32	s15, s12, s15
10001080:	ed93 6a06 	vldr	s12, [r3, #24]
10001084:	eea6 ca83 	vfma.f32	s24, s13, s6
10001088:	eee6 baa2 	vfma.f32	s23, s13, s5
1000108c:	eea6 ba82 	vfma.f32	s22, s13, s4
10001090:	eee6 0aaa 	vfma.f32	s1, s13, s21
10001094:	ee76 5a40 	vsub.f32	s11, s12, s0
10001098:	edd3 6a03 	vldr	s13, [r3, #12]
1000109c:	ed93 6a07 	vldr	s12, [r3, #28]
100010a0:	ee7f facc 	vsub.f32	s31, s31, s24
100010a4:	ee3f fa6b 	vsub.f32	s30, s30, s23
100010a8:	ee76 6acb 	vsub.f32	s13, s13, s22
100010ac:	ee36 6a60 	vsub.f32	s12, s12, s1
100010b0:	4283      	cmp	r3, r0
100010b2:	edc3 fa01 	vstr	s31, [r3, #4]
100010b6:	ed83 fa02 	vstr	s30, [r3, #8]
100010ba:	edc3 6a03 	vstr	s13, [r3, #12]
100010be:	ed83 7a04 	vstr	s14, [r3, #16]
100010c2:	edc3 7a05 	vstr	s15, [r3, #20]
100010c6:	edc3 5a06 	vstr	s11, [r3, #24]
100010ca:	ed83 6a07 	vstr	s12, [r3, #28]
100010ce:	f102 020c 	add.w	r2, r2, #12
100010d2:	d18e      	bne.n	10000ff2 <_ZN13QuaternionEKF6updateEffff+0xdd6>
100010d4:	b04d      	add	sp, #308	@ 0x134
100010d6:	ecbd 8b10 	vpop	{d8-d15}
100010da:	bd30      	pop	{r4, r5, pc}
100010dc:	5f3759df 	.word	0x5f3759df
	...

100010e8 <main>:
100010e8:	e92d 4ff0 	stmdb	sp!, {r4, r5, r6, r7, r8, r9, sl, fp, lr}
100010ec:	ed2d 8b10 	vpush	{d8-d15}
100010f0:	f5ad 7d6f 	sub.w	sp, sp, #956	@ 0x3bc
100010f4:	2064      	movs	r0, #100	@ 0x64
100010f6:	f50d 7b35 	add.w	fp, sp, #724	@ 0x2d4
100010fa:	f002 fcc7 	bl	10003a8c <sleep_ms>
100010fe:	465b      	mov	r3, fp
10001100:	4804      	ldr	r0, [pc, #16]	@ (10001114 <main+0x2c>)
10001102:	aa84      	add	r2, sp, #528	@ 0x210
10001104:	a953      	add	r1, sp, #332	@ 0x14c
10001106:	f002 ff05 	bl	10003f14 <check_sys_clock_khz>
1000110a:	b938      	cbnz	r0, 1000111c <main+0x34>
1000110c:	4901      	ldr	r1, [pc, #4]	@ (10001114 <main+0x2c>)
1000110e:	4802      	ldr	r0, [pc, #8]	@ (10001118 <main+0x30>)
10001110:	f001 fd42 	bl	10002b98 <panic>
10001114:	0003d090 	.word	0x0003d090
10001118:	100096c8 	.word	0x100096c8
1000111c:	9ab5      	ldr	r2, [sp, #724]	@ 0x2d4
1000111e:	9984      	ldr	r1, [sp, #528]	@ 0x210
10001120:	4604      	mov	r4, r0
10001122:	9853      	ldr	r0, [sp, #332]	@ 0x14c
10001124:	f002 fe32 	bl	10003d8c <set_sys_clock_pll>
10001128:	f005 fa3c 	bl	100065a4 <stdio_init_all>
1000112c:	f640 30b8 	movw	r0, #3000	@ 0xbb8
10001130:	f002 fcac 	bl	10003a8c <sleep_ms>
10001134:	48cd      	ldr	r0, [pc, #820]	@ (1000146c <main+0x384>)
10001136:	f005 fa79 	bl	1000662c <__wrap_puts>
1000113a:	48cd      	ldr	r0, [pc, #820]	@ (10001470 <main+0x388>)
1000113c:	f005 fa76 	bl	1000662c <__wrap_puts>
10001140:	2005      	movs	r0, #5
10001142:	f002 fe1d 	bl	10003d80 <clock_get_hz>
10001146:	f44f 717a 	mov.w	r1, #1000	@ 0x3e8
1000114a:	fbb0 f1f1 	udiv	r1, r0, r1
1000114e:	48c9      	ldr	r0, [pc, #804]	@ (10001474 <main+0x38c>)
10001150:	f005 faea 	bl	10006728 <__wrap_printf>
10001154:	2019      	movs	r0, #25
10001156:	f001 fcf9 	bl	10002b4c <gpio_init>
1000115a:	2319      	movs	r3, #25
1000115c:	f04f 0201 	mov.w	r2, #1
10001160:	ec42 3044 	gpioc_bit_oe_put r3, r2
10001164:	4bc4      	ldr	r3, [pc, #784]	@ (10001478 <main+0x390>)
10001166:	49c5      	ldr	r1, [pc, #788]	@ (1000147c <main+0x394>)
10001168:	9349      	str	r3, [sp, #292]	@ 0x124
1000116a:	48c5      	ldr	r0, [pc, #788]	@ (10001480 <main+0x398>)
1000116c:	f1a3 1302 	sub.w	r3, r3, #131074	@ 0x20002
10001170:	934a      	str	r3, [sp, #296]	@ 0x128
10001172:	f007 feed 	bl	10008f50 <pio_add_program>
10001176:	2500      	movs	r5, #0
10001178:	f04f 0901 	mov.w	r9, #1
1000117c:	f100 0209 	add.w	r2, r0, #9
10001180:	01c3      	lsls	r3, r0, #7
10001182:	ea43 3302 	orr.w	r3, r3, r2, lsl #12
10001186:	f023 53f8 	bic.w	r3, r3, #520093696	@ 0x1f000000
1000118a:	f8df 82f4 	ldr.w	r8, [pc, #756]	@ 10001480 <main+0x398>
1000118e:	af49      	add	r7, sp, #292	@ 0x124
10001190:	9305      	str	r3, [sp, #20]
10001192:	9408      	str	r4, [sp, #32]
10001194:	9006      	str	r0, [sp, #24]
10001196:	f44f 2340 	mov.w	r3, #786432	@ 0xc0000
1000119a:	93b7      	str	r3, [sp, #732]	@ 0x2dc
1000119c:	f44f 3300 	mov.w	r3, #131072	@ 0x20000
100011a0:	2600      	movs	r6, #0
100011a2:	f837 4b02 	ldrh.w	r4, [r7], #2
100011a6:	9a05      	ldr	r2, [sp, #20]
100011a8:	93b5      	str	r3, [sp, #724]	@ 0x2d4
100011aa:	0623      	lsls	r3, r4, #24
100011ac:	f003 53f8 	and.w	r3, r3, #520093696	@ 0x1f000000
100011b0:	4313      	orrs	r3, r2
100011b2:	93b6      	str	r3, [sp, #728]	@ 0x2d8
100011b4:	03e3      	lsls	r3, r4, #15
100011b6:	f403 2378 	and.w	r3, r3, #1015808	@ 0xf8000
100011ba:	2106      	movs	r1, #6
100011bc:	4620      	mov	r0, r4
100011be:	93b8      	str	r3, [sp, #736]	@ 0x2e0
100011c0:	f001 fc3c 	bl	10002a3c <gpio_set_function>
100011c4:	4629      	mov	r1, r5
100011c6:	2301      	movs	r3, #1
100011c8:	4622      	mov	r2, r4
100011ca:	48ad      	ldr	r0, [pc, #692]	@ (10001480 <main+0x398>)
100011cc:	9600      	str	r6, [sp, #0]
100011ce:	f007 ff43 	bl	10009058 <pio_sm_set_consecutive_pindirs>
100011d2:	465b      	mov	r3, fp
100011d4:	4629      	mov	r1, r5
100011d6:	9a06      	ldr	r2, [sp, #24]
100011d8:	48a9      	ldr	r0, [pc, #676]	@ (10001480 <main+0x398>)
100011da:	f007 ff83 	bl	100090e4 <pio_sm_init>
100011de:	f8d8 2000 	ldr.w	r2, [r8]
100011e2:	fa09 f305 	lsl.w	r3, r9, r5
100011e6:	3501      	adds	r5, #1
100011e8:	4313      	orrs	r3, r2
100011ea:	2d04      	cmp	r5, #4
100011ec:	f8c8 3000 	str.w	r3, [r8]
100011f0:	d1d1      	bne.n	10001196 <main+0xae>
100011f2:	4629      	mov	r1, r5
100011f4:	2002      	movs	r0, #2
100011f6:	9c08      	ldr	r4, [sp, #32]
100011f8:	f001 fc20 	bl	10002a3c <gpio_set_function>
100011fc:	2005      	movs	r0, #5
100011fe:	f002 fdbf 	bl	10003d80 <clock_get_hz>
10001202:	ee07 0a10 	vmov	s14, r0
10001206:	ed9f 9a9f 	vldr	s18, [pc, #636]	@ 10001484 <main+0x39c>
1000120a:	eeb8 7a47 	vcvt.f32.u32	s14, s14
1000120e:	eddf 8a9e 	vldr	s17, [pc, #632]	@ 10001488 <main+0x3a0>
10001212:	eec7 7a09 	vdiv.f32	s15, s14, s18
10001216:	eeb3 8a00 	vmov.f32	s16, #48	@ 0x41800000  16.0
1000121a:	ee77 7aa8 	vadd.f32	s15, s15, s17
1000121e:	ee67 7a88 	vmul.f32	s15, s15, s16
10001222:	f44f 78f5 	mov.w	r8, #490	@ 0x1ea
10001226:	eefc 7ae7 	vcvt.u32.f32	s15, s15
1000122a:	f44f 63ff 	mov.w	r3, #2040	@ 0x7f8
1000122e:	4f97      	ldr	r7, [pc, #604]	@ (1000148c <main+0x3a4>)
10001230:	2201      	movs	r2, #1
10001232:	617e      	str	r6, [r7, #20]
10001234:	2102      	movs	r1, #2
10001236:	61fe      	str	r6, [r7, #28]
10001238:	4895      	ldr	r0, [pc, #596]	@ (10001490 <main+0x3a8>)
1000123a:	623e      	str	r6, [r7, #32]
1000123c:	627b      	str	r3, [r7, #36]	@ 0x24
1000123e:	edc7 7a06 	vstr	s15, [r7, #24]
10001242:	4633      	mov	r3, r6
10001244:	f8c7 9014 	str.w	r9, [r7, #20]
10001248:	f8cd 8000 	str.w	r8, [sp]
1000124c:	f005 fa6c 	bl	10006728 <__wrap_printf>
10001250:	4629      	mov	r1, r5
10001252:	2003      	movs	r0, #3
10001254:	f001 fbf2 	bl	10002a3c <gpio_set_function>
10001258:	2005      	movs	r0, #5
1000125a:	f002 fd91 	bl	10003d80 <clock_get_hz>
1000125e:	ee07 0a10 	vmov	s14, r0
10001262:	eeb8 7a47 	vcvt.f32.u32	s14, s14
10001266:	eec7 7a09 	vdiv.f32	s15, s14, s18
1000126a:	ee77 7aa8 	vadd.f32	s15, s15, s17
1000126e:	ee67 7a88 	vmul.f32	s15, s15, s16
10001272:	2301      	movs	r3, #1
10001274:	eefc 7ae7 	vcvt.u32.f32	s15, s15
10001278:	f44f 62ff 	mov.w	r2, #2040	@ 0x7f8
1000127c:	617e      	str	r6, [r7, #20]
1000127e:	2103      	movs	r1, #3
10001280:	61fe      	str	r6, [r7, #28]
10001282:	4883      	ldr	r0, [pc, #524]	@ (10001490 <main+0x3a8>)
10001284:	623e      	str	r6, [r7, #32]
10001286:	627a      	str	r2, [r7, #36]	@ 0x24
10001288:	edc7 7a06 	vstr	s15, [r7, #24]
1000128c:	461a      	mov	r2, r3
1000128e:	f8c7 9014 	str.w	r9, [r7, #20]
10001292:	f8cd 8000 	str.w	r8, [sp]
10001296:	f005 fa47 	bl	10006728 <__wrap_printf>
1000129a:	4629      	mov	r1, r5
1000129c:	4628      	mov	r0, r5
1000129e:	f001 fbcd 	bl	10002a3c <gpio_set_function>
100012a2:	2005      	movs	r0, #5
100012a4:	f002 fd6c 	bl	10003d80 <clock_get_hz>
100012a8:	ee07 0a10 	vmov	s14, r0
100012ac:	eeb8 7a47 	vcvt.f32.u32	s14, s14
100012b0:	eec7 7a09 	vdiv.f32	s15, s14, s18
100012b4:	ee77 7aa8 	vadd.f32	s15, s15, s17
100012b8:	ee67 7a88 	vmul.f32	s15, s15, s16
100012bc:	f44f 63ff 	mov.w	r3, #2040	@ 0x7f8
100012c0:	eefc 7ae7 	vcvt.u32.f32	s15, s15
100012c4:	62be      	str	r6, [r7, #40]	@ 0x28
100012c6:	2202      	movs	r2, #2
100012c8:	633e      	str	r6, [r7, #48]	@ 0x30
100012ca:	4629      	mov	r1, r5
100012cc:	637e      	str	r6, [r7, #52]	@ 0x34
100012ce:	4870      	ldr	r0, [pc, #448]	@ (10001490 <main+0x3a8>)
100012d0:	63bb      	str	r3, [r7, #56]	@ 0x38
100012d2:	edc7 7a0b 	vstr	s15, [r7, #44]	@ 0x2c
100012d6:	4633      	mov	r3, r6
100012d8:	f8c7 9028 	str.w	r9, [r7, #40]	@ 0x28
100012dc:	f8cd 8000 	str.w	r8, [sp]
100012e0:	f005 fa22 	bl	10006728 <__wrap_printf>
100012e4:	4629      	mov	r1, r5
100012e6:	2005      	movs	r0, #5
100012e8:	f001 fba8 	bl	10002a3c <gpio_set_function>
100012ec:	2005      	movs	r0, #5
100012ee:	f002 fd47 	bl	10003d80 <clock_get_hz>
100012f2:	ee07 0a10 	vmov	s14, r0
100012f6:	eeb8 7a47 	vcvt.f32.u32	s14, s14
100012fa:	eec7 7a09 	vdiv.f32	s15, s14, s18
100012fe:	ee77 7aa8 	vadd.f32	s15, s15, s17
10001302:	ee67 7a88 	vmul.f32	s15, s15, s16
10001306:	62be      	str	r6, [r7, #40]	@ 0x28
10001308:	eefc 7ae7 	vcvt.u32.f32	s15, s15
1000130c:	633e      	str	r6, [r7, #48]	@ 0x30
1000130e:	637e      	str	r6, [r7, #52]	@ 0x34
10001310:	f44f 66ff 	mov.w	r6, #2040	@ 0x7f8
10001314:	2301      	movs	r3, #1
10001316:	63be      	str	r6, [r7, #56]	@ 0x38
10001318:	2202      	movs	r2, #2
1000131a:	edc7 7a0b 	vstr	s15, [r7, #44]	@ 0x2c
1000131e:	2105      	movs	r1, #5
10001320:	f8c7 9028 	str.w	r9, [r7, #40]	@ 0x28
10001324:	485a      	ldr	r0, [pc, #360]	@ (10001490 <main+0x3a8>)
10001326:	f8cd 8000 	str.w	r8, [sp]
1000132a:	f005 f9fd 	bl	10006728 <__wrap_printf>
1000132e:	4859      	ldr	r0, [pc, #356]	@ (10001494 <main+0x3ac>)
10001330:	f005 f97c 	bl	1000662c <__wrap_puts>
10001334:	6a3a      	ldr	r2, [r7, #32]
10001336:	4b58      	ldr	r3, [pc, #352]	@ (10001498 <main+0x3b0>)
10001338:	f482 727a 	eor.w	r2, r2, #1000	@ 0x3e8
1000133c:	b292      	uxth	r2, r2
1000133e:	621a      	str	r2, [r3, #32]
10001340:	6a3a      	ldr	r2, [r7, #32]
10001342:	4e56      	ldr	r6, [pc, #344]	@ (1000149c <main+0x3b4>)
10001344:	f082 727a 	eor.w	r2, r2, #65536000	@ 0x3e80000
10001348:	4032      	ands	r2, r6
1000134a:	621a      	str	r2, [r3, #32]
1000134c:	6b7a      	ldr	r2, [r7, #52]	@ 0x34
1000134e:	4629      	mov	r1, r5
10001350:	f482 727a 	eor.w	r2, r2, #1000	@ 0x3e8
10001354:	b292      	uxth	r2, r2
10001356:	635a      	str	r2, [r3, #52]	@ 0x34
10001358:	6b7a      	ldr	r2, [r7, #52]	@ 0x34
1000135a:	2015      	movs	r0, #21
1000135c:	f082 727a 	eor.w	r2, r2, #65536000	@ 0x3e80000
10001360:	4032      	ands	r2, r6
10001362:	635a      	str	r2, [r3, #52]	@ 0x34
10001364:	f001 fb6a 	bl	10002a3c <gpio_set_function>
10001368:	f44f 62fa 	mov.w	r2, #2000	@ 0x7d0
1000136c:	62fa      	str	r2, [r7, #44]	@ 0x2c
1000136e:	6b7a      	ldr	r2, [r7, #52]	@ 0x34
10001370:	4b49      	ldr	r3, [pc, #292]	@ (10001498 <main+0x3b0>)
10001372:	4032      	ands	r2, r6
10001374:	635a      	str	r2, [r3, #52]	@ 0x34
10001376:	6aba      	ldr	r2, [r7, #40]	@ 0x28
10001378:	f8df 9140 	ldr.w	r9, [pc, #320]	@ 100014bc <main+0x3d4>
1000137c:	43d2      	mvns	r2, r2
1000137e:	f002 0201 	and.w	r2, r2, #1
10001382:	f109 0510 	add.w	r5, r9, #16
10001386:	629a      	str	r2, [r3, #40]	@ 0x28
10001388:	f8b9 3000 	ldrh.w	r3, [r9]
1000138c:	2b00      	cmp	r3, #0
1000138e:	f040 80f6 	bne.w	1000157e <main+0x496>
10001392:	6b7b      	ldr	r3, [r7, #52]	@ 0x34
10001394:	f8df 8100 	ldr.w	r8, [pc, #256]	@ 10001498 <main+0x3b0>
10001398:	4033      	ands	r3, r6
1000139a:	f8b9 0002 	ldrh.w	r0, [r9, #2]
1000139e:	f8c8 3034 	str.w	r3, [r8, #52]	@ 0x34
100013a2:	f002 fb73 	bl	10003a8c <sleep_ms>
100013a6:	6b7b      	ldr	r3, [r7, #52]	@ 0x34
100013a8:	2014      	movs	r0, #20
100013aa:	4033      	ands	r3, r6
100013ac:	f8c8 3034 	str.w	r3, [r8, #52]	@ 0x34
100013b0:	f109 0904 	add.w	r9, r9, #4
100013b4:	f002 fb6a 	bl	10003a8c <sleep_ms>
100013b8:	45a9      	cmp	r9, r5
100013ba:	d1e5      	bne.n	10001388 <main+0x2a0>
100013bc:	2014      	movs	r0, #20
100013be:	f001 fbc5 	bl	10002b4c <gpio_init>
100013c2:	2514      	movs	r5, #20
100013c4:	2700      	movs	r7, #0
100013c6:	ec47 5044 	gpioc_bit_oe_put r5, r7
100013ca:	f04f 0902 	mov.w	r9, #2
100013ce:	463a      	mov	r2, r7
100013d0:	4628      	mov	r0, r5
100013d2:	2101      	movs	r1, #1
100013d4:	f001 fb50 	bl	10002a78 <gpio_set_pulls>
100013d8:	2201      	movs	r2, #1
100013da:	4b31      	ldr	r3, [pc, #196]	@ (100014a0 <main+0x3b8>)
100013dc:	4628      	mov	r0, r5
100013de:	2104      	movs	r1, #4
100013e0:	f001 fb5c 	bl	10002a9c <gpio_set_irq_enabled_with_callback>
100013e4:	4629      	mov	r1, r5
100013e6:	4d2f      	ldr	r5, [pc, #188]	@ (100014a4 <main+0x3bc>)
100013e8:	482f      	ldr	r0, [pc, #188]	@ (100014a8 <main+0x3c0>)
100013ea:	f005 f99d 	bl	10006728 <__wrap_printf>
100013ee:	4628      	mov	r0, r5
100013f0:	492e      	ldr	r1, [pc, #184]	@ (100014ac <main+0x3c4>)
100013f2:	f007 fec9 	bl	10009188 <spi_init>
100013f6:	4b2e      	ldr	r3, [pc, #184]	@ (100014b0 <main+0x3c8>)
100013f8:	f8d5 c004 	ldr.w	ip, [r5, #4]
100013fc:	f8c3 9004 	str.w	r9, [r3, #4]
10001400:	682b      	ldr	r3, [r5, #0]
10001402:	4a2c      	ldr	r2, [pc, #176]	@ (100014b4 <main+0x3cc>)
10001404:	4e2c      	ldr	r6, [pc, #176]	@ (100014b8 <main+0x3d0>)
10001406:	f083 0307 	eor.w	r3, r3, #7
1000140a:	ea0c 0c09 	and.w	ip, ip, r9
1000140e:	f003 03cf 	and.w	r3, r3, #207	@ 0xcf
10001412:	6033      	str	r3, [r6, #0]
10001414:	2101      	movs	r1, #1
10001416:	f8c2 c004 	str.w	ip, [r2, #4]
1000141a:	2012      	movs	r0, #18
1000141c:	f001 fb0e 	bl	10002a3c <gpio_set_function>
10001420:	2101      	movs	r1, #1
10001422:	2013      	movs	r0, #19
10001424:	f001 fb0a 	bl	10002a3c <gpio_set_function>
10001428:	2101      	movs	r1, #1
1000142a:	2010      	movs	r0, #16
1000142c:	f001 fb06 	bl	10002a3c <gpio_set_function>
10001430:	2011      	movs	r0, #17
10001432:	f001 fb8b 	bl	10002b4c <gpio_init>
10001436:	f04f 0811 	mov.w	r8, #17
1000143a:	f04f 0601 	mov.w	r6, #1
1000143e:	ec46 8044 	gpioc_bit_oe_put r8, r6
10001442:	ec46 8040 	gpioc_bit_out_put r8, r6
10001446:	200a      	movs	r0, #10
10001448:	f002 fb20 	bl	10003a8c <sleep_ms>
1000144c:	f04f 33ff 	mov.w	r3, #4294967295	@ 0xffffffff
10001450:	f88d 72d4 	strb.w	r7, [sp, #724]	@ 0x2d4
10001454:	f88d 3210 	strb.w	r3, [sp, #528]	@ 0x210
10001458:	bf00      	nop
1000145a:	bf00      	nop
1000145c:	bf00      	nop
1000145e:	ec47 8040 	gpioc_bit_out_put r8, r7
10001462:	bf00      	nop
10001464:	bf00      	nop
10001466:	bf00      	nop
10001468:	2201      	movs	r2, #1
1000146a:	e029      	b.n	100014c0 <main+0x3d8>
1000146c:	10009690 	.word	0x10009690
10001470:	100096a0 	.word	0x100096a0
10001474:	100096b0 	.word	0x100096b0
10001478:	00080009 	.word	0x00080009
1000147c:	10009ab4 	.word	0x10009ab4
10001480:	50200000 	.word	0x50200000
10001484:	49742400 	.word	0x49742400
10001488:	3d000000 	.word	0x3d000000
1000148c:	400a8000 	.word	0x400a8000
10001490:	100096fc 	.word	0x100096fc
10001494:	10009738 	.word	0x10009738
10001498:	400a9000 	.word	0x400a9000
1000149c:	ffff0000 	.word	0xffff0000
100014a0:	10000205 	.word	0x10000205
100014a4:	40080000 	.word	0x40080000
100014a8:	1000975c 	.word	0x1000975c
100014ac:	000f4240 	.word	0x000f4240
100014b0:	40083000 	.word	0x40083000
100014b4:	40082000 	.word	0x40082000
100014b8:	40081000 	.word	0x40081000
100014bc:	10009aa4 	.word	0x10009aa4
100014c0:	a984      	add	r1, sp, #528	@ 0x210
100014c2:	4628      	mov	r0, r5
100014c4:	f008 f89c 	bl	10009600 <__spi_write_blocking_veneer>
100014c8:	2301      	movs	r3, #1
100014ca:	465a      	mov	r2, fp
100014cc:	4639      	mov	r1, r7
100014ce:	4628      	mov	r0, r5
100014d0:	f008 f8ae 	bl	10009630 <__spi_read_blocking_veneer>
100014d4:	bf00      	nop
100014d6:	bf00      	nop
100014d8:	bf00      	nop
100014da:	ec46 8040 	gpioc_bit_out_put r8, r6
100014de:	bf00      	nop
100014e0:	bf00      	nop
100014e2:	bf00      	nop
100014e4:	2001      	movs	r0, #1
100014e6:	f002 fad1 	bl	10003a8c <sleep_ms>
100014ea:	2380      	movs	r3, #128	@ 0x80
100014ec:	f88d 72d4 	strb.w	r7, [sp, #724]	@ 0x2d4
100014f0:	f88d 3210 	strb.w	r3, [sp, #528]	@ 0x210
100014f4:	bf00      	nop
100014f6:	bf00      	nop
100014f8:	bf00      	nop
100014fa:	ec47 8040 	gpioc_bit_out_put r8, r7
100014fe:	bf00      	nop
10001500:	bf00      	nop
10001502:	bf00      	nop
10001504:	2201      	movs	r2, #1
10001506:	a984      	add	r1, sp, #528	@ 0x210
10001508:	4628      	mov	r0, r5
1000150a:	f008 f879 	bl	10009600 <__spi_write_blocking_veneer>
1000150e:	2301      	movs	r3, #1
10001510:	465a      	mov	r2, fp
10001512:	4639      	mov	r1, r7
10001514:	4628      	mov	r0, r5
10001516:	f008 f88b 	bl	10009630 <__spi_read_blocking_veneer>
1000151a:	bf00      	nop
1000151c:	bf00      	nop
1000151e:	bf00      	nop
10001520:	ec46 8040 	gpioc_bit_out_put r8, r6
10001524:	bf00      	nop
10001526:	bf00      	nop
10001528:	bf00      	nop
1000152a:	f89d 12d4 	ldrb.w	r1, [sp, #724]	@ 0x2d4
1000152e:	29d1      	cmp	r1, #209	@ 0xd1
10001530:	d045      	beq.n	100015be <main+0x4d6>
10001532:	4883      	ldr	r0, [pc, #524]	@ (10001740 <main+0x658>)
10001534:	f005 f8f8 	bl	10006728 <__wrap_printf>
10001538:	4882      	ldr	r0, [pc, #520]	@ (10001744 <main+0x65c>)
1000153a:	f005 f877 	bl	1000662c <__wrap_puts>
1000153e:	f8df 8224 	ldr.w	r8, [pc, #548]	@ 10001764 <main+0x67c>
10001542:	f8df 9214 	ldr.w	r9, [pc, #532]	@ 10001758 <main+0x670>
10001546:	4e80      	ldr	r6, [pc, #512]	@ (10001748 <main+0x660>)
10001548:	4d80      	ldr	r5, [pc, #512]	@ (1000174c <main+0x664>)
1000154a:	4f81      	ldr	r7, [pc, #516]	@ (10001750 <main+0x668>)
1000154c:	4c81      	ldr	r4, [pc, #516]	@ (10001754 <main+0x66c>)
1000154e:	8823      	ldrh	r3, [r4, #0]
10001550:	2b00      	cmp	r3, #0
10001552:	f040 82b7 	bne.w	10001ac4 <main+0x9dc>
10001556:	6b73      	ldr	r3, [r6, #52]	@ 0x34
10001558:	8860      	ldrh	r0, [r4, #2]
1000155a:	402b      	ands	r3, r5
1000155c:	637b      	str	r3, [r7, #52]	@ 0x34
1000155e:	f002 fa95 	bl	10003a8c <sleep_ms>
10001562:	6b73      	ldr	r3, [r6, #52]	@ 0x34
10001564:	2014      	movs	r0, #20
10001566:	402b      	ands	r3, r5
10001568:	637b      	str	r3, [r7, #52]	@ 0x34
1000156a:	3404      	adds	r4, #4
1000156c:	f002 fa8e 	bl	10003a8c <sleep_ms>
10001570:	4544      	cmp	r4, r8
10001572:	d1ec      	bne.n	1000154e <main+0x466>
10001574:	f44f 707a 	mov.w	r0, #1000	@ 0x3e8
10001578:	f002 fa88 	bl	10003a8c <sleep_ms>
1000157c:	e7e6      	b.n	1000154c <main+0x464>
1000157e:	4a76      	ldr	r2, [pc, #472]	@ (10001758 <main+0x670>)
10001580:	f8b9 0002 	ldrh.w	r0, [r9, #2]
10001584:	fbb2 f3f3 	udiv	r3, r2, r3
10001588:	3b01      	subs	r3, #1
1000158a:	b29a      	uxth	r2, r3
1000158c:	63ba      	str	r2, [r7, #56]	@ 0x38
1000158e:	6b7a      	ldr	r2, [r7, #52]	@ 0x34
10001590:	085b      	lsrs	r3, r3, #1
10001592:	ea82 4303 	eor.w	r3, r2, r3, lsl #16
10001596:	f8df 81b8 	ldr.w	r8, [pc, #440]	@ 10001750 <main+0x668>
1000159a:	4033      	ands	r3, r6
1000159c:	f8c8 3034 	str.w	r3, [r8, #52]	@ 0x34
100015a0:	f002 fa74 	bl	10003a8c <sleep_ms>
100015a4:	6b7b      	ldr	r3, [r7, #52]	@ 0x34
100015a6:	2014      	movs	r0, #20
100015a8:	4033      	ands	r3, r6
100015aa:	f8c8 3034 	str.w	r3, [r8, #52]	@ 0x34
100015ae:	f109 0904 	add.w	r9, r9, #4
100015b2:	f002 fa6b 	bl	10003a8c <sleep_ms>
100015b6:	454d      	cmp	r5, r9
100015b8:	f47f aee6 	bne.w	10001388 <main+0x2a0>
100015bc:	e6fe      	b.n	100013bc <main+0x2d4>
100015be:	4867      	ldr	r0, [pc, #412]	@ (1000175c <main+0x674>)
100015c0:	f005 f8b2 	bl	10006728 <__wrap_printf>
100015c4:	4866      	ldr	r0, [pc, #408]	@ (10001760 <main+0x678>)
100015c6:	f005 f831 	bl	1000662c <__wrap_puts>
100015ca:	f24b 637e 	movw	r3, #46718	@ 0xb67e
100015ce:	f8ad 32d4 	strh.w	r3, [sp, #724]	@ 0x2d4
100015d2:	bf00      	nop
100015d4:	bf00      	nop
100015d6:	bf00      	nop
100015d8:	ec47 8040 	gpioc_bit_out_put r8, r7
100015dc:	bf00      	nop
100015de:	bf00      	nop
100015e0:	bf00      	nop
100015e2:	464a      	mov	r2, r9
100015e4:	4659      	mov	r1, fp
100015e6:	4628      	mov	r0, r5
100015e8:	f008 f80a 	bl	10009600 <__spi_write_blocking_veneer>
100015ec:	bf00      	nop
100015ee:	bf00      	nop
100015f0:	bf00      	nop
100015f2:	ec46 8040 	gpioc_bit_out_put r8, r6
100015f6:	bf00      	nop
100015f8:	bf00      	nop
100015fa:	bf00      	nop
100015fc:	2064      	movs	r0, #100	@ 0x64
100015fe:	f002 fa45 	bl	10003a8c <sleep_ms>
10001602:	f04f 33ff 	mov.w	r3, #4294967295	@ 0xffffffff
10001606:	f88d 72d4 	strb.w	r7, [sp, #724]	@ 0x2d4
1000160a:	f88d 3210 	strb.w	r3, [sp, #528]	@ 0x210
1000160e:	bf00      	nop
10001610:	bf00      	nop
10001612:	bf00      	nop
10001614:	ec47 8040 	gpioc_bit_out_put r8, r7
10001618:	bf00      	nop
1000161a:	bf00      	nop
1000161c:	bf00      	nop
1000161e:	2201      	movs	r2, #1
10001620:	a984      	add	r1, sp, #528	@ 0x210
10001622:	4628      	mov	r0, r5
10001624:	f007 ffec 	bl	10009600 <__spi_write_blocking_veneer>
10001628:	2301      	movs	r3, #1
1000162a:	465a      	mov	r2, fp
1000162c:	4639      	mov	r1, r7
1000162e:	4628      	mov	r0, r5
10001630:	f007 fffe 	bl	10009630 <__spi_read_blocking_veneer>
10001634:	bf00      	nop
10001636:	bf00      	nop
10001638:	bf00      	nop
1000163a:	ec46 8040 	gpioc_bit_out_put r8, r6
1000163e:	bf00      	nop
10001640:	bf00      	nop
10001642:	bf00      	nop
10001644:	2005      	movs	r0, #5
10001646:	f002 fa21 	bl	10003a8c <sleep_ms>
1000164a:	2382      	movs	r3, #130	@ 0x82
1000164c:	f88d 72d4 	strb.w	r7, [sp, #724]	@ 0x2d4
10001650:	f88d 3210 	strb.w	r3, [sp, #528]	@ 0x210
10001654:	bf00      	nop
10001656:	bf00      	nop
10001658:	bf00      	nop
1000165a:	ec47 8040 	gpioc_bit_out_put r8, r7
1000165e:	bf00      	nop
10001660:	bf00      	nop
10001662:	bf00      	nop
10001664:	2201      	movs	r2, #1
10001666:	a984      	add	r1, sp, #528	@ 0x210
10001668:	4628      	mov	r0, r5
1000166a:	f007 ffc9 	bl	10009600 <__spi_write_blocking_veneer>
1000166e:	2301      	movs	r3, #1
10001670:	465a      	mov	r2, fp
10001672:	4639      	mov	r1, r7
10001674:	4628      	mov	r0, r5
10001676:	f007 ffdb 	bl	10009630 <__spi_read_blocking_veneer>
1000167a:	bf00      	nop
1000167c:	bf00      	nop
1000167e:	bf00      	nop
10001680:	ec46 8040 	gpioc_bit_out_put r8, r6
10001684:	bf00      	nop
10001686:	bf00      	nop
10001688:	bf00      	nop
1000168a:	f241 137e 	movw	r3, #4478	@ 0x117e
1000168e:	f8ad 32d4 	strh.w	r3, [sp, #724]	@ 0x2d4
10001692:	bf00      	nop
10001694:	bf00      	nop
10001696:	bf00      	nop
10001698:	ec47 8040 	gpioc_bit_out_put r8, r7
1000169c:	bf00      	nop
1000169e:	bf00      	nop
100016a0:	bf00      	nop
100016a2:	464a      	mov	r2, r9
100016a4:	4659      	mov	r1, fp
100016a6:	4628      	mov	r0, r5
100016a8:	f007 ffaa 	bl	10009600 <__spi_write_blocking_veneer>
100016ac:	bf00      	nop
100016ae:	bf00      	nop
100016b0:	bf00      	nop
100016b2:	ec46 8040 	gpioc_bit_out_put r8, r6
100016b6:	bf00      	nop
100016b8:	bf00      	nop
100016ba:	bf00      	nop
100016bc:	2032      	movs	r0, #50	@ 0x32
100016be:	f002 f9e5 	bl	10003a8c <sleep_ms>
100016c2:	f241 537e 	movw	r3, #5502	@ 0x157e
100016c6:	f8ad 32d4 	strh.w	r3, [sp, #724]	@ 0x2d4
100016ca:	bf00      	nop
100016cc:	bf00      	nop
100016ce:	bf00      	nop
100016d0:	ec47 8040 	gpioc_bit_out_put r8, r7
100016d4:	bf00      	nop
100016d6:	bf00      	nop
100016d8:	bf00      	nop
100016da:	464a      	mov	r2, r9
100016dc:	4659      	mov	r1, fp
100016de:	4628      	mov	r0, r5
100016e0:	f007 ff8e 	bl	10009600 <__spi_write_blocking_veneer>
100016e4:	bf00      	nop
100016e6:	bf00      	nop
100016e8:	bf00      	nop
100016ea:	ec46 8040 	gpioc_bit_out_put r8, r6
100016ee:	bf00      	nop
100016f0:	bf00      	nop
100016f2:	bf00      	nop
100016f4:	2064      	movs	r0, #100	@ 0x64
100016f6:	f002 f9c9 	bl	10003a8c <sleep_ms>
100016fa:	2383      	movs	r3, #131	@ 0x83
100016fc:	f88d 72d4 	strb.w	r7, [sp, #724]	@ 0x2d4
10001700:	f88d 3210 	strb.w	r3, [sp, #528]	@ 0x210
10001704:	bf00      	nop
10001706:	bf00      	nop
10001708:	bf00      	nop
1000170a:	ec47 8040 	gpioc_bit_out_put r8, r7
1000170e:	bf00      	nop
10001710:	bf00      	nop
10001712:	bf00      	nop
10001714:	2201      	movs	r2, #1
10001716:	a984      	add	r1, sp, #528	@ 0x210
10001718:	4628      	mov	r0, r5
1000171a:	f007 ff71 	bl	10009600 <__spi_write_blocking_veneer>
1000171e:	2301      	movs	r3, #1
10001720:	4639      	mov	r1, r7
10001722:	465a      	mov	r2, fp
10001724:	4628      	mov	r0, r5
10001726:	f007 ff83 	bl	10009630 <__spi_read_blocking_veneer>
1000172a:	bf00      	nop
1000172c:	bf00      	nop
1000172e:	bf00      	nop
10001730:	ec46 8040 	gpioc_bit_out_put r8, r6
10001734:	bf00      	nop
10001736:	bf00      	nop
10001738:	bf00      	nop
1000173a:	f89d 12d4 	ldrb.w	r1, [sp, #724]	@ 0x2d4
1000173e:	e073      	b.n	10001828 <main+0x740>
10001740:	100097dc 	.word	0x100097dc
10001744:	1000981c 	.word	0x1000981c
10001748:	400a8000 	.word	0x400a8000
1000174c:	ffff0000 	.word	0xffff0000
10001750:	400a9000 	.word	0x400a9000
10001754:	10009a98 	.word	0x10009a98
10001758:	000f4240 	.word	0x000f4240
1000175c:	10009784 	.word	0x10009784
10001760:	100097b0 	.word	0x100097b0
10001764:	10009aa4 	.word	0x10009aa4
10001768:	4898      	ldr	r0, [pc, #608]	@ (100019cc <main+0x8e4>)
1000176a:	f004 ffdd 	bl	10006728 <__wrap_printf>
1000176e:	f241 137e 	movw	r3, #4478	@ 0x117e
10001772:	f8ad 32d4 	strh.w	r3, [sp, #724]	@ 0x2d4
10001776:	bf00      	nop
10001778:	bf00      	nop
1000177a:	bf00      	nop
1000177c:	2711      	movs	r7, #17
1000177e:	f04f 0800 	mov.w	r8, #0
10001782:	ec48 7040 	gpioc_bit_out_put r7, r8
10001786:	bf00      	nop
10001788:	bf00      	nop
1000178a:	bf00      	nop
1000178c:	2202      	movs	r2, #2
1000178e:	4659      	mov	r1, fp
10001790:	4628      	mov	r0, r5
10001792:	f007 ff35 	bl	10009600 <__spi_write_blocking_veneer>
10001796:	bf00      	nop
10001798:	bf00      	nop
1000179a:	bf00      	nop
1000179c:	ec46 7040 	gpioc_bit_out_put r7, r6
100017a0:	bf00      	nop
100017a2:	bf00      	nop
100017a4:	bf00      	nop
100017a6:	2032      	movs	r0, #50	@ 0x32
100017a8:	f002 f970 	bl	10003a8c <sleep_ms>
100017ac:	f241 537e 	movw	r3, #5502	@ 0x157e
100017b0:	f8ad 32d4 	strh.w	r3, [sp, #724]	@ 0x2d4
100017b4:	bf00      	nop
100017b6:	bf00      	nop
100017b8:	bf00      	nop
100017ba:	ec48 7040 	gpioc_bit_out_put r7, r8
100017be:	bf00      	nop
100017c0:	bf00      	nop
100017c2:	bf00      	nop
100017c4:	2202      	movs	r2, #2
100017c6:	4659      	mov	r1, fp
100017c8:	4628      	mov	r0, r5
100017ca:	f007 ff19 	bl	10009600 <__spi_write_blocking_veneer>
100017ce:	bf00      	nop
100017d0:	bf00      	nop
100017d2:	bf00      	nop
100017d4:	ec46 7040 	gpioc_bit_out_put r7, r6
100017d8:	bf00      	nop
100017da:	bf00      	nop
100017dc:	bf00      	nop
100017de:	2064      	movs	r0, #100	@ 0x64
100017e0:	f002 f954 	bl	10003a8c <sleep_ms>
100017e4:	2383      	movs	r3, #131	@ 0x83
100017e6:	f88d 82d4 	strb.w	r8, [sp, #724]	@ 0x2d4
100017ea:	f88d 3210 	strb.w	r3, [sp, #528]	@ 0x210
100017ee:	bf00      	nop
100017f0:	bf00      	nop
100017f2:	bf00      	nop
100017f4:	ec48 7040 	gpioc_bit_out_put r7, r8
100017f8:	bf00      	nop
100017fa:	bf00      	nop
100017fc:	bf00      	nop
100017fe:	2201      	movs	r2, #1
10001800:	a984      	add	r1, sp, #528	@ 0x210
10001802:	4628      	mov	r0, r5
10001804:	f007 fefc 	bl	10009600 <__spi_write_blocking_veneer>
10001808:	2301      	movs	r3, #1
1000180a:	4641      	mov	r1, r8
1000180c:	465a      	mov	r2, fp
1000180e:	4628      	mov	r0, r5
10001810:	f007 ff0e 	bl	10009630 <__spi_read_blocking_veneer>
10001814:	bf00      	nop
10001816:	bf00      	nop
10001818:	bf00      	nop
1000181a:	ec46 7040 	gpioc_bit_out_put r7, r6
1000181e:	bf00      	nop
10001820:	bf00      	nop
10001822:	bf00      	nop
10001824:	f89d 12d4 	ldrb.w	r1, [sp, #724]	@ 0x2d4
10001828:	2914      	cmp	r1, #20
1000182a:	d19d      	bne.n	10001768 <main+0x680>
1000182c:	4868      	ldr	r0, [pc, #416]	@ (100019d0 <main+0x8e8>)
1000182e:	f004 fefd 	bl	1000662c <__wrap_puts>
10001832:	f640 0341 	movw	r3, #2113	@ 0x841
10001836:	f8ad 32d4 	strh.w	r3, [sp, #724]	@ 0x2d4
1000183a:	bf00      	nop
1000183c:	bf00      	nop
1000183e:	bf00      	nop
10001840:	2511      	movs	r5, #17
10001842:	f04f 0700 	mov.w	r7, #0
10001846:	ec47 5040 	gpioc_bit_out_put r5, r7
1000184a:	bf00      	nop
1000184c:	bf00      	nop
1000184e:	bf00      	nop
10001850:	2202      	movs	r2, #2
10001852:	4659      	mov	r1, fp
10001854:	485f      	ldr	r0, [pc, #380]	@ (100019d4 <main+0x8ec>)
10001856:	f007 fed3 	bl	10009600 <__spi_write_blocking_veneer>
1000185a:	bf00      	nop
1000185c:	bf00      	nop
1000185e:	bf00      	nop
10001860:	f04f 0601 	mov.w	r6, #1
10001864:	ec46 5040 	gpioc_bit_out_put r5, r6
10001868:	bf00      	nop
1000186a:	bf00      	nop
1000186c:	bf00      	nop
1000186e:	f44f 5331 	mov.w	r3, #11328	@ 0x2c40
10001872:	f8ad 32d4 	strh.w	r3, [sp, #724]	@ 0x2d4
10001876:	bf00      	nop
10001878:	bf00      	nop
1000187a:	bf00      	nop
1000187c:	ec47 5040 	gpioc_bit_out_put r5, r7
10001880:	bf00      	nop
10001882:	bf00      	nop
10001884:	bf00      	nop
10001886:	2202      	movs	r2, #2
10001888:	4659      	mov	r1, fp
1000188a:	4852      	ldr	r0, [pc, #328]	@ (100019d4 <main+0x8ec>)
1000188c:	f007 feb8 	bl	10009600 <__spi_write_blocking_veneer>
10001890:	bf00      	nop
10001892:	bf00      	nop
10001894:	bf00      	nop
10001896:	ec46 5040 	gpioc_bit_out_put r5, r6
1000189a:	bf00      	nop
1000189c:	bf00      	nop
1000189e:	bf00      	nop
100018a0:	2343      	movs	r3, #67	@ 0x43
100018a2:	f8ad 32d4 	strh.w	r3, [sp, #724]	@ 0x2d4
100018a6:	bf00      	nop
100018a8:	bf00      	nop
100018aa:	bf00      	nop
100018ac:	ec47 5040 	gpioc_bit_out_put r5, r7
100018b0:	bf00      	nop
100018b2:	bf00      	nop
100018b4:	bf00      	nop
100018b6:	2202      	movs	r2, #2
100018b8:	4659      	mov	r1, fp
100018ba:	4846      	ldr	r0, [pc, #280]	@ (100019d4 <main+0x8ec>)
100018bc:	f007 fea0 	bl	10009600 <__spi_write_blocking_veneer>
100018c0:	bf00      	nop
100018c2:	bf00      	nop
100018c4:	bf00      	nop
100018c6:	ec46 5040 	gpioc_bit_out_put r5, r6
100018ca:	bf00      	nop
100018cc:	bf00      	nop
100018ce:	bf00      	nop
100018d0:	f642 5342 	movw	r3, #11586	@ 0x2d42
100018d4:	f8ad 32d4 	strh.w	r3, [sp, #724]	@ 0x2d4
100018d8:	bf00      	nop
100018da:	bf00      	nop
100018dc:	bf00      	nop
100018de:	ec47 5040 	gpioc_bit_out_put r5, r7
100018e2:	bf00      	nop
100018e4:	bf00      	nop
100018e6:	bf00      	nop
100018e8:	2202      	movs	r2, #2
100018ea:	4659      	mov	r1, fp
100018ec:	4839      	ldr	r0, [pc, #228]	@ (100019d4 <main+0x8ec>)
100018ee:	f007 fe87 	bl	10009600 <__spi_write_blocking_veneer>
100018f2:	bf00      	nop
100018f4:	bf00      	nop
100018f6:	bf00      	nop
100018f8:	ec46 5040 	gpioc_bit_out_put r5, r6
100018fc:	bf00      	nop
100018fe:	bf00      	nop
10001900:	bf00      	nop
10001902:	f640 2353 	movw	r3, #2643	@ 0xa53
10001906:	f8ad 32d4 	strh.w	r3, [sp, #724]	@ 0x2d4
1000190a:	bf00      	nop
1000190c:	bf00      	nop
1000190e:	bf00      	nop
10001910:	ec47 5040 	gpioc_bit_out_put r5, r7
10001914:	bf00      	nop
10001916:	bf00      	nop
10001918:	bf00      	nop
1000191a:	2202      	movs	r2, #2
1000191c:	4659      	mov	r1, fp
1000191e:	482d      	ldr	r0, [pc, #180]	@ (100019d4 <main+0x8ec>)
10001920:	f007 fe6e 	bl	10009600 <__spi_write_blocking_veneer>
10001924:	bf00      	nop
10001926:	bf00      	nop
10001928:	bf00      	nop
1000192a:	ec46 5040 	gpioc_bit_out_put r5, r6
1000192e:	bf00      	nop
10001930:	bf00      	nop
10001932:	bf00      	nop
10001934:	f248 0356 	movw	r3, #32854	@ 0x8056
10001938:	f8ad 32d4 	strh.w	r3, [sp, #724]	@ 0x2d4
1000193c:	bf00      	nop
1000193e:	bf00      	nop
10001940:	bf00      	nop
10001942:	ec47 5040 	gpioc_bit_out_put r5, r7
10001946:	bf00      	nop
10001948:	bf00      	nop
1000194a:	bf00      	nop
1000194c:	2202      	movs	r2, #2
1000194e:	4659      	mov	r1, fp
10001950:	4820      	ldr	r0, [pc, #128]	@ (100019d4 <main+0x8ec>)
10001952:	f007 fe55 	bl	10009600 <__spi_write_blocking_veneer>
10001956:	bf00      	nop
10001958:	bf00      	nop
1000195a:	bf00      	nop
1000195c:	ec46 5040 	gpioc_bit_out_put r5, r6
10001960:	bf00      	nop
10001962:	bf00      	nop
10001964:	bf00      	nop
10001966:	f241 0351 	movw	r3, #4177	@ 0x1051
1000196a:	f8ad 32d4 	strh.w	r3, [sp, #724]	@ 0x2d4
1000196e:	bf00      	nop
10001970:	bf00      	nop
10001972:	bf00      	nop
10001974:	ec47 5040 	gpioc_bit_out_put r5, r7
10001978:	bf00      	nop
1000197a:	bf00      	nop
1000197c:	bf00      	nop
1000197e:	2202      	movs	r2, #2
10001980:	4659      	mov	r1, fp
10001982:	4814      	ldr	r0, [pc, #80]	@ (100019d4 <main+0x8ec>)
10001984:	f007 fe3c 	bl	10009600 <__spi_write_blocking_veneer>
10001988:	bf00      	nop
1000198a:	bf00      	nop
1000198c:	bf00      	nop
1000198e:	ec46 5040 	gpioc_bit_out_put r5, r6
10001992:	bf00      	nop
10001994:	bf00      	nop
10001996:	bf00      	nop
10001998:	490f      	ldr	r1, [pc, #60]	@ (100019d8 <main+0x8f0>)
1000199a:	480e      	ldr	r0, [pc, #56]	@ (100019d4 <main+0x8ec>)
1000199c:	f007 fc70 	bl	10009280 <spi_set_baudrate>
100019a0:	480e      	ldr	r0, [pc, #56]	@ (100019dc <main+0x8f4>)
100019a2:	f004 fe43 	bl	1000662c <__wrap_puts>
100019a6:	2300      	movs	r3, #0
100019a8:	f04f 517e 	mov.w	r1, #1065353216	@ 0x3f800000
100019ac:	4a0c      	ldr	r2, [pc, #48]	@ (100019e0 <main+0x8f8>)
100019ae:	91b6      	str	r1, [sp, #728]	@ 0x2d8
100019b0:	f8cb 3024 	str.w	r3, [fp, #36]	@ 0x24
100019b4:	2100      	movs	r1, #0
100019b6:	92b5      	str	r2, [sp, #724]	@ 0x2d4
100019b8:	465a      	mov	r2, fp
100019ba:	480a      	ldr	r0, [pc, #40]	@ (100019e4 <main+0x8fc>)
100019bc:	93b7      	str	r3, [sp, #732]	@ 0x2dc
100019be:	93b8      	str	r3, [sp, #736]	@ 0x2e0
100019c0:	93b9      	str	r3, [sp, #740]	@ 0x2e4
100019c2:	93ba      	str	r3, [sp, #744]	@ 0x2e8
100019c4:	93bb      	str	r3, [sp, #748]	@ 0x2ec
100019c6:	93bc      	str	r3, [sp, #752]	@ 0x2f0
100019c8:	90bd      	str	r0, [sp, #756]	@ 0x2f4
100019ca:	e00d      	b.n	100019e8 <main+0x900>
100019cc:	10009844 	.word	0x10009844
100019d0:	10009870 	.word	0x10009870
100019d4:	40080000 	.word	0x40080000
100019d8:	00989680 	.word	0x00989680
100019dc:	10009890 	.word	0x10009890
100019e0:	3c8efa35 	.word	0x3c8efa35
100019e4:	3dcccccd 	.word	0x3dcccccd
100019e8:	2903      	cmp	r1, #3
100019ea:	6293      	str	r3, [r2, #40]	@ 0x28
100019ec:	f000 8087 	beq.w	10001afe <main+0xa16>
100019f0:	2904      	cmp	r1, #4
100019f2:	62d3      	str	r3, [r2, #44]	@ 0x2c
100019f4:	f040 870e 	bne.w	10002814 <main+0x172c>
100019f8:	90dd      	str	r0, [sp, #884]	@ 0x374
100019fa:	6353      	str	r3, [r2, #52]	@ 0x34
100019fc:	3101      	adds	r1, #1
100019fe:	6393      	str	r3, [r2, #56]	@ 0x38
10001a00:	2901      	cmp	r1, #1
10001a02:	f102 021c 	add.w	r2, r2, #28
10001a06:	6213      	str	r3, [r2, #32]
10001a08:	d07d      	beq.n	10001b06 <main+0xa1e>
10001a0a:	2902      	cmp	r1, #2
10001a0c:	6253      	str	r3, [r2, #36]	@ 0x24
10001a0e:	d1eb      	bne.n	100019e8 <main+0x900>
10001a10:	90cd      	str	r0, [sp, #820]	@ 0x334
10001a12:	62d3      	str	r3, [r2, #44]	@ 0x2c
10001a14:	6313      	str	r3, [r2, #48]	@ 0x30
10001a16:	2906      	cmp	r1, #6
10001a18:	6353      	str	r3, [r2, #52]	@ 0x34
10001a1a:	d1ef      	bne.n	100019fc <main+0x914>
10001a1c:	4a48      	ldr	r2, [pc, #288]	@ (10001b40 <main+0xa58>)
10001a1e:	4b49      	ldr	r3, [pc, #292]	@ (10001b44 <main+0xa5c>)
10001a20:	6810      	ldr	r0, [r2, #0]
10001a22:	93ed      	str	r3, [sp, #948]	@ 0x3b4
10001a24:	f007 fde8 	bl	100095f8 <____aeabi_f2d_veneer>
10001a28:	4b47      	ldr	r3, [pc, #284]	@ (10001b48 <main+0xa60>)
10001a2a:	4606      	mov	r6, r0
10001a2c:	6818      	ldr	r0, [r3, #0]
10001a2e:	460f      	mov	r7, r1
10001a30:	f007 fde2 	bl	100095f8 <____aeabi_f2d_veneer>
10001a34:	e9cd 0102 	strd	r0, r1, [sp, #8]
10001a38:	4b44      	ldr	r3, [pc, #272]	@ (10001b4c <main+0xa64>)
10001a3a:	f8df 9130 	ldr.w	r9, [pc, #304]	@ 10001b6c <main+0xa84>
10001a3e:	6818      	ldr	r0, [r3, #0]
10001a40:	f007 fdda 	bl	100095f8 <____aeabi_f2d_veneer>
10001a44:	4632      	mov	r2, r6
10001a46:	463b      	mov	r3, r7
10001a48:	e9cd 0100 	strd	r0, r1, [sp]
10001a4c:	4840      	ldr	r0, [pc, #256]	@ (10001b50 <main+0xa68>)
10001a4e:	f004 fe6b 	bl	10006728 <__wrap_printf>
10001a52:	f002 f90d 	bl	10003c70 <time_us_64>
10001a56:	e9c9 0100 	strd	r0, r1, [r9]
10001a5a:	f002 f909 	bl	10003c70 <time_us_64>
10001a5e:	4688      	mov	r8, r1
10001a60:	9005      	str	r0, [sp, #20]
10001a62:	f002 f905 	bl	10003c70 <time_us_64>
10001a66:	4e3b      	ldr	r6, [pc, #236]	@ (10001b54 <main+0xa6c>)
10001a68:	9406      	str	r4, [sp, #24]
10001a6a:	f8cd 8020 	str.w	r8, [sp, #32]
10001a6e:	2400      	movs	r4, #0
10001a70:	e9cd 0138 	strd	r0, r1, [sp, #224]	@ 0xe0
10001a74:	4d38      	ldr	r5, [pc, #224]	@ (10001b58 <main+0xa70>)
10001a76:	4f39      	ldr	r7, [pc, #228]	@ (10001b5c <main+0xa74>)
10001a78:	f8df 80f4 	ldr.w	r8, [pc, #244]	@ 10001b70 <main+0xa88>
10001a7c:	e011      	b.n	10001aa2 <main+0x9ba>
10001a7e:	6b71      	ldr	r1, [r6, #52]	@ 0x34
10001a80:	4029      	ands	r1, r5
10001a82:	6379      	str	r1, [r7, #52]	@ 0x34
10001a84:	f8b8 0002 	ldrh.w	r0, [r8, #2]
10001a88:	f002 f800 	bl	10003a8c <sleep_ms>
10001a8c:	6b71      	ldr	r1, [r6, #52]	@ 0x34
10001a8e:	2014      	movs	r0, #20
10001a90:	4029      	ands	r1, r5
10001a92:	6379      	str	r1, [r7, #52]	@ 0x34
10001a94:	3401      	adds	r4, #1
10001a96:	f001 fff9 	bl	10003a8c <sleep_ms>
10001a9a:	2c03      	cmp	r4, #3
10001a9c:	f108 0804 	add.w	r8, r8, #4
10001aa0:	d036      	beq.n	10001b10 <main+0xa28>
10001aa2:	f8b8 0000 	ldrh.w	r0, [r8]
10001aa6:	2800      	cmp	r0, #0
10001aa8:	d0e9      	beq.n	10001a7e <main+0x996>
10001aaa:	492d      	ldr	r1, [pc, #180]	@ (10001b60 <main+0xa78>)
10001aac:	fbb1 f1f0 	udiv	r1, r1, r0
10001ab0:	3901      	subs	r1, #1
10001ab2:	b288      	uxth	r0, r1
10001ab4:	63b0      	str	r0, [r6, #56]	@ 0x38
10001ab6:	6b70      	ldr	r0, [r6, #52]	@ 0x34
10001ab8:	0849      	lsrs	r1, r1, #1
10001aba:	ea80 4101 	eor.w	r1, r0, r1, lsl #16
10001abe:	4029      	ands	r1, r5
10001ac0:	6379      	str	r1, [r7, #52]	@ 0x34
10001ac2:	e7df      	b.n	10001a84 <main+0x99c>
10001ac4:	fbb9 f3f3 	udiv	r3, r9, r3
10001ac8:	3b01      	subs	r3, #1
10001aca:	b29a      	uxth	r2, r3
10001acc:	8860      	ldrh	r0, [r4, #2]
10001ace:	63b2      	str	r2, [r6, #56]	@ 0x38
10001ad0:	6b72      	ldr	r2, [r6, #52]	@ 0x34
10001ad2:	085b      	lsrs	r3, r3, #1
10001ad4:	ea82 4303 	eor.w	r3, r2, r3, lsl #16
10001ad8:	402b      	ands	r3, r5
10001ada:	637b      	str	r3, [r7, #52]	@ 0x34
10001adc:	f001 ffd6 	bl	10003a8c <sleep_ms>
10001ae0:	6b73      	ldr	r3, [r6, #52]	@ 0x34
10001ae2:	2014      	movs	r0, #20
10001ae4:	402b      	ands	r3, r5
10001ae6:	637b      	str	r3, [r7, #52]	@ 0x34
10001ae8:	3404      	adds	r4, #4
10001aea:	f001 ffcf 	bl	10003a8c <sleep_ms>
10001aee:	45a0      	cmp	r8, r4
10001af0:	f47f ad2d 	bne.w	1000154e <main+0x466>
10001af4:	f44f 707a 	mov.w	r0, #1000	@ 0x3e8
10001af8:	f001 ffc8 	bl	10003a8c <sleep_ms>
10001afc:	e526      	b.n	1000154c <main+0x464>
10001afe:	90d5      	str	r0, [sp, #852]	@ 0x354
10001b00:	6313      	str	r3, [r2, #48]	@ 0x30
10001b02:	6353      	str	r3, [r2, #52]	@ 0x34
10001b04:	e77a      	b.n	100019fc <main+0x914>
10001b06:	90c5      	str	r0, [sp, #788]	@ 0x314
10001b08:	6293      	str	r3, [r2, #40]	@ 0x28
10001b0a:	62d3      	str	r3, [r2, #44]	@ 0x2c
10001b0c:	6313      	str	r3, [r2, #48]	@ 0x30
10001b0e:	e782      	b.n	10001a16 <main+0x92e>
10001b10:	eddf 4a14 	vldr	s9, [pc, #80]	@ 10001b64 <main+0xa7c>
10001b14:	2300      	movs	r3, #0
10001b16:	9c06      	ldr	r4, [sp, #24]
10001b18:	edcd 4a3c 	vstr	s9, [sp, #240]	@ 0xf0
10001b1c:	edcd 4a3f 	vstr	s9, [sp, #252]	@ 0xfc
10001b20:	edcd 4a3d 	vstr	s9, [sp, #244]	@ 0xf4
10001b24:	edcd 4a40 	vstr	s9, [sp, #256]	@ 0x100
10001b28:	edcd 4a3e 	vstr	s9, [sp, #248]	@ 0xf8
10001b2c:	eeb0 fa64 	vmov.f32	s30, s9
10001b30:	edcd 4a41 	vstr	s9, [sp, #260]	@ 0x104
10001b34:	f8dd 8020 	ldr.w	r8, [sp, #32]
10001b38:	4e0b      	ldr	r6, [pc, #44]	@ (10001b68 <main+0xa80>)
10001b3a:	9428      	str	r4, [sp, #160]	@ 0xa0
10001b3c:	9329      	str	r3, [sp, #164]	@ 0xa4
10001b3e:	e020      	b.n	10001b82 <main+0xa9a>
10001b40:	20001598 	.word	0x20001598
10001b44:	3dcccccd 	.word	0x3dcccccd
10001b48:	20001590 	.word	0x20001590
10001b4c:	20001594 	.word	0x20001594
10001b50:	100098d8 	.word	0x100098d8
10001b54:	400a8000 	.word	0x400a8000
10001b58:	ffff0000 	.word	0xffff0000
10001b5c:	400a9000 	.word	0x400a9000
10001b60:	000f4240 	.word	0x000f4240
10001b64:	00000000 	.word	0x00000000
10001b68:	2000266c 	.word	0x2000266c
10001b6c:	20001778 	.word	0x20001778
10001b70:	10009a8c 	.word	0x10009a8c
10001b74:	469c4000 	.word	0x469c4000
10001b78:	f002 f87a 	bl	10003c70 <time_us_64>
10001b7c:	e9c9 0100 	strd	r0, r1, [r9]
10001b80:	2400      	movs	r4, #0
10001b82:	f002 f875 	bl	10003c70 <time_us_64>
10001b86:	9b05      	ldr	r3, [sp, #20]
10001b88:	4605      	mov	r5, r0
10001b8a:	1ac0      	subs	r0, r0, r3
10001b8c:	460f      	mov	r7, r1
10001b8e:	eb61 0108 	sbc.w	r1, r1, r8
10001b92:	f002 fef3 	bl	1000497c <__wrap___aeabi_ul2f>
10001b96:	ed1f 7a09 	vldr	s14, [pc, #-36]	@ 10001b74 <main+0xa8c>
10001b9a:	ee07 0a90 	vmov	s15, r0
10001b9e:	eef4 7ac7 	vcmpe.f32	s15, s14
10001ba2:	eef1 fa10 	vmrs	APSR_nzcv, fpscr
10001ba6:	f300 83ff 	bgt.w	100023a8 <main+0x12c0>
10001baa:	4be5      	ldr	r3, [pc, #916]	@ (10001f40 <main+0xe58>)
10001bac:	60b3      	str	r3, [r6, #8]
10001bae:	2c00      	cmp	r4, #0
10001bb0:	d1e2      	bne.n	10001b78 <main+0xa90>
10001bb2:	2319      	movs	r3, #25
10001bb4:	f04f 0501 	mov.w	r5, #1
10001bb8:	ec45 3040 	gpioc_bit_out_put r3, r5
10001bbc:	4be1      	ldr	r3, [pc, #900]	@ (10001f44 <main+0xe5c>)
10001bbe:	781b      	ldrb	r3, [r3, #0]
10001bc0:	2b00      	cmp	r3, #0
10001bc2:	d0dd      	beq.n	10001b80 <main+0xa98>
10001bc4:	4bdf      	ldr	r3, [pc, #892]	@ (10001f44 <main+0xe5c>)
10001bc6:	701c      	strb	r4, [r3, #0]
10001bc8:	9b29      	ldr	r3, [sp, #164]	@ 0xa4
10001bca:	3301      	adds	r3, #1
10001bcc:	9329      	str	r3, [sp, #164]	@ 0xa4
10001bce:	f002 f84f 	bl	10003c70 <time_us_64>
10001bd2:	460b      	mov	r3, r1
10001bd4:	f8d9 2000 	ldr.w	r2, [r9]
10001bd8:	f8d9 1004 	ldr.w	r1, [r9, #4]
10001bdc:	4607      	mov	r7, r0
10001bde:	1a80      	subs	r0, r0, r2
10001be0:	eb63 0101 	sbc.w	r1, r3, r1
10001be4:	9306      	str	r3, [sp, #24]
10001be6:	f002 fec9 	bl	1000497c <__wrap___aeabi_ul2f>
10001bea:	eddf 7ad7 	vldr	s15, [pc, #860]	@ 10001f48 <main+0xe60>
10001bee:	ee07 0a10 	vmov	s14, r0
10001bf2:	9b06      	ldr	r3, [sp, #24]
10001bf4:	eec7 ba27 	vdiv.f32	s23, s14, s15
10001bf8:	f8c9 3004 	str.w	r3, [r9, #4]
10001bfc:	f8c9 7000 	str.w	r7, [r9]
10001c00:	f002 f836 	bl	10003c70 <time_us_64>
10001c04:	238c      	movs	r3, #140	@ 0x8c
10001c06:	f88d 314c 	strb.w	r3, [sp, #332]	@ 0x14c
10001c0a:	bf00      	nop
10001c0c:	bf00      	nop
10001c0e:	bf00      	nop
10001c10:	2711      	movs	r7, #17
10001c12:	ec44 7040 	gpioc_bit_out_put r7, r4
10001c16:	bf00      	nop
10001c18:	bf00      	nop
10001c1a:	bf00      	nop
10001c1c:	2201      	movs	r2, #1
10001c1e:	a953      	add	r1, sp, #332	@ 0x14c
10001c20:	48ca      	ldr	r0, [pc, #808]	@ (10001f4c <main+0xe64>)
10001c22:	f007 fced 	bl	10009600 <__spi_write_blocking_veneer>
10001c26:	230c      	movs	r3, #12
10001c28:	4621      	mov	r1, r4
10001c2a:	aa84      	add	r2, sp, #528	@ 0x210
10001c2c:	48c7      	ldr	r0, [pc, #796]	@ (10001f4c <main+0xe64>)
10001c2e:	f007 fcff 	bl	10009630 <__spi_read_blocking_veneer>
10001c32:	bf00      	nop
10001c34:	bf00      	nop
10001c36:	bf00      	nop
10001c38:	ec45 7040 	gpioc_bit_out_put r7, r5
10001c3c:	bf00      	nop
10001c3e:	bf00      	nop
10001c40:	bf00      	nop
10001c42:	f9bd 3212 	ldrsh.w	r3, [sp, #530]	@ 0x212
10001c46:	eddf 6ac2 	vldr	s13, [pc, #776]	@ 10001f50 <main+0xe68>
10001c4a:	ee05 3a10 	vmov	s10, r3
10001c4e:	f9bd 3210 	ldrsh.w	r3, [sp, #528]	@ 0x210
10001c52:	eeb8 5ac5 	vcvt.f32.s32	s10, s10
10001c56:	ee05 3a90 	vmov	s11, r3
10001c5a:	f9bd 3214 	ldrsh.w	r3, [sp, #532]	@ 0x214
10001c5e:	eec5 4a26 	vdiv.f32	s9, s10, s13
10001c62:	ee06 3a10 	vmov	s12, r3
10001c66:	eddf 7abb 	vldr	s15, [pc, #748]	@ 10001f54 <main+0xe6c>
10001c6a:	ed9d 9abb 	vldr	s18, [sp, #748]	@ 0x2ec
10001c6e:	eef8 5ae5 	vcvt.f32.s32	s11, s11
10001c72:	eeb8 6ac6 	vcvt.f32.s32	s12, s12
10001c76:	ed9d bab9 	vldr	s22, [sp, #740]	@ 0x2e4
10001c7a:	ee94 9aa7 	vfnms.f32	s18, s9, s15
10001c7e:	ee85 5aa6 	vdiv.f32	s10, s11, s13
10001c82:	eddd 8aba 	vldr	s17, [sp, #744]	@ 0x2e8
10001c86:	eec6 5a26 	vdiv.f32	s11, s12, s13
10001c8a:	eddd cab6 	vldr	s25, [sp, #728]	@ 0x2d8
10001c8e:	eddd aab8 	vldr	s21, [sp, #736]	@ 0x2e0
10001c92:	eed5 8a27 	vfnms.f32	s17, s10, s15
10001c96:	ed9d 8abc 	vldr	s16, [sp, #752]	@ 0x2f0
10001c9a:	ee65 7aa7 	vmul.f32	s15, s11, s15
10001c9e:	ee6b 5a49 	vnmul.f32	s11, s22, s18
10001ca2:	ed9d aab7 	vldr	s20, [sp, #732]	@ 0x2dc
10001ca6:	ee37 8ac8 	vsub.f32	s16, s15, s16
10001caa:	ee2a 6ac9 	vnmul.f32	s12, s21, s18
10001cae:	eee8 5aac 	vfma.f32	s11, s17, s25
10001cb2:	eeb6 ca00 	vmov.f32	s24, #96	@ 0x3f000000  0.5
10001cb6:	ee69 6a2c 	vmul.f32	s13, s18, s25
10001cba:	eeaa 6a68 	vfms.f32	s12, s20, s17
10001cbe:	eee8 5a2a 	vfma.f32	s11, s16, s21
10001cc2:	eee8 6a8b 	vfma.f32	s13, s17, s22
10001cc6:	eea8 6a4b 	vfms.f32	s12, s16, s22
10001cca:	ee65 5a8c 	vmul.f32	s11, s11, s24
10001cce:	edcd 7a3b 	vstr	s15, [sp, #236]	@ 0xec
10001cd2:	eeb0 5a4a 	vmov.f32	s10, s20
10001cd6:	ee69 7a0a 	vmul.f32	s15, s18, s20
10001cda:	eeab 5aa5 	vfma.f32	s10, s23, s11
10001cde:	eeea 7ae8 	vfms.f32	s15, s21, s17
10001ce2:	eee8 6a4a 	vfms.f32	s13, s16, s20
10001ce6:	ee26 6a0c 	vmul.f32	s12, s12, s24
10001cea:	eef0 5a6c 	vmov.f32	s11, s25
10001cee:	eee8 7a2c 	vfma.f32	s15, s16, s25
10001cf2:	eeeb 5a86 	vfma.f32	s11, s23, s12
10001cf6:	ee66 6a8c 	vmul.f32	s13, s13, s24
10001cfa:	eeb0 6a6a 	vmov.f32	s12, s21
10001cfe:	ee67 7a8c 	vmul.f32	s15, s15, s24
10001d02:	eeab 6aa6 	vfma.f32	s12, s23, s13
10001d06:	eef0 6a4b 	vmov.f32	s13, s22
10001d0a:	eeeb 6aa7 	vfma.f32	s13, s23, s15
10001d0e:	ee65 7a05 	vmul.f32	s15, s10, s10
10001d12:	eee5 7aa5 	vfma.f32	s15, s11, s11
10001d16:	eee6 7a06 	vfma.f32	s15, s12, s12
10001d1a:	eee6 7aa6 	vfma.f32	s15, s13, s13
10001d1e:	ee17 ca90 	vmov	ip, s15
10001d22:	f8bd 3216 	ldrh.w	r3, [sp, #534]	@ 0x216
10001d26:	ee67 4a8c 	vmul.f32	s9, s15, s24
10001d2a:	933a      	str	r3, [sp, #232]	@ 0xe8
10001d2c:	4b8a      	ldr	r3, [pc, #552]	@ (10001f58 <main+0xe70>)
10001d2e:	eeb7 7a08 	vmov.f32	s14, #120	@ 0x3fc00000  1.5
10001d32:	eba3 036c 	sub.w	r3, r3, ip, asr #1
10001d36:	ee07 3a90 	vmov	s15, r3
10001d3a:	ee64 4aa7 	vmul.f32	s9, s9, s15
10001d3e:	eea7 7ae4 	vfms.f32	s14, s15, s9
10001d42:	ee67 7a27 	vmul.f32	s15, s14, s15
10001d46:	ee65 5aa7 	vmul.f32	s11, s11, s15
10001d4a:	ee25 5a27 	vmul.f32	s10, s10, s15
10001d4e:	ee26 6a27 	vmul.f32	s12, s12, s15
10001d52:	ee66 6aa7 	vmul.f32	s13, s13, s15
10001d56:	2250      	movs	r2, #80	@ 0x50
10001d58:	4621      	mov	r1, r4
10001d5a:	a86f      	add	r0, sp, #444	@ 0x1bc
10001d5c:	edcd 5ab6 	vstr	s11, [sp, #728]	@ 0x2d8
10001d60:	ed8d 5ab7 	vstr	s10, [sp, #732]	@ 0x2dc
10001d64:	ed8d 6ab8 	vstr	s12, [sp, #736]	@ 0x2e0
10001d68:	edcd 6ab9 	vstr	s13, [sp, #740]	@ 0x2e4
10001d6c:	f8bd 7218 	ldrh.w	r7, [sp, #536]	@ 0x218
10001d70:	f8bd 521a 	ldrh.w	r5, [sp, #538]	@ 0x21a
10001d74:	f007 fad8 	bl	10009328 <memset>
10001d78:	eefe 7a00 	vmov.f32	s15, #224	@ 0xbf000000 -0.5
10001d7c:	ee2a aa0c 	vmul.f32	s20, s20, s24
10001d80:	ee68 9a27 	vmul.f32	s19, s16, s15
10001d84:	ee68 8aa7 	vmul.f32	s17, s17, s15
10001d88:	ee29 9a27 	vmul.f32	s18, s18, s15
10001d8c:	ee6a aa8c 	vmul.f32	s21, s21, s24
10001d90:	ee2b ba0c 	vmul.f32	s22, s22, s24
10001d94:	ee2a aa2b 	vmul.f32	s20, s20, s23
10001d98:	ee6a aaab 	vmul.f32	s21, s21, s23
10001d9c:	ee2b ba2b 	vmul.f32	s22, s22, s23
10001da0:	ee68 8aab 	vmul.f32	s17, s17, s23
10001da4:	ee29 9a2b 	vmul.f32	s18, s18, s23
10001da8:	ee69 9aab 	vmul.f32	s19, s19, s23
10001dac:	ee6c 7aa7 	vmul.f32	s15, s25, s15
10001db0:	f04f 537e 	mov.w	r3, #1065353216	@ 0x3f800000
10001db4:	ee27 8aab 	vmul.f32	s16, s15, s23
10001db8:	eef1 2a6a 	vneg.f32	s5, s21
10001dbc:	eeb1 3a4b 	vneg.f32	s6, s22
10001dc0:	eef1 3a4a 	vneg.f32	s7, s20
10001dc4:	eeb1 ca68 	vneg.f32	s24, s17
10001dc8:	eef1 ca69 	vneg.f32	s25, s19
10001dcc:	eeb1 da49 	vneg.f32	s26, s18
10001dd0:	22c4      	movs	r2, #196	@ 0xc4
10001dd2:	4621      	mov	r1, r4
10001dd4:	a884      	add	r0, sp, #528	@ 0x210
10001dd6:	edcd 2a60 	vstr	s5, [sp, #384]	@ 0x180
10001dda:	edcd 2a32 	vstr	s5, [sp, #200]	@ 0xc8
10001dde:	ed8d 3a65 	vstr	s6, [sp, #404]	@ 0x194
10001de2:	ed8d 3a33 	vstr	s6, [sp, #204]	@ 0xcc
10001de6:	9353      	str	r3, [sp, #332]	@ 0x14c
10001de8:	935b      	str	r3, [sp, #364]	@ 0x16c
10001dea:	9363      	str	r3, [sp, #396]	@ 0x18c
10001dec:	936b      	str	r3, [sp, #428]	@ 0x1ac
10001dee:	9373      	str	r3, [sp, #460]	@ 0x1cc
10001df0:	937b      	str	r3, [sp, #492]	@ 0x1ec
10001df2:	9383      	str	r3, [sp, #524]	@ 0x20c
10001df4:	ed8d aa57 	vstr	s20, [sp, #348]	@ 0x15c
10001df8:	edcd aa58 	vstr	s21, [sp, #352]	@ 0x160
10001dfc:	ed8d ba59 	vstr	s22, [sp, #356]	@ 0x164
10001e00:	ed8d 8a5e 	vstr	s16, [sp, #376]	@ 0x178
10001e04:	ed8d ba5f 	vstr	s22, [sp, #380]	@ 0x17c
10001e08:	ed8d 8a66 	vstr	s16, [sp, #408]	@ 0x198
10001e0c:	ed8d aa67 	vstr	s20, [sp, #412]	@ 0x19c
10001e10:	edcd aa6c 	vstr	s21, [sp, #432]	@ 0x1b0
10001e14:	ed8d 8a6e 	vstr	s16, [sp, #440]	@ 0x1b8
10001e18:	ed8d ca5a 	vstr	s24, [sp, #360]	@ 0x168
10001e1c:	edcd ca5c 	vstr	s25, [sp, #368]	@ 0x170
10001e20:	ed8d da61 	vstr	s26, [sp, #388]	@ 0x184
10001e24:	ed8d ca64 	vstr	s24, [sp, #400]	@ 0x190
10001e28:	edcd ca68 	vstr	s25, [sp, #416]	@ 0x1a0
10001e2c:	ed8d da69 	vstr	s26, [sp, #420]	@ 0x1a4
10001e30:	edcd 8a54 	vstr	s17, [sp, #336]	@ 0x150
10001e34:	ed8d 9a55 	vstr	s18, [sp, #340]	@ 0x154
10001e38:	edcd 9a56 	vstr	s19, [sp, #344]	@ 0x158
10001e3c:	ed8d 9a5d 	vstr	s18, [sp, #372]	@ 0x174
10001e40:	edcd 9a62 	vstr	s19, [sp, #392]	@ 0x188
10001e44:	edcd 8a6a 	vstr	s17, [sp, #424]	@ 0x1a8
10001e48:	edcd 3a6d 	vstr	s7, [sp, #436]	@ 0x1b4
10001e4c:	edcd 3a27 	vstr	s7, [sp, #156]	@ 0x9c
10001e50:	f007 fa6a 	bl	10009328 <memset>
10001e54:	eddd 3ac5 	vldr	s7, [sp, #788]	@ 0x314
10001e58:	edcd 3a06 	vstr	s7, [sp, #24]
10001e5c:	eddd 3acc 	vldr	s7, [sp, #816]	@ 0x330
10001e60:	edcd 3a08 	vstr	s7, [sp, #32]
10001e64:	eddd 3ad3 	vldr	s7, [sp, #844]	@ 0x34c
10001e68:	edcd 3a09 	vstr	s7, [sp, #36]	@ 0x24
10001e6c:	eddd 3ada 	vldr	s7, [sp, #872]	@ 0x368
10001e70:	edcd 3a0a 	vstr	s7, [sp, #40]	@ 0x28
10001e74:	eddd 3ae1 	vldr	s7, [sp, #900]	@ 0x384
10001e78:	edcd 3a0b 	vstr	s7, [sp, #44]	@ 0x2c
10001e7c:	eddd 3abf 	vldr	s7, [sp, #764]	@ 0x2fc
10001e80:	edcd 3a0c 	vstr	s7, [sp, #48]	@ 0x30
10001e84:	eddd 3ac6 	vldr	s7, [sp, #792]	@ 0x318
10001e88:	edcd 3a0d 	vstr	s7, [sp, #52]	@ 0x34
10001e8c:	eddd 3acd 	vldr	s7, [sp, #820]	@ 0x334
10001e90:	edcd 3a0e 	vstr	s7, [sp, #56]	@ 0x38
10001e94:	eddd 3ad4 	vldr	s7, [sp, #848]	@ 0x350
10001e98:	edcd 3a0f 	vstr	s7, [sp, #60]	@ 0x3c
10001e9c:	eddd 3adb 	vldr	s7, [sp, #876]	@ 0x36c
10001ea0:	edcd 3a10 	vstr	s7, [sp, #64]	@ 0x40
10001ea4:	eddd 3ae2 	vldr	s7, [sp, #904]	@ 0x388
10001ea8:	eddd 7abd 	vldr	s15, [sp, #756]	@ 0x2f4
10001eac:	ed9d 7ac4 	vldr	s14, [sp, #784]	@ 0x310
10001eb0:	eddd 6acb 	vldr	s13, [sp, #812]	@ 0x32c
10001eb4:	ed9d 6ad2 	vldr	s12, [sp, #840]	@ 0x348
10001eb8:	eddd 5ad9 	vldr	s11, [sp, #868]	@ 0x364
10001ebc:	ed9d 5ae0 	vldr	s10, [sp, #896]	@ 0x380
10001ec0:	eddd 4ae7 	vldr	s9, [sp, #924]	@ 0x39c
10001ec4:	ed9d 4abe 	vldr	s8, [sp, #760]	@ 0x2f8
10001ec8:	ed9d 2ae8 	vldr	s4, [sp, #928]	@ 0x3a0
10001ecc:	eddd 1ae9 	vldr	s3, [sp, #932]	@ 0x3a4
10001ed0:	edcd 3a11 	vstr	s7, [sp, #68]	@ 0x44
10001ed4:	eddd 3ac0 	vldr	s7, [sp, #768]	@ 0x300
10001ed8:	edcd 3a12 	vstr	s7, [sp, #72]	@ 0x48
10001edc:	eddd 3ac7 	vldr	s7, [sp, #796]	@ 0x31c
10001ee0:	edcd 3a13 	vstr	s7, [sp, #76]	@ 0x4c
10001ee4:	eddd 3ace 	vldr	s7, [sp, #824]	@ 0x338
10001ee8:	edcd 3a14 	vstr	s7, [sp, #80]	@ 0x50
10001eec:	eddd 3ad5 	vldr	s7, [sp, #852]	@ 0x354
10001ef0:	edcd 3a15 	vstr	s7, [sp, #84]	@ 0x54
10001ef4:	eddd 3adc 	vldr	s7, [sp, #880]	@ 0x370
10001ef8:	edcd 3a16 	vstr	s7, [sp, #88]	@ 0x58
10001efc:	eddd 3ae3 	vldr	s7, [sp, #908]	@ 0x38c
10001f00:	edcd 3a17 	vstr	s7, [sp, #92]	@ 0x5c
10001f04:	eddd 3ac1 	vldr	s7, [sp, #772]	@ 0x304
10001f08:	edcd 3a18 	vstr	s7, [sp, #96]	@ 0x60
10001f0c:	eddd 3ac8 	vldr	s7, [sp, #800]	@ 0x320
10001f10:	edcd 3a19 	vstr	s7, [sp, #100]	@ 0x64
10001f14:	eddd 3acf 	vldr	s7, [sp, #828]	@ 0x33c
10001f18:	edcd 3a1a 	vstr	s7, [sp, #104]	@ 0x68
10001f1c:	eddd 3ad6 	vldr	s7, [sp, #856]	@ 0x358
10001f20:	edcd 3a1b 	vstr	s7, [sp, #108]	@ 0x6c
10001f24:	eddd 3add 	vldr	s7, [sp, #884]	@ 0x374
10001f28:	edcd 3a1c 	vstr	s7, [sp, #112]	@ 0x70
10001f2c:	eddd 3ae4 	vldr	s7, [sp, #912]	@ 0x390
10001f30:	edcd 3a1d 	vstr	s7, [sp, #116]	@ 0x74
10001f34:	eddd 3ac2 	vldr	s7, [sp, #776]	@ 0x308
10001f38:	edcd 3a1e 	vstr	s7, [sp, #120]	@ 0x78
10001f3c:	e00e      	b.n	10001f5c <main+0xe74>
10001f3e:	bf00      	nop
10001f40:	447b8000 	.word	0x447b8000
10001f44:	200026ba 	.word	0x200026ba
10001f48:	49742400 	.word	0x49742400
10001f4c:	40080000 	.word	0x40080000
10001f50:	41833333 	.word	0x41833333
10001f54:	3c8efa35 	.word	0x3c8efa35
10001f58:	5f3759df 	.word	0x5f3759df
10001f5c:	eddd 3ac9 	vldr	s7, [sp, #804]	@ 0x324
10001f60:	edcd 3a1f 	vstr	s7, [sp, #124]	@ 0x7c
10001f64:	eddd 3ad0 	vldr	s7, [sp, #832]	@ 0x340
10001f68:	ed9d 1aea 	vldr	s2, [sp, #936]	@ 0x3a8
10001f6c:	eddd faeb 	vldr	s31, [sp, #940]	@ 0x3ac
10001f70:	edcd 3a20 	vstr	s7, [sp, #128]	@ 0x80
10001f74:	eddd 3ad7 	vldr	s7, [sp, #860]	@ 0x35c
10001f78:	edcd 3a21 	vstr	s7, [sp, #132]	@ 0x84
10001f7c:	eddd 3ade 	vldr	s7, [sp, #888]	@ 0x378
10001f80:	edcd 3a22 	vstr	s7, [sp, #136]	@ 0x88
10001f84:	eddd 3ac3 	vldr	s7, [sp, #780]	@ 0x30c
10001f88:	edcd 3a23 	vstr	s7, [sp, #140]	@ 0x8c
10001f8c:	eddd 3aca 	vldr	s7, [sp, #808]	@ 0x328
10001f90:	edcd 3a24 	vstr	s7, [sp, #144]	@ 0x90
10001f94:	eddd 3ad1 	vldr	s7, [sp, #836]	@ 0x344
10001f98:	edcd 3a25 	vstr	s7, [sp, #148]	@ 0x94
10001f9c:	eddd 3ad8 	vldr	s7, [sp, #864]	@ 0x360
10001fa0:	edcd 3a26 	vstr	s7, [sp, #152]	@ 0x98
10001fa4:	eddd 3a27 	vldr	s7, [sp, #156]	@ 0x9c
10001fa8:	aa84      	add	r2, sp, #528	@ 0x210
10001faa:	edcd ba2a 	vstr	s23, [sp, #168]	@ 0xa8
10001fae:	ed8d aa2e 	vstr	s20, [sp, #184]	@ 0xb8
10001fb2:	edcd aa2f 	vstr	s21, [sp, #188]	@ 0xbc
10001fb6:	ed8d ba30 	vstr	s22, [sp, #192]	@ 0xc0
10001fba:	ed8d 8a31 	vstr	s16, [sp, #196]	@ 0xc4
10001fbe:	ed8d ca35 	vstr	s24, [sp, #212]	@ 0xd4
10001fc2:	edcd ca36 	vstr	s25, [sp, #216]	@ 0xd8
10001fc6:	ed8d da37 	vstr	s26, [sp, #220]	@ 0xdc
10001fca:	4613      	mov	r3, r2
10001fcc:	eddd eae5 	vldr	s29, [sp, #916]	@ 0x394
10001fd0:	ed9d eaec 	vldr	s28, [sp, #944]	@ 0x3b0
10001fd4:	eddd dadf 	vldr	s27, [sp, #892]	@ 0x37c
10001fd8:	ed9d 0ae6 	vldr	s0, [sp, #920]	@ 0x398
10001fdc:	eddd 0aed 	vldr	s1, [sp, #948]	@ 0x3b4
10001fe0:	edcd 8a2b 	vstr	s17, [sp, #172]	@ 0xac
10001fe4:	ed8d 9a2c 	vstr	s18, [sp, #176]	@ 0xb0
10001fe8:	edcd 9a2d 	vstr	s19, [sp, #180]	@ 0xb4
10001fec:	edcd 3a34 	vstr	s7, [sp, #208]	@ 0xd0
10001ff0:	edcd 7a27 	vstr	s15, [sp, #156]	@ 0x9c
10001ff4:	eeb0 3a47 	vmov.f32	s6, s14
10001ff8:	eef0 2a66 	vmov.f32	s5, s13
10001ffc:	eeb0 8a46 	vmov.f32	s16, s12
10002000:	eeb0 ca65 	vmov.f32	s24, s11
10002004:	eef0 ca45 	vmov.f32	s25, s10
10002008:	eeb0 aa64 	vmov.f32	s20, s9
1000200c:	eeb0 da44 	vmov.f32	s26, s8
10002010:	eef0 aa42 	vmov.f32	s21, s4
10002014:	eeb0 ba61 	vmov.f32	s22, s3
10002018:	eef0 ba41 	vmov.f32	s23, s2
1000201c:	a953      	add	r1, sp, #332	@ 0x14c
1000201e:	edd3 4a00 	vldr	s9, [r3]
10002022:	edd1 9a00 	vldr	s19, [r1]
10002026:	eddd 7a27 	vldr	s15, [sp, #156]	@ 0x9c
1000202a:	edd3 5a02 	vldr	s11, [r3, #8]
1000202e:	eee9 4aa7 	vfma.f32	s9, s19, s15
10002032:	eddd 7a0c 	vldr	s15, [sp, #48]	@ 0x30
10002036:	ed93 6a03 	vldr	s12, [r3, #12]
1000203a:	eee9 5aa7 	vfma.f32	s11, s19, s15
1000203e:	eddd 7a12 	vldr	s15, [sp, #72]	@ 0x48
10002042:	edd3 6a04 	vldr	s13, [r3, #16]
10002046:	eea9 6aa7 	vfma.f32	s12, s19, s15
1000204a:	eddd 7a18 	vldr	s15, [sp, #96]	@ 0x60
1000204e:	ed93 7a05 	vldr	s14, [r3, #20]
10002052:	eee9 6aa7 	vfma.f32	s13, s19, s15
10002056:	eddd 7a1e 	vldr	s15, [sp, #120]	@ 0x78
1000205a:	ed93 5a01 	vldr	s10, [r3, #4]
1000205e:	edd3 3a06 	vldr	s7, [r3, #24]
10002062:	eea9 7aa7 	vfma.f32	s14, s19, s15
10002066:	eddd 7a23 	vldr	s15, [sp, #140]	@ 0x8c
1000206a:	ed91 9a01 	vldr	s18, [r1, #4]
1000206e:	eea9 5a8d 	vfma.f32	s10, s19, s26
10002072:	eee9 3aa7 	vfma.f32	s7, s19, s15
10002076:	eddd 9a06 	vldr	s19, [sp, #24]
1000207a:	eea9 5a29 	vfma.f32	s10, s18, s19
1000207e:	eddd 9a0d 	vldr	s19, [sp, #52]	@ 0x34
10002082:	eee9 5a29 	vfma.f32	s11, s18, s19
10002086:	eddd 9a13 	vldr	s19, [sp, #76]	@ 0x4c
1000208a:	eea9 6a29 	vfma.f32	s12, s18, s19
1000208e:	eddd 9a19 	vldr	s19, [sp, #100]	@ 0x64
10002092:	eee9 6a29 	vfma.f32	s13, s18, s19
10002096:	eddd 9a1f 	vldr	s19, [sp, #124]	@ 0x7c
1000209a:	eef0 7a63 	vmov.f32	s15, s7
1000209e:	eea9 7a29 	vfma.f32	s14, s18, s19
100020a2:	eddd 9a24 	vldr	s19, [sp, #144]	@ 0x90
100020a6:	edd1 8a02 	vldr	s17, [r1, #8]
100020aa:	eee9 4a03 	vfma.f32	s9, s18, s6
100020ae:	eee9 7a29 	vfma.f32	s15, s18, s19
100020b2:	ed9d 9a08 	vldr	s18, [sp, #32]
100020b6:	eea8 5a89 	vfma.f32	s10, s17, s18
100020ba:	ed9d 9a0e 	vldr	s18, [sp, #56]	@ 0x38
100020be:	eee8 5a89 	vfma.f32	s11, s17, s18
100020c2:	ed9d 9a14 	vldr	s18, [sp, #80]	@ 0x50
100020c6:	eea8 6a89 	vfma.f32	s12, s17, s18
100020ca:	ed9d 9a1a 	vldr	s18, [sp, #104]	@ 0x68
100020ce:	eee8 6a89 	vfma.f32	s13, s17, s18
100020d2:	ed9d 9a20 	vldr	s18, [sp, #128]	@ 0x80
100020d6:	eea8 7a89 	vfma.f32	s14, s17, s18
100020da:	ed9d 9a25 	vldr	s18, [sp, #148]	@ 0x94
100020de:	ed91 1a03 	vldr	s2, [r1, #12]
100020e2:	edd1 1a04 	vldr	s3, [r1, #16]
100020e6:	ed91 2a05 	vldr	s4, [r1, #20]
100020ea:	ed91 4a06 	vldr	s8, [r1, #24]
100020ee:	eee8 4aa2 	vfma.f32	s9, s17, s5
100020f2:	eee8 7a89 	vfma.f32	s15, s17, s18
100020f6:	eddd 8a09 	vldr	s17, [sp, #36]	@ 0x24
100020fa:	eea1 5a28 	vfma.f32	s10, s2, s17
100020fe:	eddd 8a0f 	vldr	s17, [sp, #60]	@ 0x3c
10002102:	eee1 5a28 	vfma.f32	s11, s2, s17
10002106:	eddd 8a15 	vldr	s17, [sp, #84]	@ 0x54
1000210a:	eea1 6a28 	vfma.f32	s12, s2, s17
1000210e:	eddd 8a1b 	vldr	s17, [sp, #108]	@ 0x6c
10002112:	eee1 6a28 	vfma.f32	s13, s2, s17
10002116:	eddd 8a21 	vldr	s17, [sp, #132]	@ 0x84
1000211a:	eea1 7a28 	vfma.f32	s14, s2, s17
1000211e:	eddd 8a26 	vldr	s17, [sp, #152]	@ 0x98
10002122:	eee1 4a08 	vfma.f32	s9, s2, s16
10002126:	eee1 7a28 	vfma.f32	s15, s2, s17
1000212a:	ed9d 1a0a 	vldr	s2, [sp, #40]	@ 0x28
1000212e:	eea1 5a81 	vfma.f32	s10, s3, s2
10002132:	ed9d 1a10 	vldr	s2, [sp, #64]	@ 0x40
10002136:	eee1 5a81 	vfma.f32	s11, s3, s2
1000213a:	ed9d 1a16 	vldr	s2, [sp, #88]	@ 0x58
1000213e:	eea1 6a81 	vfma.f32	s12, s3, s2
10002142:	ed9d 1a1c 	vldr	s2, [sp, #112]	@ 0x70
10002146:	eee1 6a81 	vfma.f32	s13, s3, s2
1000214a:	ed9d 1a22 	vldr	s2, [sp, #136]	@ 0x88
1000214e:	eee1 4a8c 	vfma.f32	s9, s3, s24
10002152:	eea1 7a81 	vfma.f32	s14, s3, s2
10002156:	eee1 7aad 	vfma.f32	s15, s3, s27
1000215a:	eddd 1a0b 	vldr	s3, [sp, #44]	@ 0x2c
1000215e:	eea2 5a21 	vfma.f32	s10, s4, s3
10002162:	eddd 1a11 	vldr	s3, [sp, #68]	@ 0x44
10002166:	eee2 5a21 	vfma.f32	s11, s4, s3
1000216a:	eddd 1a17 	vldr	s3, [sp, #92]	@ 0x5c
1000216e:	eea2 6a21 	vfma.f32	s12, s4, s3
10002172:	eddd 1a1d 	vldr	s3, [sp, #116]	@ 0x74
10002176:	eee2 4a2c 	vfma.f32	s9, s4, s25
1000217a:	eee2 6a21 	vfma.f32	s13, s4, s3
1000217e:	eea2 7a2e 	vfma.f32	s14, s4, s29
10002182:	eee2 7a00 	vfma.f32	s15, s4, s0
10002186:	eee4 4a0a 	vfma.f32	s9, s8, s20
1000218a:	eea4 5a2a 	vfma.f32	s10, s8, s21
1000218e:	eee4 5a0b 	vfma.f32	s11, s8, s22
10002192:	eea4 6a2b 	vfma.f32	s12, s8, s23
10002196:	eee4 6a2f 	vfma.f32	s13, s8, s31
1000219a:	eea4 7a0e 	vfma.f32	s14, s8, s28
1000219e:	eee4 7a20 	vfma.f32	s15, s8, s1
100021a2:	331c      	adds	r3, #28
100021a4:	455b      	cmp	r3, fp
100021a6:	f101 011c 	add.w	r1, r1, #28
100021aa:	ed43 4a07 	vstr	s9, [r3, #-28]	@ 0xffffffe4
100021ae:	ed03 5a06 	vstr	s10, [r3, #-24]	@ 0xffffffe8
100021b2:	ed43 5a05 	vstr	s11, [r3, #-20]	@ 0xffffffec
100021b6:	ed03 6a04 	vstr	s12, [r3, #-16]
100021ba:	ed43 6a03 	vstr	s13, [r3, #-12]
100021be:	ed03 7a02 	vstr	s14, [r3, #-8]
100021c2:	ed43 7a01 	vstr	s15, [r3, #-4]
100021c6:	f47f af2a 	bne.w	1000201e <main+0xf36>
100021ca:	eddd ba2a 	vldr	s23, [sp, #168]	@ 0xa8
100021ce:	eddd 8a2b 	vldr	s17, [sp, #172]	@ 0xac
100021d2:	ed9d 9a2c 	vldr	s18, [sp, #176]	@ 0xb0
100021d6:	eddd 9a2d 	vldr	s19, [sp, #180]	@ 0xb4
100021da:	ed9d aa2e 	vldr	s20, [sp, #184]	@ 0xb8
100021de:	eddd aa2f 	vldr	s21, [sp, #188]	@ 0xbc
100021e2:	ed9d ba30 	vldr	s22, [sp, #192]	@ 0xc0
100021e6:	ed9d 8a31 	vldr	s16, [sp, #196]	@ 0xc4
100021ea:	eddd 2a32 	vldr	s5, [sp, #200]	@ 0xc8
100021ee:	ed9d 3a33 	vldr	s6, [sp, #204]	@ 0xcc
100021f2:	eddd 3a34 	vldr	s7, [sp, #208]	@ 0xd0
100021f6:	ed9d ca35 	vldr	s24, [sp, #212]	@ 0xd4
100021fa:	eddd ca36 	vldr	s25, [sp, #216]	@ 0xd8
100021fe:	ed9d da37 	vldr	s26, [sp, #220]	@ 0xdc
10002202:	4659      	mov	r1, fp
10002204:	465b      	mov	r3, fp
10002206:	4ca8      	ldr	r4, [pc, #672]	@ (100024a8 <main+0x13c0>)
10002208:	f8df c2c4 	ldr.w	ip, [pc, #708]	@ 100024d0 <main+0x13e8>
1000220c:	a842      	add	r0, sp, #264	@ 0x108
1000220e:	9442      	str	r4, [sp, #264]	@ 0x108
10002210:	9443      	str	r4, [sp, #268]	@ 0x10c
10002212:	9444      	str	r4, [sp, #272]	@ 0x110
10002214:	9445      	str	r4, [sp, #276]	@ 0x114
10002216:	f8cd c118 	str.w	ip, [sp, #280]	@ 0x118
1000221a:	f8cd c11c 	str.w	ip, [sp, #284]	@ 0x11c
1000221e:	f8cd c120 	str.w	ip, [sp, #288]	@ 0x120
10002222:	ed92 0a00 	vldr	s0, [r2]
10002226:	eeb0 1a4f 	vmov.f32	s2, s30
1000222a:	edd2 0a01 	vldr	s1, [r2, #4]
1000222e:	eef0 6a4f 	vmov.f32	s13, s30
10002232:	eeb0 7a4f 	vmov.f32	s14, s30
10002236:	eef0 7a4f 	vmov.f32	s15, s30
1000223a:	eea0 1a0f 	vfma.f32	s2, s0, s30
1000223e:	edd2 1a02 	vldr	s3, [r2, #8]
10002242:	ee30 4a0f 	vadd.f32	s8, s0, s30
10002246:	eeec 6a00 	vfma.f32	s13, s24, s0
1000224a:	eead 7a00 	vfma.f32	s14, s26, s0
1000224e:	eeec 7a80 	vfma.f32	s15, s25, s0
10002252:	eea0 1a8f 	vfma.f32	s2, s1, s30
10002256:	eea8 4aa0 	vfma.f32	s8, s17, s1
1000225a:	ee70 6aa6 	vadd.f32	s13, s1, s13
1000225e:	eea9 7aa0 	vfma.f32	s14, s19, s1
10002262:	eeed 7a20 	vfma.f32	s15, s26, s1
10002266:	eea1 1a8f 	vfma.f32	s2, s3, s30
1000226a:	ed92 2a03 	vldr	s4, [r2, #12]
1000226e:	eea9 4a21 	vfma.f32	s8, s18, s3
10002272:	eeec 6aa1 	vfma.f32	s13, s25, s3
10002276:	ee31 7a87 	vadd.f32	s14, s3, s14
1000227a:	eee8 7aa1 	vfma.f32	s15, s17, s3
1000227e:	eef0 1a41 	vmov.f32	s3, s2
10002282:	eee2 1a0f 	vfma.f32	s3, s4, s30
10002286:	edd2 4a04 	vldr	s9, [r2, #16]
1000228a:	eea9 4a82 	vfma.f32	s8, s19, s4
1000228e:	eee9 6a02 	vfma.f32	s13, s18, s4
10002292:	eeac 7a02 	vfma.f32	s14, s24, s4
10002296:	ee72 7a27 	vadd.f32	s15, s4, s15
1000229a:	eeb0 2a61 	vmov.f32	s4, s3
1000229e:	ed92 5a05 	vldr	s10, [r2, #20]
100022a2:	eea4 2a8f 	vfma.f32	s4, s9, s30
100022a6:	eeaa 4a24 	vfma.f32	s8, s20, s9
100022aa:	eee8 6a24 	vfma.f32	s13, s16, s9
100022ae:	eea3 7a24 	vfma.f32	s14, s6, s9
100022b2:	eeea 7aa4 	vfma.f32	s15, s21, s9
100022b6:	eeaa 4a85 	vfma.f32	s8, s21, s10
100022ba:	ee74 4aa1 	vadd.f32	s9, s9, s3
100022be:	ee75 1a02 	vadd.f32	s3, s10, s4
100022c2:	ed92 6a06 	vldr	s12, [r2, #24]
100022c6:	eeeb 6a05 	vfma.f32	s13, s22, s10
100022ca:	eea8 7a05 	vfma.f32	s14, s16, s10
100022ce:	eee3 7a85 	vfma.f32	s15, s7, s10
100022d2:	eee5 4a0f 	vfma.f32	s9, s10, s30
100022d6:	eea5 2a0f 	vfma.f32	s4, s10, s30
100022da:	eeb0 5a44 	vmov.f32	s10, s8
100022de:	eeb0 4a61 	vmov.f32	s8, s3
100022e2:	eee8 7a06 	vfma.f32	s15, s16, s12
100022e6:	eeab 5a06 	vfma.f32	s10, s22, s12
100022ea:	eee2 6a86 	vfma.f32	s13, s5, s12
100022ee:	eeaa 7a06 	vfma.f32	s14, s20, s12
100022f2:	eee6 4a0f 	vfma.f32	s9, s12, s30
100022f6:	eea6 4a0f 	vfma.f32	s8, s12, s30
100022fa:	ee36 6a02 	vadd.f32	s12, s12, s4
100022fe:	ed83 5a08 	vstr	s10, [r3, #32]
10002302:	edc3 6a09 	vstr	s13, [r3, #36]	@ 0x24
10002306:	ed83 7a0a 	vstr	s14, [r3, #40]	@ 0x28
1000230a:	edc3 7a0b 	vstr	s15, [r3, #44]	@ 0x2c
1000230e:	edc3 4a0c 	vstr	s9, [r3, #48]	@ 0x30
10002312:	ed83 4a0d 	vstr	s8, [r3, #52]	@ 0x34
10002316:	ed83 6a0e 	vstr	s12, [r3, #56]	@ 0x38
1000231a:	ecf0 5a01 	vldmia	r0!, {s11}
1000231e:	edd1 7a08 	vldr	s15, [r1, #32]
10002322:	eeeb 7aa5 	vfma.f32	s15, s23, s11
10002326:	321c      	adds	r2, #28
10002328:	455a      	cmp	r2, fp
1000232a:	f103 031c 	add.w	r3, r3, #28
1000232e:	f101 0120 	add.w	r1, r1, #32
10002332:	edc1 7a00 	vstr	s15, [r1]
10002336:	f47f af74 	bne.w	10002222 <main+0x113a>
1000233a:	9b28      	ldr	r3, [sp, #160]	@ 0xa0
1000233c:	2b00      	cmp	r3, #0
1000233e:	f040 822f 	bne.w	100027a0 <main+0x16b8>
10002342:	9b28      	ldr	r3, [sp, #160]	@ 0xa0
10002344:	f083 0301 	eor.w	r3, r3, #1
10002348:	b2db      	uxtb	r3, r3
1000234a:	9328      	str	r3, [sp, #160]	@ 0xa0
1000234c:	9b29      	ldr	r3, [sp, #164]	@ 0xa4
1000234e:	071b      	lsls	r3, r3, #28
10002350:	f000 80c0 	beq.w	100024d4 <main+0x13ec>
10002354:	f001 fc8c 	bl	10003c70 <time_us_64>
10002358:	f242 7211 	movw	r2, #10001	@ 0x2711
1000235c:	460d      	mov	r5, r1
1000235e:	9b38      	ldr	r3, [sp, #224]	@ 0xe0
10002360:	4604      	mov	r4, r0
10002362:	1ac1      	subs	r1, r0, r3
10002364:	9b39      	ldr	r3, [sp, #228]	@ 0xe4
10002366:	eb65 0303 	sbc.w	r3, r5, r3
1000236a:	4291      	cmp	r1, r2
1000236c:	f173 0300 	sbcs.w	r3, r3, #0
10002370:	f4ff ac06 	bcc.w	10001b80 <main+0xa98>
10002374:	6830      	ldr	r0, [r6, #0]
10002376:	f007 f93f 	bl	100095f8 <____aeabi_f2d_veneer>
1000237a:	4602      	mov	r2, r0
1000237c:	460b      	mov	r3, r1
1000237e:	68f0      	ldr	r0, [r6, #12]
10002380:	e9cd 2306 	strd	r2, r3, [sp, #24]
10002384:	f007 f938 	bl	100095f8 <____aeabi_f2d_veneer>
10002388:	e9cd 0102 	strd	r0, r1, [sp, #8]
1000238c:	6870      	ldr	r0, [r6, #4]
1000238e:	f007 f933 	bl	100095f8 <____aeabi_f2d_veneer>
10002392:	e9dd 2306 	ldrd	r2, r3, [sp, #24]
10002396:	e9cd 0100 	strd	r0, r1, [sp]
1000239a:	4844      	ldr	r0, [pc, #272]	@ (100024ac <main+0x13c4>)
1000239c:	f004 f9c4 	bl	10006728 <__wrap_printf>
100023a0:	e9cd 4538 	strd	r4, r5, [sp, #224]	@ 0xe0
100023a4:	f7ff bbec 	b.w	10001b80 <main+0xa98>
100023a8:	4b41      	ldr	r3, [pc, #260]	@ (100024b0 <main+0x13c8>)
100023aa:	685a      	ldr	r2, [r3, #4]
100023ac:	05d2      	lsls	r2, r2, #23
100023ae:	d46f      	bmi.n	10002490 <main+0x13a8>
100023b0:	6a1b      	ldr	r3, [r3, #32]
100023b2:	ed9f 7a40 	vldr	s14, [pc, #256]	@ 100024b4 <main+0x13cc>
100023b6:	43db      	mvns	r3, r3
100023b8:	ee07 3a90 	vmov	s15, r3
100023bc:	ed9f 5a3e 	vldr	s10, [pc, #248]	@ 100024b8 <main+0x13d0>
100023c0:	eef8 7ae7 	vcvt.f32.s32	s15, s15
100023c4:	eddf 5a3d 	vldr	s11, [pc, #244]	@ 100024bc <main+0x13d4>
100023c8:	eea7 7a85 	vfma.f32	s14, s15, s10
100023cc:	ed9f 6a3c 	vldr	s12, [pc, #240]	@ 100024c0 <main+0x13d8>
100023d0:	ee27 7a25 	vmul.f32	s14, s14, s11
100023d4:	eef3 6a0e 	vmov.f32	s13, #62	@ 0x41f00000  30.0
100023d8:	eec7 7a06 	vdiv.f32	s15, s14, s12
100023dc:	4b34      	ldr	r3, [pc, #208]	@ (100024b0 <main+0x13c8>)
100023de:	ee77 7ae6 	vsub.f32	s15, s15, s13
100023e2:	685a      	ldr	r2, [r3, #4]
100023e4:	0590      	lsls	r0, r2, #22
100023e6:	d459      	bmi.n	1000249c <main+0x13b4>
100023e8:	6a5b      	ldr	r3, [r3, #36]	@ 0x24
100023ea:	eddf 6a32 	vldr	s13, [pc, #200]	@ 100024b4 <main+0x13cc>
100023ee:	43db      	mvns	r3, r3
100023f0:	ee07 3a10 	vmov	s14, r3
100023f4:	eddf 4a30 	vldr	s9, [pc, #192]	@ 100024b8 <main+0x13d0>
100023f8:	eeb8 7ac7 	vcvt.f32.s32	s14, s14
100023fc:	ed9f 5a2f 	vldr	s10, [pc, #188]	@ 100024bc <main+0x13d4>
10002400:	eee7 6a24 	vfma.f32	s13, s14, s9
10002404:	eddf 5a2e 	vldr	s11, [pc, #184]	@ 100024c0 <main+0x13d8>
10002408:	ee26 7a85 	vmul.f32	s14, s13, s10
1000240c:	eeb3 6a0e 	vmov.f32	s12, #62	@ 0x41f00000  30.0
10002410:	eec7 6a25 	vdiv.f32	s13, s14, s11
10002414:	ee76 6ac6 	vsub.f32	s13, s13, s12
10002418:	4b25      	ldr	r3, [pc, #148]	@ (100024b0 <main+0x13c8>)
1000241a:	685a      	ldr	r2, [r3, #4]
1000241c:	0551      	lsls	r1, r2, #21
1000241e:	bf58      	it	pl
10002420:	6a9b      	ldrpl	r3, [r3, #40]	@ 0x28
10002422:	4b23      	ldr	r3, [pc, #140]	@ (100024b0 <main+0x13c8>)
10002424:	685a      	ldr	r2, [r3, #4]
10002426:	0512      	lsls	r2, r2, #20
10002428:	d43b      	bmi.n	100024a2 <main+0x13ba>
1000242a:	6adb      	ldr	r3, [r3, #44]	@ 0x2c
1000242c:	ed9f 6a21 	vldr	s12, [pc, #132]	@ 100024b4 <main+0x13cc>
10002430:	43db      	mvns	r3, r3
10002432:	ee07 3a10 	vmov	s14, r3
10002436:	ed9f 4a20 	vldr	s8, [pc, #128]	@ 100024b8 <main+0x13d0>
1000243a:	eeb8 7ac7 	vcvt.f32.s32	s14, s14
1000243e:	eddf 4a1f 	vldr	s9, [pc, #124]	@ 100024bc <main+0x13d4>
10002442:	eea7 6a04 	vfma.f32	s12, s14, s8
10002446:	ed9f 5a1e 	vldr	s10, [pc, #120]	@ 100024c0 <main+0x13d8>
1000244a:	ee26 6a24 	vmul.f32	s12, s12, s9
1000244e:	eef3 5a0e 	vmov.f32	s11, #62	@ 0x41f00000  30.0
10002452:	ee86 7a05 	vdiv.f32	s14, s12, s10
10002456:	ee37 7a65 	vsub.f32	s14, s14, s11
1000245a:	4b1a      	ldr	r3, [pc, #104]	@ (100024c4 <main+0x13dc>)
1000245c:	46b8      	mov	r8, r7
1000245e:	ed93 5a00 	vldr	s10, [r3]
10002462:	4b19      	ldr	r3, [pc, #100]	@ (100024c8 <main+0x13e0>)
10002464:	ee77 7ac5 	vsub.f32	s15, s15, s10
10002468:	edd3 5a00 	vldr	s11, [r3]
1000246c:	4b17      	ldr	r3, [pc, #92]	@ (100024cc <main+0x13e4>)
1000246e:	ee76 6ae5 	vsub.f32	s13, s13, s11
10002472:	ed93 6a00 	vldr	s12, [r3]
10002476:	eef1 7a67 	vneg.f32	s15, s15
1000247a:	ee37 7a46 	vsub.f32	s14, s14, s12
1000247e:	edc6 6a01 	vstr	s13, [r6, #4]
10002482:	ed86 7a03 	vstr	s14, [r6, #12]
10002486:	edc6 7a00 	vstr	s15, [r6]
1000248a:	9505      	str	r5, [sp, #20]
1000248c:	f7ff bb8d 	b.w	10001baa <main+0xac2>
10002490:	4b07      	ldr	r3, [pc, #28]	@ (100024b0 <main+0x13c8>)
10002492:	eef0 7a4f 	vmov.f32	s15, s30
10002496:	685a      	ldr	r2, [r3, #4]
10002498:	0590      	lsls	r0, r2, #22
1000249a:	d5a5      	bpl.n	100023e8 <main+0x1300>
1000249c:	eef0 6a4f 	vmov.f32	s13, s30
100024a0:	e7ba      	b.n	10002418 <main+0x1330>
100024a2:	eeb0 7a4f 	vmov.f32	s14, s30
100024a6:	e7d8      	b.n	1000245a <main+0x1372>
100024a8:	3a83126f 	.word	0x3a83126f
100024ac:	100098b0 	.word	0x100098b0
100024b0:	50200000 	.word	0x50200000
100024b4:	c47a0000 	.word	0xc47a0000
100024b8:	3c83126f 	.word	0x3c83126f
100024bc:	42700000 	.word	0x42700000
100024c0:	447a0000 	.word	0x447a0000
100024c4:	20001598 	.word	0x20001598
100024c8:	20001594 	.word	0x20001594
100024cc:	20001590 	.word	0x20001590
100024d0:	3727c5ac 	.word	0x3727c5ac
100024d4:	ed9d cab8 	vldr	s24, [sp, #736]	@ 0x2e0
100024d8:	ed9d bab9 	vldr	s22, [sp, #740]	@ 0x2e4
100024dc:	ee6c aa0c 	vmul.f32	s21, s24, s24
100024e0:	ed9d 8ab7 	vldr	s16, [sp, #732]	@ 0x2dc
100024e4:	eddd 8ab6 	vldr	s17, [sp, #728]	@ 0x2d8
100024e8:	eeb7 9a00 	vmov.f32	s18, #112	@ 0x3f800000  1.0
100024ec:	ee6c 7a0b 	vmul.f32	s15, s24, s22
100024f0:	eef0 6a6a 	vmov.f32	s13, s21
100024f4:	eeb0 7a00 	vmov.f32	s14, #0	@ 0x40000000  2.0
100024f8:	eee8 6a08 	vfma.f32	s13, s16, s16
100024fc:	eee8 7a88 	vfma.f32	s15, s17, s16
10002500:	eeb0 6a49 	vmov.f32	s12, s18
10002504:	ee77 7aa7 	vadd.f32	s15, s15, s15
10002508:	eea6 6ac7 	vfms.f32	s12, s13, s14
1000250c:	ee17 0a90 	vmov	r0, s15
10002510:	ee16 1a10 	vmov	r1, s12
10002514:	f002 fa9e 	bl	10004a54 <__wrap_atan2f>
10002518:	ee6b 7a48 	vnmul.f32	s15, s22, s16
1000251c:	eee8 7a8c 	vfma.f32	s15, s17, s24
10002520:	ee07 0a10 	vmov	s14, r0
10002524:	ed9d aab5 	vldr	s20, [sp, #724]	@ 0x2d4
10002528:	ee77 7aa7 	vadd.f32	s15, s15, s15
1000252c:	eec7 9a0a 	vdiv.f32	s19, s14, s20
10002530:	eeb0 7ae7 	vabs.f32	s14, s15
10002534:	eeb4 7ac9 	vcmpe.f32	s14, s18
10002538:	eef1 fa10 	vmrs	APSR_nzcv, fpscr
1000253c:	4bbc      	ldr	r3, [pc, #752]	@ (10002830 <main+0x1748>)
1000253e:	edc3 9a00 	vstr	s19, [r3]
10002542:	f2c0 815b 	blt.w	100027fc <main+0x1714>
10002546:	ee17 3a90 	vmov	r3, s15
1000254a:	ed9f 7aba 	vldr	s14, [pc, #744]	@ 10002834 <main+0x174c>
1000254e:	eddf 7aba 	vldr	s15, [pc, #744]	@ 10002838 <main+0x1750>
10002552:	2b00      	cmp	r3, #0
10002554:	fe67 7a27 	vselge.f32	s15, s14, s15
10002558:	ee17 0a90 	vmov	r0, s15
1000255c:	f007 f84c 	bl	100095f8 <____aeabi_f2d_veneer>
10002560:	a3b1      	add	r3, pc, #708	@ (adr r3, 10002828 <main+0x1740>)
10002562:	e9d3 2300 	ldrd	r2, r3, [r3]
10002566:	f002 f803 	bl	10004570 <__wrap___aeabi_dmul>
1000256a:	f002 f875 	bl	10004658 <__wrap___aeabi_d2f>
1000256e:	ee28 8a0c 	vmul.f32	s16, s16, s24
10002572:	eeb0 7a00 	vmov.f32	s14, #0	@ 0x40000000  2.0
10002576:	eeeb aa0b 	vfma.f32	s21, s22, s22
1000257a:	eef7 7a00 	vmov.f32	s15, #112	@ 0x3f800000  1.0
1000257e:	eea8 8a8b 	vfma.f32	s16, s17, s22
10002582:	eeea 7ac7 	vfms.f32	s15, s21, s14
10002586:	ee17 1a90 	vmov	r1, s15
1000258a:	ee78 7a08 	vadd.f32	s15, s16, s16
1000258e:	4bab      	ldr	r3, [pc, #684]	@ (1000283c <main+0x1754>)
10002590:	ee09 0a10 	vmov	s18, r0
10002594:	6018      	str	r0, [r3, #0]
10002596:	ee17 0a90 	vmov	r0, s15
1000259a:	f002 fa5b 	bl	10004a54 <__wrap_atan2f>
1000259e:	ee07 0a10 	vmov	s14, r0
100025a2:	eec7 7a0a 	vdiv.f32	s15, s14, s20
100025a6:	4ba6      	ldr	r3, [pc, #664]	@ (10002840 <main+0x1758>)
100025a8:	ed9d 7a3b 	vldr	s14, [sp, #236]	@ 0xec
100025ac:	edc3 7a00 	vstr	s15, [r3]
100025b0:	edd6 4a00 	vldr	s9, [r6]
100025b4:	eddd 7abc 	vldr	s15, [sp, #752]	@ 0x2f0
100025b8:	ee74 4ae9 	vsub.f32	s9, s9, s19
100025bc:	ee77 7a67 	vsub.f32	s15, s14, s15
100025c0:	ed9d 7a3e 	vldr	s14, [sp, #248]	@ 0xf8
100025c4:	eddf 6a9f 	vldr	s13, [pc, #636]	@ 10002844 <main+0x175c>
100025c8:	eeab 7aa4 	vfma.f32	s14, s23, s9
100025cc:	eeb4 7ae6 	vcmpe.f32	s14, s13
100025d0:	ed9f 6a9d 	vldr	s12, [pc, #628]	@ 10002848 <main+0x1760>
100025d4:	eef1 fa10 	vmrs	APSR_nzcv, fpscr
100025d8:	ee67 7a86 	vmul.f32	s15, s15, s12
100025dc:	ee24 6a8f 	vmul.f32	s12, s9, s30
100025e0:	f300 8109 	bgt.w	100027f6 <main+0x170e>
100025e4:	eddf 6a99 	vldr	s13, [pc, #612]	@ 1000284c <main+0x1764>
100025e8:	eef4 6ac7 	vcmpe.f32	s13, s14
100025ec:	eef1 fa10 	vmrs	APSR_nzcv, fpscr
100025f0:	fe36 7a87 	vselgt.f32	s14, s13, s14
100025f4:	ed8d 7a3e 	vstr	s14, [sp, #248]	@ 0xf8
100025f8:	ed9d 7a40 	vldr	s14, [sp, #256]	@ 0x100
100025fc:	ee74 6ac7 	vsub.f32	s13, s9, s14
10002600:	ed9d 7a3e 	vldr	s14, [sp, #248]	@ 0xf8
10002604:	edd6 5a01 	vldr	s11, [r6, #4]
10002608:	eea7 6a0f 	vfma.f32	s12, s14, s30
1000260c:	ee86 7aab 	vdiv.f32	s14, s13, s23
10002610:	ee75 5ac9 	vsub.f32	s11, s11, s18
10002614:	eea7 6a0f 	vfma.f32	s12, s14, s30
10002618:	ed9d 7a3d 	vldr	s14, [sp, #244]	@ 0xf4
1000261c:	ed9f 5a89 	vldr	s10, [pc, #548]	@ 10002844 <main+0x175c>
10002620:	eeab 7aa5 	vfma.f32	s14, s23, s11
10002624:	eeb4 7ac5 	vcmpe.f32	s14, s10
10002628:	eef1 fa10 	vmrs	APSR_nzcv, fpscr
1000262c:	4b88      	ldr	r3, [pc, #544]	@ (10002850 <main+0x1768>)
1000262e:	ee65 6a8f 	vmul.f32	s13, s11, s30
10002632:	ed83 6a00 	vstr	s12, [r3]
10002636:	f300 80db 	bgt.w	100027f0 <main+0x1708>
1000263a:	ed9f 5a84 	vldr	s10, [pc, #528]	@ 1000284c <main+0x1764>
1000263e:	eeb4 5ac7 	vcmpe.f32	s10, s14
10002642:	eef1 fa10 	vmrs	APSR_nzcv, fpscr
10002646:	fe35 7a07 	vselgt.f32	s14, s10, s14
1000264a:	ed8d 7a3d 	vstr	s14, [sp, #244]	@ 0xf4
1000264e:	ed96 5a03 	vldr	s10, [r6, #12]
10002652:	ed9d 7a3f 	vldr	s14, [sp, #252]	@ 0xfc
10002656:	ee35 5a67 	vsub.f32	s10, s10, s15
1000265a:	eddd 7a3c 	vldr	s15, [sp, #240]	@ 0xf0
1000265e:	ee75 3ac7 	vsub.f32	s7, s11, s14
10002662:	ed9f 4a78 	vldr	s8, [pc, #480]	@ 10002844 <main+0x175c>
10002666:	ed9d 7a3d 	vldr	s14, [sp, #244]	@ 0xf4
1000266a:	eeeb 7a85 	vfma.f32	s15, s23, s10
1000266e:	eee7 6a0f 	vfma.f32	s13, s14, s30
10002672:	eef4 7ac4 	vcmpe.f32	s15, s8
10002676:	ee83 7aab 	vdiv.f32	s14, s7, s23
1000267a:	eef1 fa10 	vmrs	APSR_nzcv, fpscr
1000267e:	eee7 6a0f 	vfma.f32	s13, s14, s30
10002682:	4b74      	ldr	r3, [pc, #464]	@ (10002854 <main+0x176c>)
10002684:	ee25 7a0f 	vmul.f32	s14, s10, s30
10002688:	edc3 6a00 	vstr	s13, [r3]
1000268c:	f300 80ad 	bgt.w	100027ea <main+0x1702>
10002690:	ed9f 4a6e 	vldr	s8, [pc, #440]	@ 1000284c <main+0x1764>
10002694:	eeb4 4ae7 	vcmpe.f32	s8, s15
10002698:	eef1 fa10 	vmrs	APSR_nzcv, fpscr
1000269c:	fe74 7a27 	vselgt.f32	s15, s8, s15
100026a0:	edcd 7a3c 	vstr	s15, [sp, #240]	@ 0xf0
100026a4:	ed9d 4a41 	vldr	s8, [sp, #260]	@ 0x104
100026a8:	edd6 7a02 	vldr	s15, [r6, #8]
100026ac:	eddd 3a3c 	vldr	s7, [sp, #240]	@ 0xf0
100026b0:	ee35 4a44 	vsub.f32	s8, s10, s8
100026b4:	eefc 7ae7 	vcvt.u32.f32	s15, s15
100026b8:	edcd 5a3f 	vstr	s11, [sp, #252]	@ 0xfc
100026bc:	eef8 7a67 	vcvt.f32.u32	s15, s15
100026c0:	eec4 5a2b 	vdiv.f32	s11, s8, s23
100026c4:	eea3 7a8f 	vfma.f32	s14, s7, s30
100026c8:	eea5 7a8f 	vfma.f32	s14, s11, s30
100026cc:	ee77 5a86 	vadd.f32	s11, s15, s12
100026d0:	ed8d 5a41 	vstr	s10, [sp, #260]	@ 0x104
100026d4:	ee77 7ac6 	vsub.f32	s15, s15, s12
100026d8:	ee35 5ae6 	vsub.f32	s10, s11, s13
100026dc:	ee37 6ae6 	vsub.f32	s12, s15, s13
100026e0:	ee75 5aa6 	vadd.f32	s11, s11, s13
100026e4:	ee77 7aa6 	vadd.f32	s15, s15, s13
100026e8:	ee35 5a07 	vadd.f32	s10, s10, s14
100026ec:	4b5a      	ldr	r3, [pc, #360]	@ (10002858 <main+0x1770>)
100026ee:	ee36 6a47 	vsub.f32	s12, s12, s14
100026f2:	ed83 7a00 	vstr	s14, [r3]
100026f6:	ee75 6ac7 	vsub.f32	s13, s11, s14
100026fa:	ee77 7a87 	vadd.f32	s15, s15, s14
100026fe:	eebc 7ac5 	vcvt.u32.f32	s14, s10
10002702:	ee17 0a10 	vmov	r0, s14
10002706:	eebc 7ac6 	vcvt.u32.f32	s14, s12
1000270a:	ee17 1a10 	vmov	r1, s14
1000270e:	eebc 7ae6 	vcvt.u32.f32	s14, s13
10002712:	eefc 7ae7 	vcvt.u32.f32	s15, s15
10002716:	ee17 2a10 	vmov	r2, s14
1000271a:	ee17 3a90 	vmov	r3, s15
1000271e:	f5b0 6ffa 	cmp.w	r0, #2000	@ 0x7d0
10002722:	bf28      	it	cs
10002724:	f44f 60fa 	movcs.w	r0, #2000	@ 0x7d0
10002728:	f5b1 6ffa 	cmp.w	r1, #2000	@ 0x7d0
1000272c:	bf28      	it	cs
1000272e:	f44f 61fa 	movcs.w	r1, #2000	@ 0x7d0
10002732:	4f4a      	ldr	r7, [pc, #296]	@ (1000285c <main+0x1774>)
10002734:	f5b2 6ffa 	cmp.w	r2, #2000	@ 0x7d0
10002738:	6a3c      	ldr	r4, [r7, #32]
1000273a:	bf28      	it	cs
1000273c:	f44f 62fa 	movcs.w	r2, #2000	@ 0x7d0
10002740:	f5b3 6ffa 	cmp.w	r3, #2000	@ 0x7d0
10002744:	bf28      	it	cs
10002746:	f44f 63fa 	movcs.w	r3, #2000	@ 0x7d0
1000274a:	f5b0 7f7a 	cmp.w	r0, #1000	@ 0x3e8
1000274e:	bf2c      	ite	cs
10002750:	4044      	eorcs	r4, r0
10002752:	f484 747a 	eorcc.w	r4, r4, #1000	@ 0x3e8
10002756:	f5b1 7f7a 	cmp.w	r1, #1000	@ 0x3e8
1000275a:	bf38      	it	cc
1000275c:	f44f 717a 	movcc.w	r1, #1000	@ 0x3e8
10002760:	4d3f      	ldr	r5, [pc, #252]	@ (10002860 <main+0x1778>)
10002762:	b2a4      	uxth	r4, r4
10002764:	edcd 4a40 	vstr	s9, [sp, #256]	@ 0x100
10002768:	622c      	str	r4, [r5, #32]
1000276a:	6a38      	ldr	r0, [r7, #32]
1000276c:	f5b3 7f7a 	cmp.w	r3, #1000	@ 0x3e8
10002770:	ea80 4101 	eor.w	r1, r0, r1, lsl #16
10002774:	f36f 010f 	bfc	r1, #0, #16
10002778:	6229      	str	r1, [r5, #32]
1000277a:	6b79      	ldr	r1, [r7, #52]	@ 0x34
1000277c:	bf38      	it	cc
1000277e:	f44f 737a 	movcc.w	r3, #1000	@ 0x3e8
10002782:	f5b2 7f7a 	cmp.w	r2, #1000	@ 0x3e8
10002786:	bf2c      	ite	cs
10002788:	4051      	eorcs	r1, r2
1000278a:	f481 717a 	eorcc.w	r1, r1, #1000	@ 0x3e8
1000278e:	b289      	uxth	r1, r1
10002790:	6369      	str	r1, [r5, #52]	@ 0x34
10002792:	6b7a      	ldr	r2, [r7, #52]	@ 0x34
10002794:	ea82 4303 	eor.w	r3, r2, r3, lsl #16
10002798:	f36f 030f 	bfc	r3, #0, #16
1000279c:	636b      	str	r3, [r5, #52]	@ 0x34
1000279e:	e5d9      	b.n	10002354 <main+0x126c>
100027a0:	b22d      	sxth	r5, r5
100027a2:	ee07 5a90 	vmov	s15, r5
100027a6:	b23f      	sxth	r7, r7
100027a8:	eef8 6ae7 	vcvt.f32.s32	s13, s15
100027ac:	ee07 7a90 	vmov	s15, r7
100027b0:	f9bd 30e8 	ldrsh.w	r3, [sp, #232]	@ 0xe8
100027b4:	eeb8 7ae7 	vcvt.f32.s32	s14, s15
100027b8:	ee07 3a90 	vmov	s15, r3
100027bc:	ed9f 6a29 	vldr	s12, [pc, #164]	@ 10002864 <main+0x177c>
100027c0:	eef8 7ae7 	vcvt.f32.s32	s15, s15
100027c4:	f04f 537f 	mov.w	r3, #1069547520	@ 0x3fc00000
100027c8:	ee66 6a86 	vmul.f32	s13, s13, s12
100027cc:	ee27 7a06 	vmul.f32	s14, s14, s12
100027d0:	ee67 7a86 	vmul.f32	s15, s15, s12
100027d4:	9300      	str	r3, [sp, #0]
100027d6:	ee17 2a10 	vmov	r2, s14
100027da:	ee16 3a90 	vmov	r3, s13
100027de:	ee17 1a90 	vmov	r1, s15
100027e2:	4658      	mov	r0, fp
100027e4:	f7fd fd1a 	bl	1000021c <_ZN13QuaternionEKF6updateEffff>
100027e8:	e5ab      	b.n	10002342 <main+0x125a>
100027ea:	ed8d 4a3c 	vstr	s8, [sp, #240]	@ 0xf0
100027ee:	e759      	b.n	100026a4 <main+0x15bc>
100027f0:	ed8d 5a3d 	vstr	s10, [sp, #244]	@ 0xf4
100027f4:	e72b      	b.n	1000264e <main+0x1566>
100027f6:	edcd 6a3e 	vstr	s13, [sp, #248]	@ 0xf8
100027fa:	e6fd      	b.n	100025f8 <main+0x1510>
100027fc:	ee17 0a90 	vmov	r0, s15
10002800:	f001 ffde 	bl	100047c0 <__wrap_asinf>
10002804:	f006 fef8 	bl	100095f8 <____aeabi_f2d_veneer>
10002808:	a307      	add	r3, pc, #28	@ (adr r3, 10002828 <main+0x1740>)
1000280a:	e9d3 2300 	ldrd	r2, r3, [r3]
1000280e:	f001 feaf 	bl	10004570 <__wrap___aeabi_dmul>
10002812:	e6aa      	b.n	1000256a <main+0x1482>
10002814:	2905      	cmp	r1, #5
10002816:	6313      	str	r3, [r2, #48]	@ 0x30
10002818:	f47f a8fd 	bne.w	10001a16 <main+0x92e>
1000281c:	90e5      	str	r0, [sp, #916]	@ 0x394
1000281e:	f7ff b8ed 	b.w	100019fc <main+0x914>
10002822:	bf00      	nop
10002824:	f3af 8000 	nop.w
10002828:	1a63c1f8 	.word	0x1a63c1f8
1000282c:	404ca5dc 	.word	0x404ca5dc
10002830:	20002684 	.word	0x20002684
10002834:	3fc90fdb 	.word	0x3fc90fdb
10002838:	bfc90fdb 	.word	0xbfc90fdb
1000283c:	2000263c 	.word	0x2000263c
10002840:	200026ac 	.word	0x200026ac
10002844:	43c80000 	.word	0x43c80000
10002848:	42652ee0 	.word	0x42652ee0
1000284c:	c3c80000 	.word	0xc3c80000
10002850:	20002688 	.word	0x20002688
10002854:	20002640 	.word	0x20002640
10002858:	200026b0 	.word	0x200026b0
1000285c:	400a8000 	.word	0x400a8000
10002860:	400a9000 	.word	0x400a9000
10002864:	39800000 	.word	0x39800000

10002868 <gpio_default_irq_handler>:
10002868:	f04f 4050 	mov.w	r0, #3489660928	@ 0xd0000000
1000286c:	e92d 4ff8 	stmdb	sp!, {r3, r4, r5, r6, r7, r8, r9, sl, fp, lr}
10002870:	496d      	ldr	r1, [pc, #436]	@ (10002a28 <gpio_default_irq_handler+0x1c0>)
10002872:	f8d0 a000 	ldr.w	sl, [r0]
10002876:	4a6d      	ldr	r2, [pc, #436]	@ (10002a2c <gpio_default_irq_handler+0x1c4>)
10002878:	4b6d      	ldr	r3, [pc, #436]	@ (10002a30 <gpio_default_irq_handler+0x1c8>)
1000287a:	f851 702a 	ldr.w	r7, [r1, sl, lsl #2]
1000287e:	f1ba 0f00 	cmp.w	sl, #0
10002882:	bf0c      	ite	eq
10002884:	4690      	moveq	r8, r2
10002886:	4698      	movne	r8, r3
10002888:	b347      	cbz	r7, 100028dc <gpio_default_irq_handler+0x74>
1000288a:	2600      	movs	r6, #0
1000288c:	f8df b1a4 	ldr.w	fp, [pc, #420]	@ 10002a34 <gpio_default_irq_handler+0x1cc>
10002890:	f8df 91a4 	ldr.w	r9, [pc, #420]	@ 10002a38 <gpio_default_irq_handler+0x1d0>
10002894:	08f3      	lsrs	r3, r6, #3
10002896:	330c      	adds	r3, #12
10002898:	f858 5023 	ldr.w	r5, [r8, r3, lsl #2]
1000289c:	4634      	mov	r4, r6
1000289e:	3608      	adds	r6, #8
100028a0:	b1c5      	cbz	r5, 100028d4 <gpio_default_irq_handler+0x6c>
100028a2:	f005 010f 	and.w	r1, r5, #15
100028a6:	092d      	lsrs	r5, r5, #4
100028a8:	b189      	cbz	r1, 100028ce <gpio_default_irq_handler+0x66>
100028aa:	f85b 202a 	ldr.w	r2, [fp, sl, lsl #2]
100028ae:	f004 0307 	and.w	r3, r4, #7
100028b2:	40e2      	lsrs	r2, r4
100028b4:	08e0      	lsrs	r0, r4, #3
100028b6:	009b      	lsls	r3, r3, #2
100028b8:	07d2      	lsls	r2, r2, #31
100028ba:	fa01 f303 	lsl.w	r3, r1, r3
100028be:	f100 0c8c 	add.w	ip, r0, #140	@ 0x8c
100028c2:	d403      	bmi.n	100028cc <gpio_default_irq_handler+0x64>
100028c4:	4620      	mov	r0, r4
100028c6:	f849 302c 	str.w	r3, [r9, ip, lsl #2]
100028ca:	47b8      	blx	r7
100028cc:	b115      	cbz	r5, 100028d4 <gpio_default_irq_handler+0x6c>
100028ce:	3401      	adds	r4, #1
100028d0:	42b4      	cmp	r4, r6
100028d2:	d3e6      	bcc.n	100028a2 <gpio_default_irq_handler+0x3a>
100028d4:	2e20      	cmp	r6, #32
100028d6:	d1dd      	bne.n	10002894 <gpio_default_irq_handler+0x2c>
100028d8:	e8bd 8ff8 	ldmia.w	sp!, {r3, r4, r5, r6, r7, r8, r9, sl, fp, pc}
100028dc:	4d55      	ldr	r5, [pc, #340]	@ (10002a34 <gpio_default_irq_handler+0x1cc>)
100028de:	08fc      	lsrs	r4, r7, #3
100028e0:	f104 030c 	add.w	r3, r4, #12
100028e4:	f858 3023 	ldr.w	r3, [r8, r3, lsl #2]
100028e8:	f107 0008 	add.w	r0, r7, #8
100028ec:	2b00      	cmp	r3, #0
100028ee:	d07c      	beq.n	100029ea <gpio_default_irq_handler+0x182>
100028f0:	f013 060f 	ands.w	r6, r3, #15
100028f4:	ea4f 1213 	mov.w	r2, r3, lsr #4
100028f8:	d00a      	beq.n	10002910 <gpio_default_irq_handler+0xa8>
100028fa:	f855 102a 	ldr.w	r1, [r5, sl, lsl #2]
100028fe:	40f9      	lsrs	r1, r7
10002900:	07c9      	lsls	r1, r1, #31
10002902:	d403      	bmi.n	1000290c <gpio_default_irq_handler+0xa4>
10002904:	494c      	ldr	r1, [pc, #304]	@ (10002a38 <gpio_default_irq_handler+0x1d0>)
10002906:	348c      	adds	r4, #140	@ 0x8c
10002908:	f841 6024 	str.w	r6, [r1, r4, lsl #2]
1000290c:	2a00      	cmp	r2, #0
1000290e:	d06c      	beq.n	100029ea <gpio_default_irq_handler+0x182>
10002910:	f012 020f 	ands.w	r2, r2, #15
10002914:	ea4f 2113 	mov.w	r1, r3, lsr #8
10002918:	d00d      	beq.n	10002936 <gpio_default_irq_handler+0xce>
1000291a:	f855 402a 	ldr.w	r4, [r5, sl, lsl #2]
1000291e:	1c7e      	adds	r6, r7, #1
10002920:	40f4      	lsrs	r4, r6
10002922:	07e4      	lsls	r4, r4, #31
10002924:	d405      	bmi.n	10002932 <gpio_default_irq_handler+0xca>
10002926:	08f4      	lsrs	r4, r6, #3
10002928:	4e43      	ldr	r6, [pc, #268]	@ (10002a38 <gpio_default_irq_handler+0x1d0>)
1000292a:	0112      	lsls	r2, r2, #4
1000292c:	348c      	adds	r4, #140	@ 0x8c
1000292e:	f846 2024 	str.w	r2, [r6, r4, lsl #2]
10002932:	2900      	cmp	r1, #0
10002934:	d059      	beq.n	100029ea <gpio_default_irq_handler+0x182>
10002936:	f011 010f 	ands.w	r1, r1, #15
1000293a:	ea4f 3413 	mov.w	r4, r3, lsr #12
1000293e:	d007      	beq.n	10002950 <gpio_default_irq_handler+0xe8>
10002940:	f855 202a 	ldr.w	r2, [r5, sl, lsl #2]
10002944:	1cbe      	adds	r6, r7, #2
10002946:	40f2      	lsrs	r2, r6
10002948:	07d2      	lsls	r2, r2, #31
1000294a:	d558      	bpl.n	100029fe <gpio_default_irq_handler+0x196>
1000294c:	2c00      	cmp	r4, #0
1000294e:	d04c      	beq.n	100029ea <gpio_default_irq_handler+0x182>
10002950:	f014 040f 	ands.w	r4, r4, #15
10002954:	ea4f 4113 	mov.w	r1, r3, lsr #16
10002958:	d007      	beq.n	1000296a <gpio_default_irq_handler+0x102>
1000295a:	f855 202a 	ldr.w	r2, [r5, sl, lsl #2]
1000295e:	1cfe      	adds	r6, r7, #3
10002960:	40f2      	lsrs	r2, r6
10002962:	07d2      	lsls	r2, r2, #31
10002964:	d552      	bpl.n	10002a0c <gpio_default_irq_handler+0x1a4>
10002966:	2900      	cmp	r1, #0
10002968:	d03f      	beq.n	100029ea <gpio_default_irq_handler+0x182>
1000296a:	f011 010f 	ands.w	r1, r1, #15
1000296e:	ea4f 5213 	mov.w	r2, r3, lsr #20
10002972:	d007      	beq.n	10002984 <gpio_default_irq_handler+0x11c>
10002974:	4c2f      	ldr	r4, [pc, #188]	@ (10002a34 <gpio_default_irq_handler+0x1cc>)
10002976:	f854 602a 	ldr.w	r6, [r4, sl, lsl #2]
1000297a:	1d3c      	adds	r4, r7, #4
1000297c:	40e6      	lsrs	r6, r4
1000297e:	07f6      	lsls	r6, r6, #31
10002980:	d54b      	bpl.n	10002a1a <gpio_default_irq_handler+0x1b2>
10002982:	b392      	cbz	r2, 100029ea <gpio_default_irq_handler+0x182>
10002984:	f012 020f 	ands.w	r2, r2, #15
10002988:	ea4f 6113 	mov.w	r1, r3, lsr #24
1000298c:	d00d      	beq.n	100029aa <gpio_default_irq_handler+0x142>
1000298e:	4c29      	ldr	r4, [pc, #164]	@ (10002a34 <gpio_default_irq_handler+0x1cc>)
10002990:	f854 602a 	ldr.w	r6, [r4, sl, lsl #2]
10002994:	1d7c      	adds	r4, r7, #5
10002996:	40e6      	lsrs	r6, r4
10002998:	07f6      	lsls	r6, r6, #31
1000299a:	d405      	bmi.n	100029a8 <gpio_default_irq_handler+0x140>
1000299c:	4e26      	ldr	r6, [pc, #152]	@ (10002a38 <gpio_default_irq_handler+0x1d0>)
1000299e:	08e4      	lsrs	r4, r4, #3
100029a0:	0512      	lsls	r2, r2, #20
100029a2:	348c      	adds	r4, #140	@ 0x8c
100029a4:	f846 2024 	str.w	r2, [r6, r4, lsl #2]
100029a8:	b1f9      	cbz	r1, 100029ea <gpio_default_irq_handler+0x182>
100029aa:	f011 010f 	ands.w	r1, r1, #15
100029ae:	ea4f 7313 	mov.w	r3, r3, lsr #28
100029b2:	d01f      	beq.n	100029f4 <gpio_default_irq_handler+0x18c>
100029b4:	4c1f      	ldr	r4, [pc, #124]	@ (10002a34 <gpio_default_irq_handler+0x1cc>)
100029b6:	1dbe      	adds	r6, r7, #6
100029b8:	f854 202a 	ldr.w	r2, [r4, sl, lsl #2]
100029bc:	40f2      	lsrs	r2, r6
100029be:	07d2      	lsls	r2, r2, #31
100029c0:	d405      	bmi.n	100029ce <gpio_default_irq_handler+0x166>
100029c2:	08f2      	lsrs	r2, r6, #3
100029c4:	4e1c      	ldr	r6, [pc, #112]	@ (10002a38 <gpio_default_irq_handler+0x1d0>)
100029c6:	0609      	lsls	r1, r1, #24
100029c8:	328c      	adds	r2, #140	@ 0x8c
100029ca:	f846 1022 	str.w	r1, [r6, r2, lsl #2]
100029ce:	b163      	cbz	r3, 100029ea <gpio_default_irq_handler+0x182>
100029d0:	3707      	adds	r7, #7
100029d2:	f854 202a 	ldr.w	r2, [r4, sl, lsl #2]
100029d6:	40fa      	lsrs	r2, r7
100029d8:	07d1      	lsls	r1, r2, #31
100029da:	d406      	bmi.n	100029ea <gpio_default_irq_handler+0x182>
100029dc:	4916      	ldr	r1, [pc, #88]	@ (10002a38 <gpio_default_irq_handler+0x1d0>)
100029de:	08ff      	lsrs	r7, r7, #3
100029e0:	071b      	lsls	r3, r3, #28
100029e2:	f107 028c 	add.w	r2, r7, #140	@ 0x8c
100029e6:	f841 3022 	str.w	r3, [r1, r2, lsl #2]
100029ea:	2820      	cmp	r0, #32
100029ec:	f43f af74 	beq.w	100028d8 <gpio_default_irq_handler+0x70>
100029f0:	4607      	mov	r7, r0
100029f2:	e774      	b.n	100028de <gpio_default_irq_handler+0x76>
100029f4:	2b00      	cmp	r3, #0
100029f6:	d0f8      	beq.n	100029ea <gpio_default_irq_handler+0x182>
100029f8:	4c0e      	ldr	r4, [pc, #56]	@ (10002a34 <gpio_default_irq_handler+0x1cc>)
100029fa:	3707      	adds	r7, #7
100029fc:	e7e9      	b.n	100029d2 <gpio_default_irq_handler+0x16a>
100029fe:	08f2      	lsrs	r2, r6, #3
10002a00:	4e0d      	ldr	r6, [pc, #52]	@ (10002a38 <gpio_default_irq_handler+0x1d0>)
10002a02:	0209      	lsls	r1, r1, #8
10002a04:	328c      	adds	r2, #140	@ 0x8c
10002a06:	f846 1022 	str.w	r1, [r6, r2, lsl #2]
10002a0a:	e79f      	b.n	1000294c <gpio_default_irq_handler+0xe4>
10002a0c:	08f2      	lsrs	r2, r6, #3
10002a0e:	4e0a      	ldr	r6, [pc, #40]	@ (10002a38 <gpio_default_irq_handler+0x1d0>)
10002a10:	0324      	lsls	r4, r4, #12
10002a12:	328c      	adds	r2, #140	@ 0x8c
10002a14:	f846 4022 	str.w	r4, [r6, r2, lsl #2]
10002a18:	e7a5      	b.n	10002966 <gpio_default_irq_handler+0xfe>
10002a1a:	4e07      	ldr	r6, [pc, #28]	@ (10002a38 <gpio_default_irq_handler+0x1d0>)
10002a1c:	08e4      	lsrs	r4, r4, #3
10002a1e:	0409      	lsls	r1, r1, #16
10002a20:	348c      	adds	r4, #140	@ 0x8c
10002a22:	f846 1024 	str.w	r1, [r6, r4, lsl #2]
10002a26:	e7ac      	b.n	10002982 <gpio_default_irq_handler+0x11a>
10002a28:	2000219c 	.word	0x2000219c
10002a2c:	40028248 	.word	0x40028248
10002a30:	40028290 	.word	0x40028290
10002a34:	20002664 	.word	0x20002664
10002a38:	40028000 	.word	0x40028000

10002a3c <gpio_set_function>:
10002a3c:	f44f 7c80 	mov.w	ip, #256	@ 0x100
10002a40:	4b0c      	ldr	r3, [pc, #48]	@ (10002a74 <gpio_set_function+0x38>)
10002a42:	b500      	push	{lr}
10002a44:	f853 2020 	ldr.w	r2, [r3, r0, lsl #2]
10002a48:	eb03 0380 	add.w	r3, r3, r0, lsl #2
10002a4c:	00c0      	lsls	r0, r0, #3
10002a4e:	f082 0240 	eor.w	r2, r2, #64	@ 0x40
10002a52:	f100 4080 	add.w	r0, r0, #1073741824	@ 0x40000000
10002a56:	f503 5e80 	add.w	lr, r3, #4096	@ 0x1000
10002a5a:	f002 02c0 	and.w	r2, r2, #192	@ 0xc0
10002a5e:	f500 3020 	add.w	r0, r0, #163840	@ 0x28000
10002a62:	f503 5340 	add.w	r3, r3, #12288	@ 0x3000
10002a66:	f8ce 2000 	str.w	r2, [lr]
10002a6a:	6041      	str	r1, [r0, #4]
10002a6c:	f8c3 c000 	str.w	ip, [r3]
10002a70:	bd00      	pop	{pc}
10002a72:	bf00      	nop
10002a74:	40038004 	.word	0x40038004

10002a78 <gpio_set_pulls>:
10002a78:	f8df c01c 	ldr.w	ip, [pc, #28]	@ 10002a98 <gpio_set_pulls+0x20>
10002a7c:	00c9      	lsls	r1, r1, #3
10002a7e:	eb0c 0380 	add.w	r3, ip, r0, lsl #2
10002a82:	f85c 0020 	ldr.w	r0, [ip, r0, lsl #2]
10002a86:	ea41 0182 	orr.w	r1, r1, r2, lsl #2
10002a8a:	4041      	eors	r1, r0
10002a8c:	f001 010c 	and.w	r1, r1, #12
10002a90:	f503 5380 	add.w	r3, r3, #4096	@ 0x1000
10002a94:	6019      	str	r1, [r3, #0]
10002a96:	4770      	bx	lr
10002a98:	40038004 	.word	0x40038004

10002a9c <gpio_set_irq_enabled_with_callback>:
10002a9c:	e92d 41f0 	stmdb	sp!, {r4, r5, r6, r7, r8, lr}
10002aa0:	f04f 4650 	mov.w	r6, #3489660928	@ 0xd0000000
10002aa4:	4690      	mov	r8, r2
10002aa6:	461d      	mov	r5, r3
10002aa8:	6832      	ldr	r2, [r6, #0]
10002aaa:	4b23      	ldr	r3, [pc, #140]	@ (10002b38 <gpio_set_irq_enabled_with_callback+0x9c>)
10002aac:	460f      	mov	r7, r1
10002aae:	f853 1022 	ldr.w	r1, [r3, r2, lsl #2]
10002ab2:	4604      	mov	r4, r0
10002ab4:	b082      	sub	sp, #8
10002ab6:	b349      	cbz	r1, 10002b0c <gpio_set_irq_enabled_with_callback+0x70>
10002ab8:	2d00      	cmp	r5, #0
10002aba:	d033      	beq.n	10002b24 <gpio_set_irq_enabled_with_callback+0x88>
10002abc:	4611      	mov	r1, r2
10002abe:	f843 5022 	str.w	r5, [r3, r2, lsl #2]
10002ac2:	4a1e      	ldr	r2, [pc, #120]	@ (10002b3c <gpio_set_irq_enabled_with_callback+0xa0>)
10002ac4:	4b1e      	ldr	r3, [pc, #120]	@ (10002b40 <gpio_set_irq_enabled_with_callback+0xa4>)
10002ac6:	481f      	ldr	r0, [pc, #124]	@ (10002b44 <gpio_set_irq_enabled_with_callback+0xa8>)
10002ac8:	2900      	cmp	r1, #0
10002aca:	bf18      	it	ne
10002acc:	4613      	movne	r3, r2
10002ace:	08e1      	lsrs	r1, r4, #3
10002ad0:	f004 0407 	and.w	r4, r4, #7
10002ad4:	00a4      	lsls	r4, r4, #2
10002ad6:	fa07 f204 	lsl.w	r2, r7, r4
10002ada:	f101 048c 	add.w	r4, r1, #140	@ 0x8c
10002ade:	f840 2024 	str.w	r2, [r0, r4, lsl #2]
10002ae2:	eb03 0381 	add.w	r3, r3, r1, lsl #2
10002ae6:	f1b8 0f00 	cmp.w	r8, #0
10002aea:	d009      	beq.n	10002b00 <gpio_set_irq_enabled_with_callback+0x64>
10002aec:	2101      	movs	r1, #1
10002aee:	2015      	movs	r0, #21
10002af0:	f503 5300 	add.w	r3, r3, #8192	@ 0x2000
10002af4:	601a      	str	r2, [r3, #0]
10002af6:	b002      	add	sp, #8
10002af8:	e8bd 41f0 	ldmia.w	sp!, {r4, r5, r6, r7, r8, lr}
10002afc:	f000 b940 	b.w	10002d80 <irq_set_enabled>
10002b00:	f503 5340 	add.w	r3, r3, #12288	@ 0x3000
10002b04:	601a      	str	r2, [r3, #0]
10002b06:	b002      	add	sp, #8
10002b08:	e8bd 81f0 	ldmia.w	sp!, {r4, r5, r6, r7, r8, pc}
10002b0c:	b145      	cbz	r5, 10002b20 <gpio_set_irq_enabled_with_callback+0x84>
10002b0e:	f843 5022 	str.w	r5, [r3, r2, lsl #2]
10002b12:	2015      	movs	r0, #21
10002b14:	460a      	mov	r2, r1
10002b16:	490c      	ldr	r1, [pc, #48]	@ (10002b48 <gpio_set_irq_enabled_with_callback+0xac>)
10002b18:	f000 f9ac 	bl	10002e74 <irq_add_shared_handler>
10002b1c:	6831      	ldr	r1, [r6, #0]
10002b1e:	e7d0      	b.n	10002ac2 <gpio_set_irq_enabled_with_callback+0x26>
10002b20:	4611      	mov	r1, r2
10002b22:	e7ce      	b.n	10002ac2 <gpio_set_irq_enabled_with_callback+0x26>
10002b24:	4908      	ldr	r1, [pc, #32]	@ (10002b48 <gpio_set_irq_enabled_with_callback+0xac>)
10002b26:	2015      	movs	r0, #21
10002b28:	9201      	str	r2, [sp, #4]
10002b2a:	f000 fa9f 	bl	1000306c <irq_remove_handler>
10002b2e:	6831      	ldr	r1, [r6, #0]
10002b30:	9a01      	ldr	r2, [sp, #4]
10002b32:	4b01      	ldr	r3, [pc, #4]	@ (10002b38 <gpio_set_irq_enabled_with_callback+0x9c>)
10002b34:	e7c3      	b.n	10002abe <gpio_set_irq_enabled_with_callback+0x22>
10002b36:	bf00      	nop
10002b38:	2000219c 	.word	0x2000219c
10002b3c:	40028290 	.word	0x40028290
10002b40:	40028248 	.word	0x40028248
10002b44:	40028000 	.word	0x40028000
10002b48:	10002869 	.word	0x10002869

10002b4c <gpio_init>:
10002b4c:	f04f 0300 	mov.w	r3, #0
10002b50:	b500      	push	{lr}
10002b52:	ec43 0044 	gpioc_bit_oe_put r0, r3
10002b56:	ec43 0040 	gpioc_bit_out_put r0, r3
10002b5a:	f04f 0e05 	mov.w	lr, #5
10002b5e:	f44f 7c80 	mov.w	ip, #256	@ 0x100
10002b62:	4b0c      	ldr	r3, [pc, #48]	@ (10002b94 <gpio_init+0x48>)
10002b64:	00c2      	lsls	r2, r0, #3
10002b66:	f853 1020 	ldr.w	r1, [r3, r0, lsl #2]
10002b6a:	f102 4280 	add.w	r2, r2, #1073741824	@ 0x40000000
10002b6e:	eb03 0380 	add.w	r3, r3, r0, lsl #2
10002b72:	f081 0140 	eor.w	r1, r1, #64	@ 0x40
10002b76:	f503 5080 	add.w	r0, r3, #4096	@ 0x1000
10002b7a:	f001 01c0 	and.w	r1, r1, #192	@ 0xc0
10002b7e:	f502 3220 	add.w	r2, r2, #163840	@ 0x28000
10002b82:	f503 5340 	add.w	r3, r3, #12288	@ 0x3000
10002b86:	6001      	str	r1, [r0, #0]
10002b88:	f8c2 e004 	str.w	lr, [r2, #4]
10002b8c:	f8c3 c000 	str.w	ip, [r3]
10002b90:	bd00      	pop	{pc}
10002b92:	bf00      	nop
10002b94:	40038004 	.word	0x40038004

10002b98 <panic>:
10002b98:	b40f      	push	{r0, r1, r2, r3}
10002b9a:	b500      	push	{lr}
10002b9c:	4808      	ldr	r0, [pc, #32]	@ (10002bc0 <panic+0x28>)
10002b9e:	b083      	sub	sp, #12
10002ba0:	f003 fd44 	bl	1000662c <__wrap_puts>
10002ba4:	9b04      	ldr	r3, [sp, #16]
10002ba6:	b13b      	cbz	r3, 10002bb8 <panic+0x20>
10002ba8:	a905      	add	r1, sp, #20
10002baa:	4618      	mov	r0, r3
10002bac:	9101      	str	r1, [sp, #4]
10002bae:	f003 fba9 	bl	10006304 <weak_raw_vprintf>
10002bb2:	4804      	ldr	r0, [pc, #16]	@ (10002bc4 <panic+0x2c>)
10002bb4:	f003 fd3a 	bl	1000662c <__wrap_puts>
10002bb8:	2001      	movs	r0, #1
10002bba:	f003 fbbb 	bl	10006334 <_exit>
10002bbe:	bf00      	nop
10002bc0:	1000991c 	.word	0x1000991c
10002bc4:	1000992c 	.word	0x1000992c

10002bc8 <hw_claim_lock>:
10002bc8:	f3ef 8010 	mrs	r0, PRIMASK
10002bcc:	b672      	cpsid	i
10002bce:	4b06      	ldr	r3, [pc, #24]	@ (10002be8 <hw_claim_lock+0x20>)
10002bd0:	e8d3 1fcf 	ldaexb	r1, [r3]
10002bd4:	2201      	movs	r2, #1
10002bd6:	2900      	cmp	r1, #0
10002bd8:	d1fa      	bne.n	10002bd0 <hw_claim_lock+0x8>
10002bda:	e8c3 2f41 	strexb	r1, r2, [r3]
10002bde:	2900      	cmp	r1, #0
10002be0:	d1f6      	bne.n	10002bd0 <hw_claim_lock+0x8>
10002be2:	f3bf 8f5f 	dmb	sy
10002be6:	4770      	bx	lr
10002be8:	20001d87 	.word	0x20001d87

10002bec <hw_claim_unlock>:
10002bec:	2300      	movs	r3, #0
10002bee:	4a03      	ldr	r2, [pc, #12]	@ (10002bfc <hw_claim_unlock+0x10>)
10002bf0:	e8c2 3f8f 	stlb	r3, [r2]
10002bf4:	f380 8810 	msr	PRIMASK, r0
10002bf8:	4770      	bx	lr
10002bfa:	bf00      	nop
10002bfc:	20001d87 	.word	0x20001d87

10002c00 <hw_claim_or_assert>:
10002c00:	b570      	push	{r4, r5, r6, lr}
10002c02:	4616      	mov	r6, r2
10002c04:	f3ef 8410 	mrs	r4, PRIMASK
10002c08:	b672      	cpsid	i
10002c0a:	f8df e048 	ldr.w	lr, [pc, #72]	@ 10002c54 <hw_claim_or_assert+0x54>
10002c0e:	e8de 2fcf 	ldaexb	r2, [lr]
10002c12:	2301      	movs	r3, #1
10002c14:	2a00      	cmp	r2, #0
10002c16:	d1fa      	bne.n	10002c0e <hw_claim_or_assert+0xe>
10002c18:	e8ce 3f42 	strexb	r2, r3, [lr]
10002c1c:	2a00      	cmp	r2, #0
10002c1e:	d1f6      	bne.n	10002c0e <hw_claim_or_assert+0xe>
10002c20:	f3bf 8f5f 	dmb	sy
10002c24:	2301      	movs	r3, #1
10002c26:	f001 0c07 	and.w	ip, r1, #7
10002c2a:	08ca      	lsrs	r2, r1, #3
10002c2c:	fa03 f30c 	lsl.w	r3, r3, ip
10002c30:	f810 c002 	ldrb.w	ip, [r0, r2]
10002c34:	ea1c 0503 	ands.w	r5, ip, r3
10002c38:	d108      	bne.n	10002c4c <hw_claim_or_assert+0x4c>
10002c3a:	ea4c 0c03 	orr.w	ip, ip, r3
10002c3e:	f800 c002 	strb.w	ip, [r0, r2]
10002c42:	e8ce 5f8f 	stlb	r5, [lr]
10002c46:	f384 8810 	msr	PRIMASK, r4
10002c4a:	bd70      	pop	{r4, r5, r6, pc}
10002c4c:	4630      	mov	r0, r6
10002c4e:	f7ff ffa3 	bl	10002b98 <panic>
10002c52:	bf00      	nop
10002c54:	20001d87 	.word	0x20001d87

10002c58 <hw_claim_unused_from_range>:
10002c58:	b5f8      	push	{r3, r4, r5, r6, r7, lr}
10002c5a:	460f      	mov	r7, r1
10002c5c:	4619      	mov	r1, r3
10002c5e:	f3ef 8610 	mrs	r6, PRIMASK
10002c62:	b672      	cpsid	i
10002c64:	4d1c      	ldr	r5, [pc, #112]	@ (10002cd8 <hw_claim_unused_from_range+0x80>)
10002c66:	e8d5 4fcf 	ldaexb	r4, [r5]
10002c6a:	2301      	movs	r3, #1
10002c6c:	2c00      	cmp	r4, #0
10002c6e:	d1fa      	bne.n	10002c66 <hw_claim_unused_from_range+0xe>
10002c70:	e8c5 3f44 	strexb	r4, r3, [r5]
10002c74:	2c00      	cmp	r4, #0
10002c76:	d1f6      	bne.n	10002c66 <hw_claim_unused_from_range+0xe>
10002c78:	f3bf 8f5f 	dmb	sy
10002c7c:	428a      	cmp	r2, r1
10002c7e:	d81b      	bhi.n	10002cb8 <hw_claim_unused_from_range+0x60>
10002c80:	2401      	movs	r4, #1
10002c82:	e002      	b.n	10002c8a <hw_claim_unused_from_range+0x32>
10002c84:	3201      	adds	r2, #1
10002c86:	4291      	cmp	r1, r2
10002c88:	d322      	bcc.n	10002cd0 <hw_claim_unused_from_range+0x78>
10002c8a:	08d3      	lsrs	r3, r2, #3
10002c8c:	f810 e003 	ldrb.w	lr, [r0, r3]
10002c90:	f002 0c07 	and.w	ip, r2, #7
10002c94:	fa04 fc0c 	lsl.w	ip, r4, ip
10002c98:	ea1e 0f0c 	tst.w	lr, ip
10002c9c:	d1f2      	bne.n	10002c84 <hw_claim_unused_from_range+0x2c>
10002c9e:	ea4e 0e0c 	orr.w	lr, lr, ip
10002ca2:	f800 e003 	strb.w	lr, [r0, r3]
10002ca6:	4610      	mov	r0, r2
10002ca8:	2300      	movs	r3, #0
10002caa:	e8c5 3f8f 	stlb	r3, [r5]
10002cae:	f386 8810 	msr	PRIMASK, r6
10002cb2:	4298      	cmp	r0, r3
10002cb4:	db07      	blt.n	10002cc6 <hw_claim_unused_from_range+0x6e>
10002cb6:	bdf8      	pop	{r3, r4, r5, r6, r7, pc}
10002cb8:	2300      	movs	r3, #0
10002cba:	e8c5 3f8f 	stlb	r3, [r5]
10002cbe:	f386 8810 	msr	PRIMASK, r6
10002cc2:	f04f 30ff 	mov.w	r0, #4294967295	@ 0xffffffff
10002cc6:	2f00      	cmp	r7, #0
10002cc8:	d0f5      	beq.n	10002cb6 <hw_claim_unused_from_range+0x5e>
10002cca:	9806      	ldr	r0, [sp, #24]
10002ccc:	f7ff ff64 	bl	10002b98 <panic>
10002cd0:	f04f 30ff 	mov.w	r0, #4294967295	@ 0xffffffff
10002cd4:	e7e8      	b.n	10002ca8 <hw_claim_unused_from_range+0x50>
10002cd6:	bf00      	nop
10002cd8:	20001d87 	.word	0x20001d87

10002cdc <next_striped_spin_lock_num>:
10002cdc:	4a04      	ldr	r2, [pc, #16]	@ (10002cf0 <next_striped_spin_lock_num+0x14>)
10002cde:	7810      	ldrb	r0, [r2, #0]
10002ce0:	1c43      	adds	r3, r0, #1
10002ce2:	b2db      	uxtb	r3, r3
10002ce4:	2b18      	cmp	r3, #24
10002ce6:	bf28      	it	cs
10002ce8:	2310      	movcs	r3, #16
10002cea:	7013      	strb	r3, [r2, #0]
10002cec:	4770      	bx	lr
10002cee:	bf00      	nop
10002cf0:	2000159c 	.word	0x2000159c

10002cf4 <spin_lock_claim_unused>:
10002cf4:	b500      	push	{lr}
10002cf6:	f8df c01c 	ldr.w	ip, [pc, #28]	@ 10002d14 <spin_lock_claim_unused+0x20>
10002cfa:	b083      	sub	sp, #12
10002cfc:	4601      	mov	r1, r0
10002cfe:	231f      	movs	r3, #31
10002d00:	2218      	movs	r2, #24
10002d02:	f8cd c000 	str.w	ip, [sp]
10002d06:	4802      	ldr	r0, [pc, #8]	@ (10002d10 <spin_lock_claim_unused+0x1c>)
10002d08:	f7ff ffa6 	bl	10002c58 <hw_claim_unused_from_range>
10002d0c:	b003      	add	sp, #12
10002d0e:	bd00      	pop	{pc}
10002d10:	200021ac 	.word	0x200021ac
10002d14:	10009930 	.word	0x10009930

10002d18 <spinlock_set_extexclall>:
10002d18:	f04f 22e0 	mov.w	r2, #3758153728	@ 0xe000e000
10002d1c:	6893      	ldr	r3, [r2, #8]
10002d1e:	f043 5300 	orr.w	r3, r3, #536870912	@ 0x20000000
10002d22:	6093      	str	r3, [r2, #8]
10002d24:	4770      	bx	lr
10002d26:	bf00      	nop

10002d28 <spin_locks_reset>:
10002d28:	2100      	movs	r1, #0
10002d2a:	4b04      	ldr	r3, [pc, #16]	@ (10002d3c <spin_locks_reset+0x14>)
10002d2c:	f103 0220 	add.w	r2, r3, #32
10002d30:	e8c3 1f8f 	stlb	r1, [r3]
10002d34:	3301      	adds	r3, #1
10002d36:	4293      	cmp	r3, r2
10002d38:	d1fa      	bne.n	10002d30 <spin_locks_reset+0x8>
10002d3a:	4770      	bx	lr
10002d3c:	20001d7c 	.word	0x20001d7c

10002d40 <runtime_init_per_core_irq_priorities>:
10002d40:	f04f 23e0 	mov.w	r3, #3758153728	@ 0xe000e000
10002d44:	f04f 3280 	mov.w	r2, #2155905152	@ 0x80808080
10002d48:	f8c3 2400 	str.w	r2, [r3, #1024]	@ 0x400
10002d4c:	f8c3 2404 	str.w	r2, [r3, #1028]	@ 0x404
10002d50:	f8c3 2408 	str.w	r2, [r3, #1032]	@ 0x408
10002d54:	f8c3 240c 	str.w	r2, [r3, #1036]	@ 0x40c
10002d58:	f8c3 2410 	str.w	r2, [r3, #1040]	@ 0x410
10002d5c:	f8c3 2414 	str.w	r2, [r3, #1044]	@ 0x414
10002d60:	f8c3 2418 	str.w	r2, [r3, #1048]	@ 0x418
10002d64:	f8c3 241c 	str.w	r2, [r3, #1052]	@ 0x41c
10002d68:	f8c3 2420 	str.w	r2, [r3, #1056]	@ 0x420
10002d6c:	f8c3 2424 	str.w	r2, [r3, #1060]	@ 0x424
10002d70:	f8c3 2428 	str.w	r2, [r3, #1064]	@ 0x428
10002d74:	f8c3 242c 	str.w	r2, [r3, #1068]	@ 0x42c
10002d78:	f8c3 2430 	str.w	r2, [r3, #1072]	@ 0x430
10002d7c:	b662      	cpsie	i
10002d7e:	4770      	bx	lr

10002d80 <irq_set_enabled>:
10002d80:	2301      	movs	r3, #1
10002d82:	f000 021f 	and.w	r2, r0, #31
10002d86:	4093      	lsls	r3, r2
10002d88:	0940      	lsrs	r0, r0, #5
10002d8a:	b141      	cbz	r1, 10002d9e <irq_set_enabled+0x1e>
10002d8c:	0080      	lsls	r0, r0, #2
10002d8e:	f100 4060 	add.w	r0, r0, #3758096384	@ 0xe0000000
10002d92:	f500 4061 	add.w	r0, r0, #57600	@ 0xe100
10002d96:	f8c0 3180 	str.w	r3, [r0, #384]	@ 0x180
10002d9a:	6003      	str	r3, [r0, #0]
10002d9c:	4770      	bx	lr
10002d9e:	4a02      	ldr	r2, [pc, #8]	@ (10002da8 <irq_set_enabled+0x28>)
10002da0:	3020      	adds	r0, #32
10002da2:	f842 3020 	str.w	r3, [r2, r0, lsl #2]
10002da6:	4770      	bx	lr
10002da8:	e000e100 	.word	0xe000e100

10002dac <irq_is_enabled>:
10002dac:	2301      	movs	r3, #1
10002dae:	4a06      	ldr	r2, [pc, #24]	@ (10002dc8 <irq_is_enabled+0x1c>)
10002db0:	0941      	lsrs	r1, r0, #5
10002db2:	f852 2021 	ldr.w	r2, [r2, r1, lsl #2]
10002db6:	f000 001f 	and.w	r0, r0, #31
10002dba:	4083      	lsls	r3, r0
10002dbc:	4213      	tst	r3, r2
10002dbe:	bf14      	ite	ne
10002dc0:	2001      	movne	r0, #1
10002dc2:	2000      	moveq	r0, #0
10002dc4:	4770      	bx	lr
10002dc6:	bf00      	nop
10002dc8:	e000e100 	.word	0xe000e100

10002dcc <irq_set_pending>:
10002dcc:	2201      	movs	r2, #1
10002dce:	0943      	lsrs	r3, r0, #5
10002dd0:	4903      	ldr	r1, [pc, #12]	@ (10002de0 <irq_set_pending+0x14>)
10002dd2:	f000 001f 	and.w	r0, r0, #31
10002dd6:	4082      	lsls	r2, r0
10002dd8:	3340      	adds	r3, #64	@ 0x40
10002dda:	f841 2023 	str.w	r2, [r1, r3, lsl #2]
10002dde:	4770      	bx	lr
10002de0:	e000e100 	.word	0xe000e100

10002de4 <irq_has_shared_handler>:
10002de4:	4a05      	ldr	r2, [pc, #20]	@ (10002dfc <irq_has_shared_handler+0x18>)
10002de6:	3010      	adds	r0, #16
10002de8:	6892      	ldr	r2, [r2, #8]
10002dea:	4b05      	ldr	r3, [pc, #20]	@ (10002e00 <irq_has_shared_handler+0x1c>)
10002dec:	f852 0020 	ldr.w	r0, [r2, r0, lsl #2]
10002df0:	1ac0      	subs	r0, r0, r3
10002df2:	282f      	cmp	r0, #47	@ 0x2f
10002df4:	bf8c      	ite	hi
10002df6:	2000      	movhi	r0, #0
10002df8:	2001      	movls	r0, #1
10002dfa:	4770      	bx	lr
10002dfc:	e000ed00 	.word	0xe000ed00
10002e00:	200015a0 	.word	0x200015a0

10002e04 <irq_set_exclusive_handler>:
10002e04:	b510      	push	{r4, lr}
10002e06:	b082      	sub	sp, #8
10002e08:	f3ef 8410 	mrs	r4, PRIMASK
10002e0c:	b672      	cpsid	i
10002e0e:	4b16      	ldr	r3, [pc, #88]	@ (10002e68 <irq_set_exclusive_handler+0x64>)
10002e10:	e8d3 cfcf 	ldaexb	ip, [r3]
10002e14:	2201      	movs	r2, #1
10002e16:	f1bc 0f00 	cmp.w	ip, #0
10002e1a:	d1f9      	bne.n	10002e10 <irq_set_exclusive_handler+0xc>
10002e1c:	e8c3 2f4c 	strexb	ip, r2, [r3]
10002e20:	f1bc 0f00 	cmp.w	ip, #0
10002e24:	d1f4      	bne.n	10002e10 <irq_set_exclusive_handler+0xc>
10002e26:	f3bf 8f5f 	dmb	sy
10002e2a:	4a10      	ldr	r2, [pc, #64]	@ (10002e6c <irq_set_exclusive_handler+0x68>)
10002e2c:	3010      	adds	r0, #16
10002e2e:	6892      	ldr	r2, [r2, #8]
10002e30:	f8df c03c 	ldr.w	ip, [pc, #60]	@ 10002e70 <irq_set_exclusive_handler+0x6c>
10002e34:	f852 2020 	ldr.w	r2, [r2, r0, lsl #2]
10002e38:	4562      	cmp	r2, ip
10002e3a:	d008      	beq.n	10002e4e <irq_set_exclusive_handler+0x4a>
10002e3c:	4291      	cmp	r1, r2
10002e3e:	d006      	beq.n	10002e4e <irq_set_exclusive_handler+0x4a>
10002e40:	e9cd 0100 	strd	r0, r1, [sp]
10002e44:	f001 fa36 	bl	100042b4 <hard_assertion_failure>
10002e48:	9901      	ldr	r1, [sp, #4]
10002e4a:	4b07      	ldr	r3, [pc, #28]	@ (10002e68 <irq_set_exclusive_handler+0x64>)
10002e4c:	9800      	ldr	r0, [sp, #0]
10002e4e:	4a07      	ldr	r2, [pc, #28]	@ (10002e6c <irq_set_exclusive_handler+0x68>)
10002e50:	6892      	ldr	r2, [r2, #8]
10002e52:	f842 1020 	str.w	r1, [r2, r0, lsl #2]
10002e56:	f3bf 8f5f 	dmb	sy
10002e5a:	2200      	movs	r2, #0
10002e5c:	e8c3 2f8f 	stlb	r2, [r3]
10002e60:	f384 8810 	msr	PRIMASK, r4
10002e64:	b002      	add	sp, #8
10002e66:	bd10      	pop	{r4, pc}
10002e68:	20001d85 	.word	0x20001d85
10002e6c:	e000ed00 	.word	0xe000ed00
10002e70:	10000111 	.word	0x10000111

10002e74 <irq_add_shared_handler>:
10002e74:	e92d 4ff0 	stmdb	sp!, {r4, r5, r6, r7, r8, r9, sl, fp, lr}
10002e78:	4606      	mov	r6, r0
10002e7a:	4689      	mov	r9, r1
10002e7c:	4615      	mov	r5, r2
10002e7e:	b083      	sub	sp, #12
10002e80:	f3ef 8810 	mrs	r8, PRIMASK
10002e84:	b672      	cpsid	i
10002e86:	4f72      	ldr	r7, [pc, #456]	@ (10003050 <irq_add_shared_handler+0x1dc>)
10002e88:	e8d7 2fcf 	ldaexb	r2, [r7]
10002e8c:	2301      	movs	r3, #1
10002e8e:	2a00      	cmp	r2, #0
10002e90:	d1fa      	bne.n	10002e88 <irq_add_shared_handler+0x14>
10002e92:	e8c7 3f42 	strexb	r2, r3, [r7]
10002e96:	2a00      	cmp	r2, #0
10002e98:	d1f6      	bne.n	10002e88 <irq_add_shared_handler+0x14>
10002e9a:	f3bf 8f5f 	dmb	sy
10002e9e:	496d      	ldr	r1, [pc, #436]	@ (10003054 <irq_add_shared_handler+0x1e0>)
10002ea0:	f991 2000 	ldrsb.w	r2, [r1]
10002ea4:	2a00      	cmp	r2, #0
10002ea6:	db7b      	blt.n	10002fa0 <irq_add_shared_handler+0x12c>
10002ea8:	486b      	ldr	r0, [pc, #428]	@ (10003058 <irq_add_shared_handler+0x1e4>)
10002eaa:	eb02 0442 	add.w	r4, r2, r2, lsl #1
10002eae:	eb00 0384 	add.w	r3, r0, r4, lsl #2
10002eb2:	f893 c006 	ldrb.w	ip, [r3, #6]
10002eb6:	3610      	adds	r6, #16
10002eb8:	f881 c000 	strb.w	ip, [r1]
10002ebc:	4967      	ldr	r1, [pc, #412]	@ (1000305c <irq_add_shared_handler+0x1e8>)
10002ebe:	00a4      	lsls	r4, r4, #2
10002ec0:	6889      	ldr	r1, [r1, #8]
10002ec2:	ea4f 0a42 	mov.w	sl, r2, lsl #1
10002ec6:	f851 e026 	ldr.w	lr, [r1, r6, lsl #2]
10002eca:	ebae 0100 	sub.w	r1, lr, r0
10002ece:	292f      	cmp	r1, #47	@ 0x2f
10002ed0:	d92e      	bls.n	10002f30 <irq_add_shared_handler+0xbc>
10002ed2:	4963      	ldr	r1, [pc, #396]	@ (10003060 <irq_add_shared_handler+0x1ec>)
10002ed4:	458e      	cmp	lr, r1
10002ed6:	f040 8085 	bne.w	10002fe4 <irq_add_shared_handler+0x170>
10002eda:	f043 0e01 	orr.w	lr, r3, #1
10002ede:	4b61      	ldr	r3, [pc, #388]	@ (10003064 <irq_add_shared_handler+0x1f0>)
10002ee0:	3402      	adds	r4, #2
10002ee2:	4404      	add	r4, r0
10002ee4:	3b04      	subs	r3, #4
10002ee6:	1b1b      	subs	r3, r3, r4
10002ee8:	f3c3 034a 	ubfx	r3, r3, #1, #11
10002eec:	ea6f 43c3 	mvn.w	r3, r3, lsl #19
10002ef0:	f44f 4121 	mov.w	r1, #41216	@ 0xa100
10002ef4:	ea6f 43d3 	mvn.w	r3, r3, lsr #19
10002ef8:	4452      	add	r2, sl
10002efa:	f820 1022 	strh.w	r1, [r0, r2, lsl #2]
10002efe:	eb00 0282 	add.w	r2, r0, r2, lsl #2
10002f02:	8053      	strh	r3, [r2, #2]
10002f04:	f64b 5301 	movw	r3, #48385	@ 0xbd01
10002f08:	8093      	strh	r3, [r2, #4]
10002f0a:	23ff      	movs	r3, #255	@ 0xff
10002f0c:	71d5      	strb	r5, [r2, #7]
10002f0e:	f8c2 9008 	str.w	r9, [r2, #8]
10002f12:	7193      	strb	r3, [r2, #6]
10002f14:	4b51      	ldr	r3, [pc, #324]	@ (1000305c <irq_add_shared_handler+0x1e8>)
10002f16:	689b      	ldr	r3, [r3, #8]
10002f18:	f843 e026 	str.w	lr, [r3, r6, lsl #2]
10002f1c:	f3bf 8f5f 	dmb	sy
10002f20:	2300      	movs	r3, #0
10002f22:	e8c7 3f8f 	stlb	r3, [r7]
10002f26:	f388 8810 	msr	PRIMASK, r8
10002f2a:	b003      	add	sp, #12
10002f2c:	e8bd 8ff0 	ldmia.w	sp!, {r4, r5, r6, r7, r8, r9, sl, fp, pc}
10002f30:	f02e 0c01 	bic.w	ip, lr, #1
10002f34:	f89c 1007 	ldrb.w	r1, [ip, #7]
10002f38:	42a9      	cmp	r1, r5
10002f3a:	d95b      	bls.n	10002ff4 <irq_add_shared_handler+0x180>
10002f3c:	46b3      	mov	fp, r6
10002f3e:	9401      	str	r4, [sp, #4]
10002f40:	461e      	mov	r6, r3
10002f42:	e003      	b.n	10002f4c <irq_add_shared_handler+0xd8>
10002f44:	79cb      	ldrb	r3, [r1, #7]
10002f46:	42ab      	cmp	r3, r5
10002f48:	d930      	bls.n	10002fac <irq_add_shared_handler+0x138>
10002f4a:	468c      	mov	ip, r1
10002f4c:	f99c 4006 	ldrsb.w	r4, [ip, #6]
10002f50:	eb04 0144 	add.w	r1, r4, r4, lsl #1
10002f54:	2c00      	cmp	r4, #0
10002f56:	eb00 0181 	add.w	r1, r0, r1, lsl #2
10002f5a:	daf3      	bge.n	10002f44 <irq_add_shared_handler+0xd0>
10002f5c:	9400      	str	r4, [sp, #0]
10002f5e:	f64b 5401 	movw	r4, #48385	@ 0xbd01
10002f62:	4633      	mov	r3, r6
10002f64:	465e      	mov	r6, fp
10002f66:	f10c 0b04 	add.w	fp, ip, #4
10002f6a:	3b04      	subs	r3, #4
10002f6c:	eba3 030b 	sub.w	r3, r3, fp
10002f70:	f3c3 034a 	ubfx	r3, r3, #1, #11
10002f74:	ea6f 43c3 	mvn.w	r3, r3, lsl #19
10002f78:	ea6f 43d3 	mvn.w	r3, r3, lsr #19
10002f7c:	f8ac 3004 	strh.w	r3, [ip, #4]
10002f80:	4b39      	ldr	r3, [pc, #228]	@ (10003068 <irq_add_shared_handler+0x1f4>)
10002f82:	eb0a 0102 	add.w	r1, sl, r2
10002f86:	f88c 2006 	strb.w	r2, [ip, #6]
10002f8a:	f840 3021 	str.w	r3, [r0, r1, lsl #2]
10002f8e:	9b00      	ldr	r3, [sp, #0]
10002f90:	eb00 0281 	add.w	r2, r0, r1, lsl #2
10002f94:	8094      	strh	r4, [r2, #4]
10002f96:	7193      	strb	r3, [r2, #6]
10002f98:	71d5      	strb	r5, [r2, #7]
10002f9a:	f8c2 9008 	str.w	r9, [r2, #8]
10002f9e:	e7b9      	b.n	10002f14 <irq_add_shared_handler+0xa0>
10002fa0:	f001 f988 	bl	100042b4 <hard_assertion_failure>
10002fa4:	492b      	ldr	r1, [pc, #172]	@ (10003054 <irq_add_shared_handler+0x1e0>)
10002fa6:	f991 2000 	ldrsb.w	r2, [r1]
10002faa:	e77d      	b.n	10002ea8 <irq_add_shared_handler+0x34>
10002fac:	f06f 0107 	mvn.w	r1, #7
10002fb0:	9400      	str	r4, [sp, #0]
10002fb2:	9c01      	ldr	r4, [sp, #4]
10002fb4:	4633      	mov	r3, r6
10002fb6:	1b09      	subs	r1, r1, r4
10002fb8:	f8bc 4004 	ldrh.w	r4, [ip, #4]
10002fbc:	1a09      	subs	r1, r1, r0
10002fbe:	f344 040a 	sbfx	r4, r4, #0, #11
10002fc2:	9101      	str	r1, [sp, #4]
10002fc4:	3402      	adds	r4, #2
10002fc6:	f10c 0104 	add.w	r1, ip, #4
10002fca:	eb01 0444 	add.w	r4, r1, r4, lsl #1
10002fce:	465e      	mov	r6, fp
10002fd0:	468b      	mov	fp, r1
10002fd2:	9901      	ldr	r1, [sp, #4]
10002fd4:	440c      	add	r4, r1
10002fd6:	f3c4 044a 	ubfx	r4, r4, #1, #11
10002fda:	ea6f 44c4 	mvn.w	r4, r4, lsl #19
10002fde:	ea6f 44d4 	mvn.w	r4, r4, lsr #19
10002fe2:	e7c2      	b.n	10002f6a <irq_add_shared_handler+0xf6>
10002fe4:	e9cd 2300 	strd	r2, r3, [sp]
10002fe8:	f001 f964 	bl	100042b4 <hard_assertion_failure>
10002fec:	e9dd 2300 	ldrd	r2, r3, [sp]
10002ff0:	4819      	ldr	r0, [pc, #100]	@ (10003058 <irq_add_shared_handler+0x1e4>)
10002ff2:	e772      	b.n	10002eda <irq_add_shared_handler+0x66>
10002ff4:	4a1b      	ldr	r2, [pc, #108]	@ (10003064 <irq_add_shared_handler+0x1f0>)
10002ff6:	1ca1      	adds	r1, r4, #2
10002ff8:	71dd      	strb	r5, [r3, #7]
10002ffa:	4401      	add	r1, r0
10002ffc:	3a04      	subs	r2, #4
10002ffe:	1d25      	adds	r5, r4, #4
10003000:	1a52      	subs	r2, r2, r1
10003002:	4405      	add	r5, r0
10003004:	f1ac 0104 	sub.w	r1, ip, #4
10003008:	1b49      	subs	r1, r1, r5
1000300a:	f3c1 014a 	ubfx	r1, r1, #1, #11
1000300e:	ea6f 41c1 	mvn.w	r1, r1, lsl #19
10003012:	f3c2 024a 	ubfx	r2, r2, #1, #11
10003016:	ea6f 42c2 	mvn.w	r2, r2, lsl #19
1000301a:	ea6f 41d1 	mvn.w	r1, r1, lsr #19
1000301e:	f44f 4e21 	mov.w	lr, #41216	@ 0xa100
10003022:	ea6f 42d2 	mvn.w	r2, r2, lsr #19
10003026:	8099      	strh	r1, [r3, #4]
10003028:	490f      	ldr	r1, [pc, #60]	@ (10003068 <irq_add_shared_handler+0x1f4>)
1000302a:	f820 e004 	strh.w	lr, [r0, r4]
1000302e:	805a      	strh	r2, [r3, #2]
10003030:	f64a 25aa 	movw	r5, #43690	@ 0xaaaa
10003034:	4662      	mov	r2, ip
10003036:	1a12      	subs	r2, r2, r0
10003038:	4152      	adcs	r2, r2
1000303a:	4355      	muls	r5, r2
1000303c:	0d2d      	lsrs	r5, r5, #20
1000303e:	f8c3 9008 	str.w	r9, [r3, #8]
10003042:	719d      	strb	r5, [r3, #6]
10003044:	f043 0e01 	orr.w	lr, r3, #1
10003048:	f8cc 1000 	str.w	r1, [ip]
1000304c:	e762      	b.n	10002f14 <irq_add_shared_handler+0xa0>
1000304e:	bf00      	nop
10003050:	20001d85 	.word	0x20001d85
10003054:	200026b7 	.word	0x200026b7
10003058:	200015a0 	.word	0x200015a0
1000305c:	e000ed00 	.word	0xe000ed00
10003060:	10000111 	.word	0x10000111
10003064:	200015d0 	.word	0x200015d0
10003068:	47804801 	.word	0x47804801

1000306c <irq_remove_handler>:
1000306c:	e92d 4ff0 	stmdb	sp!, {r4, r5, r6, r7, r8, r9, sl, fp, lr}
10003070:	4603      	mov	r3, r0
10003072:	b085      	sub	sp, #20
10003074:	f3ef 8710 	mrs	r7, PRIMASK
10003078:	b672      	cpsid	i
1000307a:	4c76      	ldr	r4, [pc, #472]	@ (10003254 <irq_remove_handler+0x1e8>)
1000307c:	e8d4 0fcf 	ldaexb	r0, [r4]
10003080:	2201      	movs	r2, #1
10003082:	2800      	cmp	r0, #0
10003084:	d1fa      	bne.n	1000307c <irq_remove_handler+0x10>
10003086:	e8c4 2f40 	strexb	r0, r2, [r4]
1000308a:	2800      	cmp	r0, #0
1000308c:	d1f6      	bne.n	1000307c <irq_remove_handler+0x10>
1000308e:	f3bf 8f5f 	dmb	sy
10003092:	4a71      	ldr	r2, [pc, #452]	@ (10003258 <irq_remove_handler+0x1ec>)
10003094:	f103 0610 	add.w	r6, r3, #16
10003098:	6892      	ldr	r2, [r2, #8]
1000309a:	f8df 81d4 	ldr.w	r8, [pc, #468]	@ 10003270 <irq_remove_handler+0x204>
1000309e:	f852 0026 	ldr.w	r0, [r2, r6, lsl #2]
100030a2:	4540      	cmp	r0, r8
100030a4:	d04b      	beq.n	1000313e <irq_remove_handler+0xd2>
100030a6:	4288      	cmp	r0, r1
100030a8:	d057      	beq.n	1000315a <irq_remove_handler+0xee>
100030aa:	4d6c      	ldr	r5, [pc, #432]	@ (1000325c <irq_remove_handler+0x1f0>)
100030ac:	eba0 0c05 	sub.w	ip, r0, r5
100030b0:	f1bc 0f2f 	cmp.w	ip, #47	@ 0x2f
100030b4:	d843      	bhi.n	1000313e <irq_remove_handler+0xd2>
100030b6:	f04f 0e01 	mov.w	lr, #1
100030ba:	ea4f 1c53 	mov.w	ip, r3, lsr #5
100030be:	ea4f 0c8c 	mov.w	ip, ip, lsl #2
100030c2:	f10c 4260 	add.w	r2, ip, #3758096384	@ 0xe0000000
100030c6:	f502 4261 	add.w	r2, r2, #57600	@ 0xe100
100030ca:	f8d2 c000 	ldr.w	ip, [r2]
100030ce:	f003 031f 	and.w	r3, r3, #31
100030d2:	fa0e f303 	lsl.w	r3, lr, r3
100030d6:	9200      	str	r2, [sp, #0]
100030d8:	9301      	str	r3, [sp, #4]
100030da:	f8c2 3080 	str.w	r3, [r2, #128]	@ 0x80
100030de:	ea03 090c 	and.w	r9, r3, ip
100030e2:	f3bf 8f5f 	dmb	sy
100030e6:	f3ef 8305 	mrs	r3, IPSR
100030ea:	b2db      	uxtb	r3, r3
100030ec:	469a      	mov	sl, r3
100030ee:	2b00      	cmp	r3, #0
100030f0:	d035      	beq.n	1000315e <irq_remove_handler+0xf2>
100030f2:	429e      	cmp	r6, r3
100030f4:	d005      	beq.n	10003102 <irq_remove_handler+0x96>
100030f6:	e9cd 0102 	strd	r0, r1, [sp, #8]
100030fa:	f001 f8db 	bl	100042b4 <hard_assertion_failure>
100030fe:	e9dd 0102 	ldrd	r0, r1, [sp, #8]
10003102:	f020 0e01 	bic.w	lr, r0, #1
10003106:	f8de c008 	ldr.w	ip, [lr, #8]
1000310a:	4561      	cmp	r1, ip
1000310c:	d105      	bne.n	1000311a <irq_remove_handler+0xae>
1000310e:	e08c      	b.n	1000322a <irq_remove_handler+0x1be>
10003110:	f8d3 c008 	ldr.w	ip, [r3, #8]
10003114:	4561      	cmp	r1, ip
10003116:	d032      	beq.n	1000317e <irq_remove_handler+0x112>
10003118:	469e      	mov	lr, r3
1000311a:	f99e 2006 	ldrsb.w	r2, [lr, #6]
1000311e:	eb02 0342 	add.w	r3, r2, r2, lsl #1
10003122:	2a00      	cmp	r2, #0
10003124:	eb05 0383 	add.w	r3, r5, r3, lsl #2
10003128:	daf2      	bge.n	10003110 <irq_remove_handler+0xa4>
1000312a:	4561      	cmp	r1, ip
1000312c:	d060      	beq.n	100031f0 <irq_remove_handler+0x184>
1000312e:	e9dd 3200 	ldrd	r3, r2, [sp]
10003132:	f1b9 0f00 	cmp.w	r9, #0
10003136:	d01f      	beq.n	10003178 <irq_remove_handler+0x10c>
10003138:	f8c3 2180 	str.w	r2, [r3, #384]	@ 0x180
1000313c:	601a      	str	r2, [r3, #0]
1000313e:	4b46      	ldr	r3, [pc, #280]	@ (10003258 <irq_remove_handler+0x1ec>)
10003140:	689b      	ldr	r3, [r3, #8]
10003142:	f843 0026 	str.w	r0, [r3, r6, lsl #2]
10003146:	f3bf 8f5f 	dmb	sy
1000314a:	2300      	movs	r3, #0
1000314c:	e8c4 3f8f 	stlb	r3, [r4]
10003150:	f387 8810 	msr	PRIMASK, r7
10003154:	b005      	add	sp, #20
10003156:	e8bd 8ff0 	ldmia.w	sp!, {r4, r5, r6, r7, r8, r9, sl, fp, pc}
1000315a:	4640      	mov	r0, r8
1000315c:	e7ef      	b.n	1000313e <irq_remove_handler+0xd2>
1000315e:	f020 0e01 	bic.w	lr, r0, #1
10003162:	f8de c008 	ldr.w	ip, [lr, #8]
10003166:	4561      	cmp	r1, ip
10003168:	d1d7      	bne.n	1000311a <irq_remove_handler+0xae>
1000316a:	f99e b006 	ldrsb.w	fp, [lr, #6]
1000316e:	459b      	cmp	fp, r3
10003170:	4673      	mov	r3, lr
10003172:	da09      	bge.n	10003188 <irq_remove_handler+0x11c>
10003174:	4640      	mov	r0, r8
10003176:	e046      	b.n	10003206 <irq_remove_handler+0x19a>
10003178:	f8c3 2080 	str.w	r2, [r3, #128]	@ 0x80
1000317c:	e7df      	b.n	1000313e <irq_remove_handler+0xd2>
1000317e:	f993 b006 	ldrsb.w	fp, [r3, #6]
10003182:	f1bb 0f00 	cmp.w	fp, #0
10003186:	db34      	blt.n	100031f2 <irq_remove_handler+0x186>
10003188:	eb0b 0c4b 	add.w	ip, fp, fp, lsl #1
1000318c:	eb05 028c 	add.w	r2, r5, ip, lsl #2
10003190:	f892 e007 	ldrb.w	lr, [r2, #7]
10003194:	ea4f 018c 	mov.w	r1, ip, lsl #2
10003198:	9102      	str	r1, [sp, #8]
1000319a:	6891      	ldr	r1, [r2, #8]
1000319c:	f883 e007 	strb.w	lr, [r3, #7]
100031a0:	f992 c006 	ldrsb.w	ip, [r2, #6]
100031a4:	6099      	str	r1, [r3, #8]
100031a6:	f1bc 0f00 	cmp.w	ip, #0
100031aa:	f883 c006 	strb.w	ip, [r3, #6]
100031ae:	ea4f 0e4b 	mov.w	lr, fp, lsl #1
100031b2:	db38      	blt.n	10003226 <irq_remove_handler+0x1ba>
100031b4:	f06f 0c07 	mvn.w	ip, #7
100031b8:	8892      	ldrh	r2, [r2, #4]
100031ba:	9902      	ldr	r1, [sp, #8]
100031bc:	f342 020a 	sbfx	r2, r2, #0, #11
100031c0:	eb01 0242 	add.w	r2, r1, r2, lsl #1
100031c4:	3208      	adds	r2, #8
100031c6:	442a      	add	r2, r5
100031c8:	ebac 0c03 	sub.w	ip, ip, r3
100031cc:	4462      	add	r2, ip
100031ce:	f3c2 024a 	ubfx	r2, r2, #1, #11
100031d2:	ea6f 42c2 	mvn.w	r2, r2, lsl #19
100031d6:	ea6f 42d2 	mvn.w	r2, r2, lsr #19
100031da:	809a      	strh	r2, [r3, #4]
100031dc:	4b20      	ldr	r3, [pc, #128]	@ (10003260 <irq_remove_handler+0x1f4>)
100031de:	44de      	add	lr, fp
100031e0:	781a      	ldrb	r2, [r3, #0]
100031e2:	eb05 0e8e 	add.w	lr, r5, lr, lsl #2
100031e6:	f883 b000 	strb.w	fp, [r3]
100031ea:	f88e 2006 	strb.w	r2, [lr, #6]
100031ee:	e79e      	b.n	1000312e <irq_remove_handler+0xc2>
100031f0:	4673      	mov	r3, lr
100031f2:	f1ba 0f00 	cmp.w	sl, #0
100031f6:	d11e      	bne.n	10003236 <irq_remove_handler+0x1ca>
100031f8:	22ff      	movs	r2, #255	@ 0xff
100031fa:	f88e 2006 	strb.w	r2, [lr, #6]
100031fe:	f64b 5201 	movw	r2, #48385	@ 0xbd01
10003202:	f8ae 2004 	strh.w	r2, [lr, #4]
10003206:	f8df c058 	ldr.w	ip, [pc, #88]	@ 10003260 <irq_remove_handler+0x1f4>
1000320a:	f64a 22aa 	movw	r2, #43690	@ 0xaaaa
1000320e:	f89c e000 	ldrb.w	lr, [ip]
10003212:	4619      	mov	r1, r3
10003214:	1b49      	subs	r1, r1, r5
10003216:	4149      	adcs	r1, r1
10003218:	434a      	muls	r2, r1
1000321a:	0d12      	lsrs	r2, r2, #20
1000321c:	f883 e006 	strb.w	lr, [r3, #6]
10003220:	f88c 2000 	strb.w	r2, [ip]
10003224:	e783      	b.n	1000312e <irq_remove_handler+0xc2>
10003226:	4a0f      	ldr	r2, [pc, #60]	@ (10003264 <irq_remove_handler+0x1f8>)
10003228:	e7d7      	b.n	100031da <irq_remove_handler+0x16e>
1000322a:	f99e b006 	ldrsb.w	fp, [lr, #6]
1000322e:	4673      	mov	r3, lr
10003230:	f1bb 0f00 	cmp.w	fp, #0
10003234:	daa8      	bge.n	10003188 <irq_remove_handler+0x11c>
10003236:	4a0c      	ldr	r2, [pc, #48]	@ (10003268 <irq_remove_handler+0x1fc>)
10003238:	4d0c      	ldr	r5, [pc, #48]	@ (1000326c <irq_remove_handler+0x200>)
1000323a:	1ad2      	subs	r2, r2, r3
1000323c:	3a08      	subs	r2, #8
1000323e:	f3c2 310a 	ubfx	r1, r2, #12, #11
10003242:	ea6f 5101 	mvn.w	r1, r1, lsl #20
10003246:	ea6f 5111 	mvn.w	r1, r1, lsr #20
1000324a:	ea45 0252 	orr.w	r2, r5, r2, lsr #1
1000324e:	80da      	strh	r2, [r3, #6]
10003250:	8099      	strh	r1, [r3, #4]
10003252:	e76c      	b.n	1000312e <irq_remove_handler+0xc2>
10003254:	20001d85 	.word	0x20001d85
10003258:	e000ed00 	.word	0xe000ed00
1000325c:	200015a0 	.word	0x200015a0
10003260:	200026b7 	.word	0x200026b7
10003264:	ffffbd01 	.word	0xffffbd01
10003268:	200015da 	.word	0x200015da
1000326c:	fffff800 	.word	0xfffff800
10003270:	10000111 	.word	0x10000111

10003274 <irq_add_tail_to_free_list>:
10003274:	e92d 41f0 	stmdb	sp!, {r4, r5, r6, r7, r8, lr}
10003278:	f3ef 8305 	mrs	r3, IPSR
1000327c:	b2db      	uxtb	r3, r3
1000327e:	469e      	mov	lr, r3
10003280:	f3ef 8510 	mrs	r5, PRIMASK
10003284:	b672      	cpsid	i
10003286:	4929      	ldr	r1, [pc, #164]	@ (1000332c <irq_add_tail_to_free_list+0xb8>)
10003288:	e8d1 2fcf 	ldaexb	r2, [r1]
1000328c:	2301      	movs	r3, #1
1000328e:	2a00      	cmp	r2, #0
10003290:	d1fa      	bne.n	10003288 <irq_add_tail_to_free_list+0x14>
10003292:	e8c1 3f42 	strexb	r2, r3, [r1]
10003296:	2a00      	cmp	r2, #0
10003298:	d1f6      	bne.n	10003288 <irq_add_tail_to_free_list+0x14>
1000329a:	f3bf 8f5f 	dmb	sy
1000329e:	f8df 809c 	ldr.w	r8, [pc, #156]	@ 1000333c <irq_add_tail_to_free_list+0xc8>
100032a2:	f040 0601 	orr.w	r6, r0, #1
100032a6:	f8d8 7008 	ldr.w	r7, [r8, #8]
100032aa:	f64a 23aa 	movw	r3, #43690	@ 0xaaaa
100032ae:	f857 702e 	ldr.w	r7, [r7, lr, lsl #2]
100032b2:	4604      	mov	r4, r0
100032b4:	4a1e      	ldr	r2, [pc, #120]	@ (10003330 <irq_add_tail_to_free_list+0xbc>)
100032b6:	1aa4      	subs	r4, r4, r2
100032b8:	4164      	adcs	r4, r4
100032ba:	4363      	muls	r3, r4
100032bc:	0d1b      	lsrs	r3, r3, #20
100032be:	42b7      	cmp	r7, r6
100032c0:	b25b      	sxtb	r3, r3
100032c2:	d01e      	beq.n	10003302 <irq_add_tail_to_free_list+0x8e>
100032c4:	f992 4006 	ldrsb.w	r4, [r2, #6]
100032c8:	429c      	cmp	r4, r3
100032ca:	d020      	beq.n	1000330e <irq_add_tail_to_free_list+0x9a>
100032cc:	f992 4012 	ldrsb.w	r4, [r2, #18]
100032d0:	429c      	cmp	r4, r3
100032d2:	d027      	beq.n	10003324 <irq_add_tail_to_free_list+0xb0>
100032d4:	f992 401e 	ldrsb.w	r4, [r2, #30]
100032d8:	429c      	cmp	r4, r3
100032da:	d025      	beq.n	10003328 <irq_add_tail_to_free_list+0xb4>
100032dc:	f992 402a 	ldrsb.w	r4, [r2, #42]	@ 0x2a
100032e0:	429c      	cmp	r4, r3
100032e2:	bf08      	it	eq
100032e4:	2403      	moveq	r4, #3
100032e6:	d013      	beq.n	10003310 <irq_add_tail_to_free_list+0x9c>
100032e8:	4a12      	ldr	r2, [pc, #72]	@ (10003334 <irq_add_tail_to_free_list+0xc0>)
100032ea:	2400      	movs	r4, #0
100032ec:	f892 c000 	ldrb.w	ip, [r2]
100032f0:	7013      	strb	r3, [r2, #0]
100032f2:	f880 c006 	strb.w	ip, [r0, #6]
100032f6:	e8c1 4f8f 	stlb	r4, [r1]
100032fa:	f385 8810 	msr	PRIMASK, r5
100032fe:	e8bd 81f0 	ldmia.w	sp!, {r4, r5, r6, r7, r8, pc}
10003302:	f8d8 2008 	ldr.w	r2, [r8, #8]
10003306:	4c0c      	ldr	r4, [pc, #48]	@ (10003338 <irq_add_tail_to_free_list+0xc4>)
10003308:	f842 402e 	str.w	r4, [r2, lr, lsl #2]
1000330c:	e7ec      	b.n	100032e8 <irq_add_tail_to_free_list+0x74>
1000330e:	2400      	movs	r4, #0
10003310:	eb04 0444 	add.w	r4, r4, r4, lsl #1
10003314:	eb02 0284 	add.w	r2, r2, r4, lsl #2
10003318:	24ff      	movs	r4, #255	@ 0xff
1000331a:	7194      	strb	r4, [r2, #6]
1000331c:	f64b 5401 	movw	r4, #48385	@ 0xbd01
10003320:	8094      	strh	r4, [r2, #4]
10003322:	e7e1      	b.n	100032e8 <irq_add_tail_to_free_list+0x74>
10003324:	2401      	movs	r4, #1
10003326:	e7f3      	b.n	10003310 <irq_add_tail_to_free_list+0x9c>
10003328:	2402      	movs	r4, #2
1000332a:	e7f1      	b.n	10003310 <irq_add_tail_to_free_list+0x9c>
1000332c:	20001d85 	.word	0x20001d85
10003330:	200015a0 	.word	0x200015a0
10003334:	200026b7 	.word	0x200026b7
10003338:	10000111 	.word	0x10000111
1000333c:	e000ed00 	.word	0xe000ed00

10003340 <user_irq_claim_unused>:
10003340:	b500      	push	{lr}
10003342:	f8df c024 	ldr.w	ip, [pc, #36]	@ 10003368 <user_irq_claim_unused+0x28>
10003346:	b083      	sub	sp, #12
10003348:	4601      	mov	r1, r0
1000334a:	2305      	movs	r3, #5
1000334c:	2200      	movs	r2, #0
1000334e:	f8cd c000 	str.w	ip, [sp]
10003352:	4804      	ldr	r0, [pc, #16]	@ (10003364 <user_irq_claim_unused+0x24>)
10003354:	f7ff fc80 	bl	10002c58 <hw_claim_unused_from_range>
10003358:	2800      	cmp	r0, #0
1000335a:	bfa8      	it	ge
1000335c:	f1c0 0033 	rsbge	r0, r0, #51	@ 0x33
10003360:	b003      	add	sp, #12
10003362:	bd00      	pop	{pc}
10003364:	200026bc 	.word	0x200026bc
10003368:	1000994c 	.word	0x1000994c

1000336c <lock_init>:
1000336c:	4b01      	ldr	r3, [pc, #4]	@ (10003374 <lock_init+0x8>)
1000336e:	440b      	add	r3, r1
10003370:	6003      	str	r3, [r0, #0]
10003372:	4770      	bx	lr
10003374:	20001d7c 	.word	0x20001d7c

10003378 <runtime_init_mutex>:
10003378:	b5f8      	push	{r3, r4, r5, r6, r7, lr}
1000337a:	4c12      	ldr	r4, [pc, #72]	@ (100033c4 <runtime_init_mutex+0x4c>)
1000337c:	4d12      	ldr	r5, [pc, #72]	@ (100033c8 <runtime_init_mutex+0x50>)
1000337e:	42ac      	cmp	r4, r5
10003380:	d21e      	bcs.n	100033c0 <runtime_init_mutex+0x48>
10003382:	26ff      	movs	r6, #255	@ 0xff
10003384:	2700      	movs	r7, #0
10003386:	e00c      	b.n	100033a2 <runtime_init_mutex+0x2a>
10003388:	f7ff fca8 	bl	10002cdc <next_striped_spin_lock_num>
1000338c:	4601      	mov	r1, r0
1000338e:	4620      	mov	r0, r4
10003390:	f7ff ffec 	bl	1000336c <lock_init>
10003394:	7126      	strb	r6, [r4, #4]
10003396:	7167      	strb	r7, [r4, #5]
10003398:	f3bf 8f5f 	dmb	sy
1000339c:	3408      	adds	r4, #8
1000339e:	42ac      	cmp	r4, r5
100033a0:	d20e      	bcs.n	100033c0 <runtime_init_mutex+0x48>
100033a2:	6823      	ldr	r3, [r4, #0]
100033a4:	2b00      	cmp	r3, #0
100033a6:	d1ef      	bne.n	10003388 <runtime_init_mutex+0x10>
100033a8:	f7ff fc98 	bl	10002cdc <next_striped_spin_lock_num>
100033ac:	4601      	mov	r1, r0
100033ae:	4620      	mov	r0, r4
100033b0:	f7ff ffdc 	bl	1000336c <lock_init>
100033b4:	7126      	strb	r6, [r4, #4]
100033b6:	f3bf 8f5f 	dmb	sy
100033ba:	3408      	adds	r4, #8
100033bc:	42ac      	cmp	r4, r5
100033be:	d3f0      	bcc.n	100033a2 <runtime_init_mutex+0x2a>
100033c0:	bdf8      	pop	{r3, r4, r5, r6, r7, pc}
100033c2:	bf00      	nop
100033c4:	20001764 	.word	0x20001764
100033c8:	20001774 	.word	0x20001774

100033cc <mutex_init>:
100033cc:	b510      	push	{r4, lr}
100033ce:	4604      	mov	r4, r0
100033d0:	f7ff fc84 	bl	10002cdc <next_striped_spin_lock_num>
100033d4:	4601      	mov	r1, r0
100033d6:	4620      	mov	r0, r4
100033d8:	f7ff ffc8 	bl	1000336c <lock_init>
100033dc:	23ff      	movs	r3, #255	@ 0xff
100033de:	7123      	strb	r3, [r4, #4]
100033e0:	f3bf 8f5f 	dmb	sy
100033e4:	bd10      	pop	{r4, pc}
100033e6:	bf00      	nop

100033e8 <critical_section_init>:
100033e8:	b510      	push	{r4, lr}
100033ea:	4604      	mov	r4, r0
100033ec:	2001      	movs	r0, #1
100033ee:	f7ff fc81 	bl	10002cf4 <spin_lock_claim_unused>
100033f2:	4b03      	ldr	r3, [pc, #12]	@ (10003400 <critical_section_init+0x18>)
100033f4:	4403      	add	r3, r0
100033f6:	6023      	str	r3, [r4, #0]
100033f8:	f3bf 8f5f 	dmb	sy
100033fc:	bd10      	pop	{r4, pc}
100033fe:	bf00      	nop
10003400:	20001d7c 	.word	0x20001d7c

10003404 <critical_section_init_with_lock_num>:
10003404:	4b02      	ldr	r3, [pc, #8]	@ (10003410 <critical_section_init_with_lock_num+0xc>)
10003406:	440b      	add	r3, r1
10003408:	6003      	str	r3, [r0, #0]
1000340a:	f3bf 8f5f 	dmb	sy
1000340e:	4770      	bx	lr
10003410:	20001d7c 	.word	0x20001d7c

10003414 <sleep_until_callback>:
10003414:	4b0d      	ldr	r3, [pc, #52]	@ (1000344c <sleep_until_callback+0x38>)
10003416:	681a      	ldr	r2, [r3, #0]
10003418:	f3ef 8110 	mrs	r1, PRIMASK
1000341c:	b672      	cpsid	i
1000341e:	e8d2 cfcf 	ldaexb	ip, [r2]
10003422:	2001      	movs	r0, #1
10003424:	f1bc 0f00 	cmp.w	ip, #0
10003428:	d1f9      	bne.n	1000341e <sleep_until_callback+0xa>
1000342a:	e8c2 0f4c 	strexb	ip, r0, [r2]
1000342e:	f1bc 0f00 	cmp.w	ip, #0
10003432:	d1f4      	bne.n	1000341e <sleep_until_callback+0xa>
10003434:	f3bf 8f5f 	dmb	sy
10003438:	2200      	movs	r2, #0
1000343a:	681b      	ldr	r3, [r3, #0]
1000343c:	e8c3 2f8f 	stlb	r2, [r3]
10003440:	f381 8810 	msr	PRIMASK, r1
10003444:	bf40      	sev
10003446:	2000      	movs	r0, #0
10003448:	2100      	movs	r1, #0
1000344a:	4770      	bx	lr
1000344c:	2000268c 	.word	0x2000268c

10003450 <alarm_pool_irq_handler>:
10003450:	e92d 4ff0 	stmdb	sp!, {r4, r5, r6, r7, r8, r9, sl, fp, lr}
10003454:	ed2d 8b02 	vpush	{d8}
10003458:	b085      	sub	sp, #20
1000345a:	f3ef 8205 	mrs	r2, IPSR
1000345e:	b2d2      	uxtb	r2, r2
10003460:	f1a2 0310 	sub.w	r3, r2, #16
10003464:	089b      	lsrs	r3, r3, #2
10003466:	f000 8143 	beq.w	100036f0 <alarm_pool_irq_handler+0x2a0>
1000346a:	2301      	movs	r3, #1
1000346c:	49aa      	ldr	r1, [pc, #680]	@ (10003718 <alarm_pool_irq_handler+0x2c8>)
1000346e:	4cab      	ldr	r4, [pc, #684]	@ (1000371c <alarm_pool_irq_handler+0x2cc>)
10003470:	f002 0b03 	and.w	fp, r2, #3
10003474:	4aaa      	ldr	r2, [pc, #680]	@ (10003720 <alarm_pool_irq_handler+0x2d0>)
10003476:	eb0b 0383 	add.w	r3, fp, r3, lsl #2
1000347a:	f852 5023 	ldr.w	r5, [r2, r3, lsl #2]
1000347e:	2301      	movs	r3, #1
10003480:	fa03 f30b 	lsl.w	r3, r3, fp
10003484:	ed9f 8ba2 	vldr	d8, [pc, #648]	@ 10003710 <alarm_pool_irq_handler+0x2c0>
10003488:	9302      	str	r3, [sp, #8]
1000348a:	600b      	str	r3, [r1, #0]
1000348c:	e030      	b.n	100034f0 <alarm_pool_irq_handler+0xa0>
1000348e:	f9b5 3004 	ldrsh.w	r3, [r5, #4]
10003492:	2b00      	cmp	r3, #0
10003494:	f280 8094 	bge.w	100035c0 <alarm_pool_irq_handler+0x170>
10003498:	79ab      	ldrb	r3, [r5, #6]
1000349a:	2b00      	cmp	r3, #0
1000349c:	f040 80de 	bne.w	1000365c <alarm_pool_irq_handler+0x20c>
100034a0:	f9b5 6008 	ldrsh.w	r6, [r5, #8]
100034a4:	2e00      	cmp	r6, #0
100034a6:	f2c0 811d 	blt.w	100036e4 <alarm_pool_irq_handler+0x294>
100034aa:	696b      	ldr	r3, [r5, #20]
100034ac:	eb06 0646 	add.w	r6, r6, r6, lsl #1
100034b0:	eb03 03c6 	add.w	r3, r3, r6, lsl #3
100034b4:	e9d3 6702 	ldrd	r6, r7, [r3, #8]
100034b8:	f1b7 3fff 	cmp.w	r7, #4294967295	@ 0xffffffff
100034bc:	bf08      	it	eq
100034be:	f1b6 3fff 	cmpeq.w	r6, #4294967295	@ 0xffffffff
100034c2:	d00e      	beq.n	100034e2 <alarm_pool_irq_handler+0x92>
100034c4:	eb04 018b 	add.w	r1, r4, fp, lsl #2
100034c8:	6aa3      	ldr	r3, [r4, #40]	@ 0x28
100034ca:	690a      	ldr	r2, [r1, #16]
100034cc:	1ad2      	subs	r2, r2, r3
100034ce:	1af3      	subs	r3, r6, r3
100034d0:	4293      	cmp	r3, r2
100034d2:	d305      	bcc.n	100034e0 <alarm_pool_irq_handler+0x90>
100034d4:	2301      	movs	r3, #1
100034d6:	6a22      	ldr	r2, [r4, #32]
100034d8:	fa03 f30b 	lsl.w	r3, r3, fp
100034dc:	4213      	tst	r3, r2
100034de:	d100      	bne.n	100034e2 <alarm_pool_irq_handler+0x92>
100034e0:	610e      	str	r6, [r1, #16]
100034e2:	4620      	mov	r0, r4
100034e4:	f000 fbbc 	bl	10003c60 <timer_time_us_64>
100034e8:	42b0      	cmp	r0, r6
100034ea:	41b9      	sbcs	r1, r7
100034ec:	f2c0 80fa 	blt.w	100036e4 <alarm_pool_irq_handler+0x294>
100034f0:	f9b5 6008 	ldrsh.w	r6, [r5, #8]
100034f4:	9b02      	ldr	r3, [sp, #8]
100034f6:	2e00      	cmp	r6, #0
100034f8:	63e3      	str	r3, [r4, #60]	@ 0x3c
100034fa:	dbc8      	blt.n	1000348e <alarm_pool_irq_handler+0x3e>
100034fc:	f8d5 9014 	ldr.w	r9, [r5, #20]
10003500:	eb06 0a46 	add.w	sl, r6, r6, lsl #1
10003504:	eb09 07ca 	add.w	r7, r9, sl, lsl #3
10003508:	68bb      	ldr	r3, [r7, #8]
1000350a:	4620      	mov	r0, r4
1000350c:	f8d7 800c 	ldr.w	r8, [r7, #12]
10003510:	9301      	str	r3, [sp, #4]
10003512:	f000 fba5 	bl	10003c60 <timer_time_us_64>
10003516:	9b01      	ldr	r3, [sp, #4]
10003518:	4298      	cmp	r0, r3
1000351a:	eb71 0108 	sbcs.w	r1, r1, r8
1000351e:	dbb6      	blt.n	1000348e <alarm_pool_irq_handler+0x3e>
10003520:	f1b8 0f00 	cmp.w	r8, #0
10003524:	f2c0 80c1 	blt.w	100036aa <alarm_pool_irq_handler+0x25a>
10003528:	e9d7 3104 	ldrd	r3, r1, [r7, #16]
1000352c:	4a7d      	ldr	r2, [pc, #500]	@ (10003724 <alarm_pool_irq_handler+0x2d4>)
1000352e:	4293      	cmp	r3, r2
10003530:	f000 80fe 	beq.w	10003730 <alarm_pool_irq_handler+0x2e0>
10003534:	887a      	ldrh	r2, [r7, #2]
10003536:	f9b5 0008 	ldrsh.w	r0, [r5, #8]
1000353a:	ea42 4000 	orr.w	r0, r2, r0, lsl #16
1000353e:	4798      	blx	r3
10003540:	4602      	mov	r2, r0
10003542:	460b      	mov	r3, r1
10003544:	ea52 0103 	orrs.w	r1, r2, r3
10003548:	f000 80af 	beq.w	100036aa <alarm_pool_irq_handler+0x25a>
1000354c:	2b00      	cmp	r3, #0
1000354e:	f280 80d2 	bge.w	100036f6 <alarm_pool_irq_handler+0x2a6>
10003552:	9901      	ldr	r1, [sp, #4]
10003554:	ebb1 0e02 	subs.w	lr, r1, r2
10003558:	eb68 0803 	sbc.w	r8, r8, r3
1000355c:	f939 303a 	ldrsh.w	r3, [r9, sl, lsl #3]
10003560:	e9c7 e802 	strd	lr, r8, [r7, #8]
10003564:	2b00      	cmp	r3, #0
10003566:	db92      	blt.n	1000348e <alarm_pool_irq_handler+0x3e>
10003568:	6968      	ldr	r0, [r5, #20]
1000356a:	eb03 0243 	add.w	r2, r3, r3, lsl #1
1000356e:	eb00 02c2 	add.w	r2, r0, r2, lsl #3
10003572:	e9d2 7102 	ldrd	r7, r1, [r2, #8]
10003576:	45be      	cmp	lr, r7
10003578:	eb78 0c01 	sbcs.w	ip, r8, r1
1000357c:	ea4f 0243 	mov.w	r2, r3, lsl #1
10003580:	db85      	blt.n	1000348e <alarm_pool_irq_handler+0x3e>
10003582:	46ac      	mov	ip, r5
10003584:	f82c 3f08 	strh.w	r3, [ip, #8]!
10003588:	e006      	b.n	10003598 <alarm_pool_irq_handler+0x148>
1000358a:	eb03 0143 	add.w	r1, r3, r3, lsl #1
1000358e:	eb00 01c1 	add.w	r1, r0, r1, lsl #3
10003592:	005a      	lsls	r2, r3, #1
10003594:	e9d1 7102 	ldrd	r7, r1, [r1, #8]
10003598:	45be      	cmp	lr, r7
1000359a:	eb78 0101 	sbcs.w	r1, r8, r1
1000359e:	441a      	add	r2, r3
100035a0:	db05      	blt.n	100035ae <alarm_pool_irq_handler+0x15e>
100035a2:	f930 3032 	ldrsh.w	r3, [r0, r2, lsl #3]
100035a6:	eb00 0cc2 	add.w	ip, r0, r2, lsl #3
100035aa:	2b00      	cmp	r3, #0
100035ac:	daed      	bge.n	1000358a <alarm_pool_irq_handler+0x13a>
100035ae:	f829 303a 	strh.w	r3, [r9, sl, lsl #3]
100035b2:	f8ac 6000 	strh.w	r6, [ip]
100035b6:	f9b5 3004 	ldrsh.w	r3, [r5, #4]
100035ba:	2b00      	cmp	r3, #0
100035bc:	f6ff af6c 	blt.w	10003498 <alarm_pool_irq_handler+0x48>
100035c0:	692b      	ldr	r3, [r5, #16]
100035c2:	f3ef 8210 	mrs	r2, PRIMASK
100035c6:	b672      	cpsid	i
100035c8:	e8d3 0fcf 	ldaexb	r0, [r3]
100035cc:	2101      	movs	r1, #1
100035ce:	2800      	cmp	r0, #0
100035d0:	d1fa      	bne.n	100035c8 <alarm_pool_irq_handler+0x178>
100035d2:	e8c3 1f40 	strexb	r0, r1, [r3]
100035d6:	2800      	cmp	r0, #0
100035d8:	d1f6      	bne.n	100035c8 <alarm_pool_irq_handler+0x178>
100035da:	f3bf 8f5f 	dmb	sy
100035de:	f64f 76ff 	movw	r6, #65535	@ 0xffff
100035e2:	f9b5 0004 	ldrsh.w	r0, [r5, #4]
100035e6:	2300      	movs	r3, #0
100035e8:	6929      	ldr	r1, [r5, #16]
100035ea:	80ae      	strh	r6, [r5, #4]
100035ec:	e8c1 3f8f 	stlb	r3, [r1]
100035f0:	f382 8810 	msr	PRIMASK, r2
100035f4:	4298      	cmp	r0, r3
100035f6:	f6ff af4f 	blt.w	10003498 <alarm_pool_irq_handler+0x48>
100035fa:	4607      	mov	r7, r0
100035fc:	46a1      	mov	r9, r4
100035fe:	696e      	ldr	r6, [r5, #20]
10003600:	f105 0808 	add.w	r8, r5, #8
10003604:	f9b5 3008 	ldrsh.w	r3, [r5, #8]
10003608:	eb07 0e47 	add.w	lr, r7, r7, lsl #1
1000360c:	2b00      	cmp	r3, #0
1000360e:	46c4      	mov	ip, r8
10003610:	eb06 02ce 	add.w	r2, r6, lr, lsl #3
10003614:	db15      	blt.n	10003642 <alarm_pool_irq_handler+0x1f2>
10003616:	e9d2 4002 	ldrd	r4, r0, [r2, #8]
1000361a:	46aa      	mov	sl, r5
1000361c:	9701      	str	r7, [sp, #4]
1000361e:	e004      	b.n	1000362a <alarm_pool_irq_handler+0x1da>
10003620:	f936 3035 	ldrsh.w	r3, [r6, r5, lsl #3]
10003624:	4694      	mov	ip, r2
10003626:	2b00      	cmp	r3, #0
10003628:	db09      	blt.n	1000363e <alarm_pool_irq_handler+0x1ee>
1000362a:	eb03 0543 	add.w	r5, r3, r3, lsl #1
1000362e:	eb06 02c5 	add.w	r2, r6, r5, lsl #3
10003632:	e9d2 7102 	ldrd	r7, r1, [r2, #8]
10003636:	42bc      	cmp	r4, r7
10003638:	eb70 0101 	sbcs.w	r1, r0, r1
1000363c:	daf0      	bge.n	10003620 <alarm_pool_irq_handler+0x1d0>
1000363e:	4655      	mov	r5, sl
10003640:	9f01      	ldr	r7, [sp, #4]
10003642:	f8ac 7000 	strh.w	r7, [ip]
10003646:	f936 703e 	ldrsh.w	r7, [r6, lr, lsl #3]
1000364a:	f826 303e 	strh.w	r3, [r6, lr, lsl #3]
1000364e:	2f00      	cmp	r7, #0
10003650:	dad8      	bge.n	10003604 <alarm_pool_irq_handler+0x1b4>
10003652:	79ab      	ldrb	r3, [r5, #6]
10003654:	464c      	mov	r4, r9
10003656:	2b00      	cmp	r3, #0
10003658:	f43f af22 	beq.w	100034a0 <alarm_pool_irq_handler+0x50>
1000365c:	2300      	movs	r3, #0
1000365e:	71ab      	strb	r3, [r5, #6]
10003660:	f9b5 6008 	ldrsh.w	r6, [r5, #8]
10003664:	1c71      	adds	r1, r6, #1
10003666:	4633      	mov	r3, r6
10003668:	d03c      	beq.n	100036e4 <alarm_pool_irq_handler+0x294>
1000366a:	6968      	ldr	r0, [r5, #20]
1000366c:	f105 0e08 	add.w	lr, r5, #8
10003670:	e003      	b.n	1000367a <alarm_pool_irq_handler+0x22a>
10003672:	468e      	mov	lr, r1
10003674:	1c5a      	adds	r2, r3, #1
10003676:	f43f af15 	beq.w	100034a4 <alarm_pool_irq_handler+0x54>
1000367a:	eb03 0243 	add.w	r2, r3, r3, lsl #1
1000367e:	eb00 01c2 	add.w	r1, r0, r2, lsl #3
10003682:	f9b1 7002 	ldrsh.w	r7, [r1, #2]
10003686:	469c      	mov	ip, r3
10003688:	2f00      	cmp	r7, #0
1000368a:	f930 3032 	ldrsh.w	r3, [r0, r2, lsl #3]
1000368e:	daf0      	bge.n	10003672 <alarm_pool_irq_handler+0x222>
10003690:	4566      	cmp	r6, ip
10003692:	ed81 8b02 	vstr	d8, [r1, #8]
10003696:	d0ed      	beq.n	10003674 <alarm_pool_irq_handler+0x224>
10003698:	f8ae 3000 	strh.w	r3, [lr]
1000369c:	8929      	ldrh	r1, [r5, #8]
1000369e:	4666      	mov	r6, ip
100036a0:	f820 1032 	strh.w	r1, [r0, r2, lsl #3]
100036a4:	f8a5 c008 	strh.w	ip, [r5, #8]
100036a8:	e7e4      	b.n	10003674 <alarm_pool_irq_handler+0x224>
100036aa:	f839 303a 	ldrh.w	r3, [r9, sl, lsl #3]
100036ae:	812b      	strh	r3, [r5, #8]
100036b0:	692b      	ldr	r3, [r5, #16]
100036b2:	f3ef 8210 	mrs	r2, PRIMASK
100036b6:	b672      	cpsid	i
100036b8:	e8d3 0fcf 	ldaexb	r0, [r3]
100036bc:	2101      	movs	r1, #1
100036be:	2800      	cmp	r0, #0
100036c0:	d1fa      	bne.n	100036b8 <alarm_pool_irq_handler+0x268>
100036c2:	e8c3 1f40 	strexb	r0, r1, [r3]
100036c6:	2800      	cmp	r0, #0
100036c8:	d1f6      	bne.n	100036b8 <alarm_pool_irq_handler+0x268>
100036ca:	f3bf 8f5f 	dmb	sy
100036ce:	886b      	ldrh	r3, [r5, #2]
100036d0:	6929      	ldr	r1, [r5, #16]
100036d2:	f829 303a 	strh.w	r3, [r9, sl, lsl #3]
100036d6:	2300      	movs	r3, #0
100036d8:	806e      	strh	r6, [r5, #2]
100036da:	e8c1 3f8f 	stlb	r3, [r1]
100036de:	f382 8810 	msr	PRIMASK, r2
100036e2:	e6d4      	b.n	1000348e <alarm_pool_irq_handler+0x3e>
100036e4:	bf40      	sev
100036e6:	b005      	add	sp, #20
100036e8:	ecbd 8b02 	vpop	{d8}
100036ec:	e8bd 8ff0 	ldmia.w	sp!, {r4, r5, r6, r7, r8, r9, sl, fp, pc}
100036f0:	490d      	ldr	r1, [pc, #52]	@ (10003728 <alarm_pool_irq_handler+0x2d8>)
100036f2:	4c0e      	ldr	r4, [pc, #56]	@ (1000372c <alarm_pool_irq_handler+0x2dc>)
100036f4:	e6bc      	b.n	10003470 <alarm_pool_irq_handler+0x20>
100036f6:	4620      	mov	r0, r4
100036f8:	9303      	str	r3, [sp, #12]
100036fa:	9201      	str	r2, [sp, #4]
100036fc:	f000 fab0 	bl	10003c60 <timer_time_us_64>
10003700:	9a01      	ldr	r2, [sp, #4]
10003702:	9b03      	ldr	r3, [sp, #12]
10003704:	eb10 0e02 	adds.w	lr, r0, r2
10003708:	eb43 0801 	adc.w	r8, r3, r1
1000370c:	e726      	b.n	1000355c <alarm_pool_irq_handler+0x10c>
1000370e:	bf00      	nop
10003710:	ffffffff 	.word	0xffffffff
10003714:	ffffffff 	.word	0xffffffff
10003718:	400bb044 	.word	0x400bb044
1000371c:	400b8000 	.word	0x400b8000
10003720:	20002644 	.word	0x20002644
10003724:	10003451 	.word	0x10003451
10003728:	400b3044 	.word	0x400b3044
1000372c:	400b0000 	.word	0x400b0000
10003730:	4608      	mov	r0, r1
10003732:	690b      	ldr	r3, [r1, #16]
10003734:	9103      	str	r1, [sp, #12]
10003736:	4798      	blx	r3
10003738:	2800      	cmp	r0, #0
1000373a:	d0b6      	beq.n	100036aa <alarm_pool_irq_handler+0x25a>
1000373c:	9903      	ldr	r1, [sp, #12]
1000373e:	e9d1 2300 	ldrd	r2, r3, [r1]
10003742:	e6ff      	b.n	10003544 <alarm_pool_irq_handler+0xf4>

10003744 <runtime_init_default_alarm_pool>:
10003744:	b538      	push	{r3, r4, r5, lr}
10003746:	4b38      	ldr	r3, [pc, #224]	@ (10003828 <runtime_init_default_alarm_pool+0xe4>)
10003748:	691c      	ldr	r4, [r3, #16]
1000374a:	b12c      	cbz	r4, 10003758 <runtime_init_default_alarm_pool+0x14>
1000374c:	e8bd 4038 	ldmia.w	sp!, {r3, r4, r5, lr}
10003750:	210a      	movs	r1, #10
10003752:	4836      	ldr	r0, [pc, #216]	@ (1000382c <runtime_init_default_alarm_pool+0xe8>)
10003754:	f7ff be0a 	b.w	1000336c <lock_init>
10003758:	2103      	movs	r1, #3
1000375a:	4835      	ldr	r0, [pc, #212]	@ (10003830 <runtime_init_default_alarm_pool+0xec>)
1000375c:	f000 fa6e 	bl	10003c3c <timer_hardware_alarm_claim>
10003760:	4d33      	ldr	r5, [pc, #204]	@ (10003830 <runtime_init_default_alarm_pool+0xec>)
10003762:	4b31      	ldr	r3, [pc, #196]	@ (10003828 <runtime_init_default_alarm_pool+0xe4>)
10003764:	60dd      	str	r5, [r3, #12]
10003766:	f7ff fab9 	bl	10002cdc <next_striped_spin_lock_num>
1000376a:	4a32      	ldr	r2, [pc, #200]	@ (10003834 <runtime_init_default_alarm_pool+0xf0>)
1000376c:	f04f 4e50 	mov.w	lr, #3489660928	@ 0xd0000000
10003770:	4402      	add	r2, r0
10003772:	2003      	movs	r0, #3
10003774:	4b2c      	ldr	r3, [pc, #176]	@ (10003828 <runtime_init_default_alarm_pool+0xe4>)
10003776:	f04f 0c0f 	mov.w	ip, #15
1000377a:	7018      	strb	r0, [r3, #0]
1000377c:	611a      	str	r2, [r3, #16]
1000377e:	f8de 2000 	ldr.w	r2, [lr]
10003782:	f64f 71ff 	movw	r1, #65535	@ 0xffff
10003786:	705a      	strb	r2, [r3, #1]
10003788:	695a      	ldr	r2, [r3, #20]
1000378a:	f8a3 c002 	strh.w	ip, [r3, #2]
1000378e:	8314      	strh	r4, [r2, #24]
10003790:	f04f 0402 	mov.w	r4, #2
10003794:	f8a2 4048 	strh.w	r4, [r2, #72]	@ 0x48
10003798:	f04f 0404 	mov.w	r4, #4
1000379c:	f8a2 4078 	strh.w	r4, [r2, #120]	@ 0x78
100037a0:	f04f 0405 	mov.w	r4, #5
100037a4:	f8a2 4090 	strh.w	r4, [r2, #144]	@ 0x90
100037a8:	f04f 0406 	mov.w	r4, #6
100037ac:	f8a2 40a8 	strh.w	r4, [r2, #168]	@ 0xa8
100037b0:	f04f 0407 	mov.w	r4, #7
100037b4:	f8a2 40c0 	strh.w	r4, [r2, #192]	@ 0xc0
100037b8:	f04f 0409 	mov.w	r4, #9
100037bc:	f8a2 40f0 	strh.w	r4, [r2, #240]	@ 0xf0
100037c0:	f04f 040a 	mov.w	r4, #10
100037c4:	f8a2 4108 	strh.w	r4, [r2, #264]	@ 0x108
100037c8:	f04f 040b 	mov.w	r4, #11
100037cc:	f8a2 4120 	strh.w	r4, [r2, #288]	@ 0x120
100037d0:	f04f 040c 	mov.w	r4, #12
100037d4:	f8a2 4138 	strh.w	r4, [r2, #312]	@ 0x138
100037d8:	f04f 0401 	mov.w	r4, #1
100037dc:	8614      	strh	r4, [r2, #48]	@ 0x30
100037de:	f04f 0408 	mov.w	r4, #8
100037e2:	f8a2 40d8 	strh.w	r4, [r2, #216]	@ 0xd8
100037e6:	4c14      	ldr	r4, [pc, #80]	@ (10003838 <runtime_init_default_alarm_pool+0xf4>)
100037e8:	f04f 0e0d 	mov.w	lr, #13
100037ec:	f04f 0c0e 	mov.w	ip, #14
100037f0:	609c      	str	r4, [r3, #8]
100037f2:	2408      	movs	r4, #8
100037f4:	8099      	strh	r1, [r3, #4]
100037f6:	f8a2 e150 	strh.w	lr, [r2, #336]	@ 0x150
100037fa:	f8a2 c168 	strh.w	ip, [r2, #360]	@ 0x168
100037fe:	f8a2 0060 	strh.w	r0, [r2, #96]	@ 0x60
10003802:	8011      	strh	r1, [r2, #0]
10003804:	4a0d      	ldr	r2, [pc, #52]	@ (1000383c <runtime_init_default_alarm_pool+0xf8>)
10003806:	622c      	str	r4, [r5, #32]
10003808:	490d      	ldr	r1, [pc, #52]	@ (10003840 <runtime_init_default_alarm_pool+0xfc>)
1000380a:	60d3      	str	r3, [r2, #12]
1000380c:	f7ff fafa 	bl	10002e04 <irq_set_exclusive_handler>
10003810:	2101      	movs	r1, #1
10003812:	2003      	movs	r0, #3
10003814:	f7ff fab4 	bl	10002d80 <irq_set_enabled>
10003818:	4b0a      	ldr	r3, [pc, #40]	@ (10003844 <runtime_init_default_alarm_pool+0x100>)
1000381a:	210a      	movs	r1, #10
1000381c:	641c      	str	r4, [r3, #64]	@ 0x40
1000381e:	4803      	ldr	r0, [pc, #12]	@ (1000382c <runtime_init_default_alarm_pool+0xe8>)
10003820:	e8bd 4038 	ldmia.w	sp!, {r3, r4, r5, lr}
10003824:	f7ff bda2 	b.w	1000336c <lock_init>
10003828:	200015e8 	.word	0x200015e8
1000382c:	2000268c 	.word	0x2000268c
10003830:	400b0000 	.word	0x400b0000
10003834:	20001d7c 	.word	0x20001d7c
10003838:	0010ffff 	.word	0x0010ffff
1000383c:	20002644 	.word	0x20002644
10003840:	10003451 	.word	0x10003451
10003844:	400b2000 	.word	0x400b2000

10003848 <alarm_pool_get_default>:
10003848:	4800      	ldr	r0, [pc, #0]	@ (1000384c <alarm_pool_get_default+0x4>)
1000384a:	4770      	bx	lr
1000384c:	200015e8 	.word	0x200015e8

10003850 <alarm_pool_add_alarm_at>:
10003850:	b5f0      	push	{r4, r5, r6, r7, lr}
10003852:	b083      	sub	sp, #12
10003854:	f89d 5028 	ldrb.w	r5, [sp, #40]	@ 0x28
10003858:	4604      	mov	r4, r0
1000385a:	b955      	cbnz	r5, 10003872 <alarm_pool_add_alarm_at+0x22>
1000385c:	e9cd 2300 	strd	r2, r3, [sp]
10003860:	f000 fa06 	bl	10003c70 <time_us_64>
10003864:	9a00      	ldr	r2, [sp, #0]
10003866:	9b01      	ldr	r3, [sp, #4]
10003868:	4282      	cmp	r2, r0
1000386a:	eb63 0101 	sbc.w	r1, r3, r1
1000386e:	42a9      	cmp	r1, r5
10003870:	db5c      	blt.n	1000392c <alarm_pool_add_alarm_at+0xdc>
10003872:	6921      	ldr	r1, [r4, #16]
10003874:	f3ef 8010 	mrs	r0, PRIMASK
10003878:	b672      	cpsid	i
1000387a:	e8d1 6fcf 	ldaexb	r6, [r1]
1000387e:	2501      	movs	r5, #1
10003880:	2e00      	cmp	r6, #0
10003882:	d1fa      	bne.n	1000387a <alarm_pool_add_alarm_at+0x2a>
10003884:	e8c1 5f46 	strexb	r6, r5, [r1]
10003888:	2e00      	cmp	r6, #0
1000388a:	d1f6      	bne.n	1000387a <alarm_pool_add_alarm_at+0x2a>
1000388c:	f3bf 8f5f 	dmb	sy
10003890:	f9b4 5002 	ldrsh.w	r5, [r4, #2]
10003894:	6927      	ldr	r7, [r4, #16]
10003896:	2d00      	cmp	r5, #0
10003898:	db3f      	blt.n	1000391a <alarm_pool_add_alarm_at+0xca>
1000389a:	f8d4 c014 	ldr.w	ip, [r4, #20]
1000389e:	eb05 0e45 	add.w	lr, r5, r5, lsl #1
100038a2:	f83c 103e 	ldrh.w	r1, [ip, lr, lsl #3]
100038a6:	2600      	movs	r6, #0
100038a8:	8061      	strh	r1, [r4, #2]
100038aa:	eb0c 01ce 	add.w	r1, ip, lr, lsl #3
100038ae:	e8c7 6f8f 	stlb	r6, [r7]
100038b2:	f380 8810 	msr	PRIMASK, r0
100038b6:	8848      	ldrh	r0, [r1, #2]
100038b8:	e9c1 2302 	strd	r2, r3, [r1, #8]
100038bc:	3001      	adds	r0, #1
100038be:	f3c0 000e 	ubfx	r0, r0, #0, #15
100038c2:	2801      	cmp	r0, #1
100038c4:	bf38      	it	cc
100038c6:	2001      	movcc	r0, #1
100038c8:	9b08      	ldr	r3, [sp, #32]
100038ca:	8048      	strh	r0, [r1, #2]
100038cc:	610b      	str	r3, [r1, #16]
100038ce:	9b09      	ldr	r3, [sp, #36]	@ 0x24
100038d0:	ea40 4005 	orr.w	r0, r0, r5, lsl #16
100038d4:	614b      	str	r3, [r1, #20]
100038d6:	6923      	ldr	r3, [r4, #16]
100038d8:	f3ef 8210 	mrs	r2, PRIMASK
100038dc:	b672      	cpsid	i
100038de:	e8d3 7fcf 	ldaexb	r7, [r3]
100038e2:	2101      	movs	r1, #1
100038e4:	2f00      	cmp	r7, #0
100038e6:	d1fa      	bne.n	100038de <alarm_pool_add_alarm_at+0x8e>
100038e8:	e8c3 1f47 	strexb	r7, r1, [r3]
100038ec:	2f00      	cmp	r7, #0
100038ee:	d1f6      	bne.n	100038de <alarm_pool_add_alarm_at+0x8e>
100038f0:	f3bf 8f5f 	dmb	sy
100038f4:	f9b4 3004 	ldrsh.w	r3, [r4, #4]
100038f8:	f82c 303e 	strh.w	r3, [ip, lr, lsl #3]
100038fc:	6923      	ldr	r3, [r4, #16]
100038fe:	80a5      	strh	r5, [r4, #4]
10003900:	e8c3 6f8f 	stlb	r6, [r3]
10003904:	f382 8810 	msr	PRIMASK, r2
10003908:	2201      	movs	r2, #1
1000390a:	68e3      	ldr	r3, [r4, #12]
1000390c:	7821      	ldrb	r1, [r4, #0]
1000390e:	f503 5301 	add.w	r3, r3, #8256	@ 0x2040
10003912:	408a      	lsls	r2, r1
10003914:	605a      	str	r2, [r3, #4]
10003916:	b003      	add	sp, #12
10003918:	bdf0      	pop	{r4, r5, r6, r7, pc}
1000391a:	2300      	movs	r3, #0
1000391c:	e8c7 3f8f 	stlb	r3, [r7]
10003920:	f380 8810 	msr	PRIMASK, r0
10003924:	f04f 30ff 	mov.w	r0, #4294967295	@ 0xffffffff
10003928:	b003      	add	sp, #12
1000392a:	bdf0      	pop	{r4, r5, r6, r7, pc}
1000392c:	4628      	mov	r0, r5
1000392e:	b003      	add	sp, #12
10003930:	bdf0      	pop	{r4, r5, r6, r7, pc}
10003932:	bf00      	nop

10003934 <alarm_pool_add_alarm_at_force_in_context>:
10003934:	b5f0      	push	{r4, r5, r6, r7, lr}
10003936:	4601      	mov	r1, r0
10003938:	461f      	mov	r7, r3
1000393a:	4616      	mov	r6, r2
1000393c:	6903      	ldr	r3, [r0, #16]
1000393e:	f3ef 8010 	mrs	r0, PRIMASK
10003942:	b672      	cpsid	i
10003944:	e8d3 4fcf 	ldaexb	r4, [r3]
10003948:	2201      	movs	r2, #1
1000394a:	2c00      	cmp	r4, #0
1000394c:	d1fa      	bne.n	10003944 <alarm_pool_add_alarm_at_force_in_context+0x10>
1000394e:	e8c3 2f44 	strexb	r4, r2, [r3]
10003952:	2c00      	cmp	r4, #0
10003954:	d1f6      	bne.n	10003944 <alarm_pool_add_alarm_at_force_in_context+0x10>
10003956:	f3bf 8f5f 	dmb	sy
1000395a:	f9b1 3002 	ldrsh.w	r3, [r1, #2]
1000395e:	690d      	ldr	r5, [r1, #16]
10003960:	2b00      	cmp	r3, #0
10003962:	db45      	blt.n	100039f0 <alarm_pool_add_alarm_at_force_in_context+0xbc>
10003964:	f8d1 e014 	ldr.w	lr, [r1, #20]
10003968:	eb03 0243 	add.w	r2, r3, r3, lsl #1
1000396c:	f83e 4032 	ldrh.w	r4, [lr, r2, lsl #3]
10003970:	eb0e 0cc2 	add.w	ip, lr, r2, lsl #3
10003974:	804c      	strh	r4, [r1, #2]
10003976:	2400      	movs	r4, #0
10003978:	e8c5 4f8f 	stlb	r4, [r5]
1000397c:	f380 8810 	msr	PRIMASK, r0
10003980:	9805      	ldr	r0, [sp, #20]
10003982:	4635      	mov	r5, r6
10003984:	f8cc 0010 	str.w	r0, [ip, #16]
10003988:	9806      	ldr	r0, [sp, #24]
1000398a:	463e      	mov	r6, r7
1000398c:	f8cc 0014 	str.w	r0, [ip, #20]
10003990:	f8bc 0002 	ldrh.w	r0, [ip, #2]
10003994:	e9cc 5602 	strd	r5, r6, [ip, #8]
10003998:	3001      	adds	r0, #1
1000399a:	f3c0 000e 	ubfx	r0, r0, #0, #15
1000399e:	2801      	cmp	r0, #1
100039a0:	bf38      	it	cc
100039a2:	2001      	movcc	r0, #1
100039a4:	f8ac 0002 	strh.w	r0, [ip, #2]
100039a8:	ea40 4003 	orr.w	r0, r0, r3, lsl #16
100039ac:	f8d1 c010 	ldr.w	ip, [r1, #16]
100039b0:	f3ef 8510 	mrs	r5, PRIMASK
100039b4:	b672      	cpsid	i
100039b6:	e8dc 7fcf 	ldaexb	r7, [ip]
100039ba:	2601      	movs	r6, #1
100039bc:	2f00      	cmp	r7, #0
100039be:	d1fa      	bne.n	100039b6 <alarm_pool_add_alarm_at_force_in_context+0x82>
100039c0:	e8cc 6f47 	strexb	r7, r6, [ip]
100039c4:	2f00      	cmp	r7, #0
100039c6:	d1f6      	bne.n	100039b6 <alarm_pool_add_alarm_at_force_in_context+0x82>
100039c8:	f3bf 8f5f 	dmb	sy
100039cc:	f9b1 c004 	ldrsh.w	ip, [r1, #4]
100039d0:	f82e c032 	strh.w	ip, [lr, r2, lsl #3]
100039d4:	808b      	strh	r3, [r1, #4]
100039d6:	690b      	ldr	r3, [r1, #16]
100039d8:	e8c3 4f8f 	stlb	r4, [r3]
100039dc:	f385 8810 	msr	PRIMASK, r5
100039e0:	2201      	movs	r2, #1
100039e2:	68cb      	ldr	r3, [r1, #12]
100039e4:	7809      	ldrb	r1, [r1, #0]
100039e6:	f503 5301 	add.w	r3, r3, #8256	@ 0x2040
100039ea:	408a      	lsls	r2, r1
100039ec:	605a      	str	r2, [r3, #4]
100039ee:	bdf0      	pop	{r4, r5, r6, r7, pc}
100039f0:	2300      	movs	r3, #0
100039f2:	e8c5 3f8f 	stlb	r3, [r5]
100039f6:	f380 8810 	msr	PRIMASK, r0
100039fa:	f04f 30ff 	mov.w	r0, #4294967295	@ 0xffffffff
100039fe:	bdf0      	pop	{r4, r5, r6, r7, pc}

10003a00 <alarm_pool_cancel_alarm>:
10003a00:	4603      	mov	r3, r0
10003a02:	8940      	ldrh	r0, [r0, #10]
10003a04:	ebb0 4f21 	cmp.w	r0, r1, asr #16
10003a08:	dd3b      	ble.n	10003a82 <alarm_pool_cancel_alarm+0x82>
10003a0a:	6958      	ldr	r0, [r3, #20]
10003a0c:	140a      	asrs	r2, r1, #16
10003a0e:	eb02 0242 	add.w	r2, r2, r2, lsl #1
10003a12:	b510      	push	{r4, lr}
10003a14:	f8d3 c010 	ldr.w	ip, [r3, #16]
10003a18:	eb00 02c2 	add.w	r2, r0, r2, lsl #3
10003a1c:	f3ef 8010 	mrs	r0, PRIMASK
10003a20:	b672      	cpsid	i
10003a22:	e8dc 4fcf 	ldaexb	r4, [ip]
10003a26:	f05f 0e01 	movs.w	lr, #1
10003a2a:	2c00      	cmp	r4, #0
10003a2c:	d1f9      	bne.n	10003a22 <alarm_pool_cancel_alarm+0x22>
10003a2e:	e8cc ef44 	strexb	r4, lr, [ip]
10003a32:	2c00      	cmp	r4, #0
10003a34:	d1f5      	bne.n	10003a22 <alarm_pool_cancel_alarm+0x22>
10003a36:	f3bf 8f5f 	dmb	sy
10003a3a:	f8b2 c002 	ldrh.w	ip, [r2, #2]
10003a3e:	b289      	uxth	r1, r1
10003a40:	4561      	cmp	r1, ip
10003a42:	d007      	beq.n	10003a54 <alarm_pool_cancel_alarm+0x54>
10003a44:	2200      	movs	r2, #0
10003a46:	691b      	ldr	r3, [r3, #16]
10003a48:	e8c3 2f8f 	stlb	r2, [r3]
10003a4c:	f380 8810 	msr	PRIMASK, r0
10003a50:	2000      	movs	r0, #0
10003a52:	bd10      	pop	{r4, pc}
10003a54:	ea6f 4141 	mvn.w	r1, r1, lsl #17
10003a58:	ea6f 4151 	mvn.w	r1, r1, lsr #17
10003a5c:	8051      	strh	r1, [r2, #2]
10003a5e:	2101      	movs	r1, #1
10003a60:	2200      	movs	r2, #0
10003a62:	7199      	strb	r1, [r3, #6]
10003a64:	691c      	ldr	r4, [r3, #16]
10003a66:	e8c4 2f8f 	stlb	r2, [r4]
10003a6a:	f380 8810 	msr	PRIMASK, r0
10003a6e:	f893 c000 	ldrb.w	ip, [r3]
10003a72:	68da      	ldr	r2, [r3, #12]
10003a74:	4608      	mov	r0, r1
10003a76:	f502 5301 	add.w	r3, r2, #8256	@ 0x2040
10003a7a:	fa01 f10c 	lsl.w	r1, r1, ip
10003a7e:	6059      	str	r1, [r3, #4]
10003a80:	bd10      	pop	{r4, pc}
10003a82:	2000      	movs	r0, #0
10003a84:	4770      	bx	lr
10003a86:	bf00      	nop

10003a88 <alarm_pool_core_num>:
10003a88:	7840      	ldrb	r0, [r0, #1]
10003a8a:	4770      	bx	lr

10003a8c <sleep_ms>:
10003a8c:	e92d 41f0 	stmdb	sp!, {r4, r5, r6, r7, r8, lr}
10003a90:	b082      	sub	sp, #8
10003a92:	4606      	mov	r6, r0
10003a94:	f000 f8ec 	bl	10003c70 <time_us_64>
10003a98:	f44f 737a 	mov.w	r3, #1000	@ 0x3e8
10003a9c:	4604      	mov	r4, r0
10003a9e:	f04f 30ff 	mov.w	r0, #4294967295	@ 0xffffffff
10003aa2:	f06f 4200 	mvn.w	r2, #2147483648	@ 0x80000000
10003aa6:	fbe6 4103 	umlal	r4, r1, r6, r3
10003aaa:	42a0      	cmp	r0, r4
10003aac:	eb72 0301 	sbcs.w	r3, r2, r1
10003ab0:	bf3a      	itte	cc
10003ab2:	4604      	movcc	r4, r0
10003ab4:	4615      	movcc	r5, r2
10003ab6:	460d      	movcs	r5, r1
10003ab8:	1fa6      	subs	r6, r4, #6
10003aba:	f145 37ff 	adc.w	r7, r5, #4294967295	@ 0xffffffff
10003abe:	42b4      	cmp	r4, r6
10003ac0:	eb75 0307 	sbcs.w	r3, r5, r7
10003ac4:	bf3c      	itt	cc
10003ac6:	2600      	movcc	r6, #0
10003ac8:	4637      	movcc	r7, r6
10003aca:	f000 f8d1 	bl	10003c70 <time_us_64>
10003ace:	1a30      	subs	r0, r6, r0
10003ad0:	eb67 0101 	sbc.w	r1, r7, r1
10003ad4:	2801      	cmp	r0, #1
10003ad6:	f171 0100 	sbcs.w	r1, r1, #0
10003ada:	da06      	bge.n	10003aea <sleep_ms+0x5e>
10003adc:	4620      	mov	r0, r4
10003ade:	4629      	mov	r1, r5
10003ae0:	b002      	add	sp, #8
10003ae2:	e8bd 41f0 	ldmia.w	sp!, {r4, r5, r6, r7, r8, lr}
10003ae6:	f000 b8cd 	b.w	10003c84 <busy_wait_until>
10003aea:	f000 f8c1 	bl	10003c70 <time_us_64>
10003aee:	4286      	cmp	r6, r0
10003af0:	eb67 0101 	sbc.w	r1, r7, r1
10003af4:	2900      	cmp	r1, #0
10003af6:	db0a      	blt.n	10003b0e <sleep_ms+0x82>
10003af8:	2100      	movs	r1, #0
10003afa:	4b17      	ldr	r3, [pc, #92]	@ (10003b58 <sleep_ms+0xcc>)
10003afc:	4632      	mov	r2, r6
10003afe:	9300      	str	r3, [sp, #0]
10003b00:	4816      	ldr	r0, [pc, #88]	@ (10003b5c <sleep_ms+0xd0>)
10003b02:	463b      	mov	r3, r7
10003b04:	9101      	str	r1, [sp, #4]
10003b06:	f7ff ff15 	bl	10003934 <alarm_pool_add_alarm_at_force_in_context>
10003b0a:	3001      	adds	r0, #1
10003b0c:	d0e6      	beq.n	10003adc <sleep_ms+0x50>
10003b0e:	f04f 0c00 	mov.w	ip, #0
10003b12:	4a13      	ldr	r2, [pc, #76]	@ (10003b60 <sleep_ms+0xd4>)
10003b14:	4913      	ldr	r1, [pc, #76]	@ (10003b64 <sleep_ms+0xd8>)
10003b16:	6a53      	ldr	r3, [r2, #36]	@ 0x24
10003b18:	429f      	cmp	r7, r3
10003b1a:	d804      	bhi.n	10003b26 <sleep_ms+0x9a>
10003b1c:	6a90      	ldr	r0, [r2, #40]	@ 0x28
10003b1e:	42b0      	cmp	r0, r6
10003b20:	d2dc      	bcs.n	10003adc <sleep_ms+0x50>
10003b22:	429f      	cmp	r7, r3
10003b24:	d1da      	bne.n	10003adc <sleep_ms+0x50>
10003b26:	680b      	ldr	r3, [r1, #0]
10003b28:	f3ef 8010 	mrs	r0, PRIMASK
10003b2c:	b672      	cpsid	i
10003b2e:	e8d3 8fcf 	ldaexb	r8, [r3]
10003b32:	f05f 0e01 	movs.w	lr, #1
10003b36:	f1b8 0f00 	cmp.w	r8, #0
10003b3a:	d1f8      	bne.n	10003b2e <sleep_ms+0xa2>
10003b3c:	e8c3 ef48 	strexb	r8, lr, [r3]
10003b40:	f1b8 0f00 	cmp.w	r8, #0
10003b44:	d1f3      	bne.n	10003b2e <sleep_ms+0xa2>
10003b46:	f3bf 8f5f 	dmb	sy
10003b4a:	680b      	ldr	r3, [r1, #0]
10003b4c:	e8c3 cf8f 	stlb	ip, [r3]
10003b50:	f380 8810 	msr	PRIMASK, r0
10003b54:	bf20      	wfe
10003b56:	e7de      	b.n	10003b16 <sleep_ms+0x8a>
10003b58:	10003415 	.word	0x10003415
10003b5c:	200015e8 	.word	0x200015e8
10003b60:	400b0000 	.word	0x400b0000
10003b64:	2000268c 	.word	0x2000268c

10003b68 <best_effort_wfe_or_timeout>:
10003b68:	4602      	mov	r2, r0
10003b6a:	f3ef 8305 	mrs	r3, IPSR
10003b6e:	b2db      	uxtb	r3, r3
10003b70:	b17b      	cbz	r3, 10003b92 <best_effort_wfe_or_timeout+0x2a>
10003b72:	482f      	ldr	r0, [pc, #188]	@ (10003c30 <best_effort_wfe_or_timeout+0xc8>)
10003b74:	6a43      	ldr	r3, [r0, #36]	@ 0x24
10003b76:	428b      	cmp	r3, r1
10003b78:	d309      	bcc.n	10003b8e <best_effort_wfe_or_timeout+0x26>
10003b7a:	bf14      	ite	ne
10003b7c:	2301      	movne	r3, #1
10003b7e:	2300      	moveq	r3, #0
10003b80:	6a81      	ldr	r1, [r0, #40]	@ 0x28
10003b82:	4291      	cmp	r1, r2
10003b84:	bf34      	ite	cc
10003b86:	4618      	movcc	r0, r3
10003b88:	f043 0001 	orrcs.w	r0, r3, #1
10003b8c:	4770      	bx	lr
10003b8e:	2000      	movs	r0, #0
10003b90:	4770      	bx	lr
10003b92:	b570      	push	{r4, r5, r6, lr}
10003b94:	b084      	sub	sp, #16
10003b96:	9303      	str	r3, [sp, #12]
10003b98:	4b26      	ldr	r3, [pc, #152]	@ (10003c34 <best_effort_wfe_or_timeout+0xcc>)
10003b9a:	4606      	mov	r6, r0
10003b9c:	68da      	ldr	r2, [r3, #12]
10003b9e:	781d      	ldrb	r5, [r3, #0]
10003ba0:	4610      	mov	r0, r2
10003ba2:	460c      	mov	r4, r1
10003ba4:	9202      	str	r2, [sp, #8]
10003ba6:	f000 f85b 	bl	10003c60 <timer_time_us_64>
10003baa:	9a02      	ldr	r2, [sp, #8]
10003bac:	f105 0c04 	add.w	ip, r5, #4
10003bb0:	f852 c02c 	ldr.w	ip, [r2, ip, lsl #2]
10003bb4:	9b03      	ldr	r3, [sp, #12]
10003bb6:	ebac 0c00 	sub.w	ip, ip, r0
10003bba:	1a30      	subs	r0, r6, r0
10003bbc:	eb64 0101 	sbc.w	r1, r4, r1
10003bc0:	4560      	cmp	r0, ip
10003bc2:	f171 0100 	sbcs.w	r1, r1, #0
10003bc6:	db11      	blt.n	10003bec <best_effort_wfe_or_timeout+0x84>
10003bc8:	bf20      	wfe
10003bca:	4b19      	ldr	r3, [pc, #100]	@ (10003c30 <best_effort_wfe_or_timeout+0xc8>)
10003bcc:	6a5a      	ldr	r2, [r3, #36]	@ 0x24
10003bce:	42a2      	cmp	r2, r4
10003bd0:	d309      	bcc.n	10003be6 <best_effort_wfe_or_timeout+0x7e>
10003bd2:	bf14      	ite	ne
10003bd4:	2001      	movne	r0, #1
10003bd6:	2000      	moveq	r0, #0
10003bd8:	6a9b      	ldr	r3, [r3, #40]	@ 0x28
10003bda:	42b3      	cmp	r3, r6
10003bdc:	bf28      	it	cs
10003bde:	f040 0001 	orrcs.w	r0, r0, #1
10003be2:	b004      	add	sp, #16
10003be4:	bd70      	pop	{r4, r5, r6, pc}
10003be6:	2000      	movs	r0, #0
10003be8:	b004      	add	sp, #16
10003bea:	bd70      	pop	{r4, r5, r6, pc}
10003bec:	9302      	str	r3, [sp, #8]
10003bee:	f000 f83f 	bl	10003c70 <time_us_64>
10003bf2:	4286      	cmp	r6, r0
10003bf4:	eb64 0101 	sbc.w	r1, r4, r1
10003bf8:	2900      	cmp	r1, #0
10003bfa:	4632      	mov	r2, r6
10003bfc:	dbe5      	blt.n	10003bca <best_effort_wfe_or_timeout+0x62>
10003bfe:	490e      	ldr	r1, [pc, #56]	@ (10003c38 <best_effort_wfe_or_timeout+0xd0>)
10003c00:	9b02      	ldr	r3, [sp, #8]
10003c02:	480c      	ldr	r0, [pc, #48]	@ (10003c34 <best_effort_wfe_or_timeout+0xcc>)
10003c04:	e9cd 1300 	strd	r1, r3, [sp]
10003c08:	4623      	mov	r3, r4
10003c0a:	f7ff fe93 	bl	10003934 <alarm_pool_add_alarm_at_force_in_context>
10003c0e:	1e01      	subs	r1, r0, #0
10003c10:	dddb      	ble.n	10003bca <best_effort_wfe_or_timeout+0x62>
10003c12:	4b07      	ldr	r3, [pc, #28]	@ (10003c30 <best_effort_wfe_or_timeout+0xc8>)
10003c14:	6a5a      	ldr	r2, [r3, #36]	@ 0x24
10003c16:	42a2      	cmp	r2, r4
10003c18:	d308      	bcc.n	10003c2c <best_effort_wfe_or_timeout+0xc4>
10003c1a:	6a9b      	ldr	r3, [r3, #40]	@ 0x28
10003c1c:	42b3      	cmp	r3, r6
10003c1e:	d303      	bcc.n	10003c28 <best_effort_wfe_or_timeout+0xc0>
10003c20:	4804      	ldr	r0, [pc, #16]	@ (10003c34 <best_effort_wfe_or_timeout+0xcc>)
10003c22:	f7ff feed 	bl	10003a00 <alarm_pool_cancel_alarm>
10003c26:	e7d0      	b.n	10003bca <best_effort_wfe_or_timeout+0x62>
10003c28:	42a2      	cmp	r2, r4
10003c2a:	d1f9      	bne.n	10003c20 <best_effort_wfe_or_timeout+0xb8>
10003c2c:	bf20      	wfe
10003c2e:	e7f7      	b.n	10003c20 <best_effort_wfe_or_timeout+0xb8>
10003c30:	400b0000 	.word	0x400b0000
10003c34:	200015e8 	.word	0x200015e8
10003c38:	10003415 	.word	0x10003415

10003c3c <timer_hardware_alarm_claim>:
10003c3c:	b410      	push	{r4}
10003c3e:	4b05      	ldr	r3, [pc, #20]	@ (10003c54 <timer_hardware_alarm_claim+0x18>)
10003c40:	4c05      	ldr	r4, [pc, #20]	@ (10003c58 <timer_hardware_alarm_claim+0x1c>)
10003c42:	4a06      	ldr	r2, [pc, #24]	@ (10003c5c <timer_hardware_alarm_claim+0x20>)
10003c44:	42a0      	cmp	r0, r4
10003c46:	bf14      	ite	ne
10003c48:	4618      	movne	r0, r3
10003c4a:	1c58      	addeq	r0, r3, #1
10003c4c:	bc10      	pop	{r4}
10003c4e:	f7fe bfd7 	b.w	10002c00 <hw_claim_or_assert>
10003c52:	bf00      	nop
10003c54:	200021b0 	.word	0x200021b0
10003c58:	400b8000 	.word	0x400b8000
10003c5c:	10009968 	.word	0x10009968

10003c60 <timer_time_us_64>:
10003c60:	4603      	mov	r3, r0
10003c62:	6a41      	ldr	r1, [r0, #36]	@ 0x24
10003c64:	460a      	mov	r2, r1
10003c66:	6a98      	ldr	r0, [r3, #40]	@ 0x28
10003c68:	6a59      	ldr	r1, [r3, #36]	@ 0x24
10003c6a:	428a      	cmp	r2, r1
10003c6c:	d1fa      	bne.n	10003c64 <timer_time_us_64+0x4>
10003c6e:	4770      	bx	lr

10003c70 <time_us_64>:
10003c70:	4b03      	ldr	r3, [pc, #12]	@ (10003c80 <time_us_64+0x10>)
10003c72:	6a59      	ldr	r1, [r3, #36]	@ 0x24
10003c74:	460a      	mov	r2, r1
10003c76:	6a98      	ldr	r0, [r3, #40]	@ 0x28
10003c78:	6a59      	ldr	r1, [r3, #36]	@ 0x24
10003c7a:	4291      	cmp	r1, r2
10003c7c:	d1fa      	bne.n	10003c74 <time_us_64+0x4>
10003c7e:	4770      	bx	lr
10003c80:	400b0000 	.word	0x400b0000

10003c84 <busy_wait_until>:
10003c84:	4a07      	ldr	r2, [pc, #28]	@ (10003ca4 <busy_wait_until+0x20>)
10003c86:	6a53      	ldr	r3, [r2, #36]	@ 0x24
10003c88:	4299      	cmp	r1, r3
10003c8a:	d8fc      	bhi.n	10003c86 <busy_wait_until+0x2>
10003c8c:	4299      	cmp	r1, r3
10003c8e:	d107      	bne.n	10003ca0 <busy_wait_until+0x1c>
10003c90:	4b04      	ldr	r3, [pc, #16]	@ (10003ca4 <busy_wait_until+0x20>)
10003c92:	e002      	b.n	10003c9a <busy_wait_until+0x16>
10003c94:	6a5a      	ldr	r2, [r3, #36]	@ 0x24
10003c96:	4291      	cmp	r1, r2
10003c98:	d102      	bne.n	10003ca0 <busy_wait_until+0x1c>
10003c9a:	6a9a      	ldr	r2, [r3, #40]	@ 0x28
10003c9c:	4282      	cmp	r2, r0
10003c9e:	d3f9      	bcc.n	10003c94 <busy_wait_until+0x10>
10003ca0:	4770      	bx	lr
10003ca2:	bf00      	nop
10003ca4:	400b0000 	.word	0x400b0000

10003ca8 <clock_configure_undivided>:
10003ca8:	eb00 0c40 	add.w	ip, r0, r0, lsl #1
10003cac:	ea4f 0c8c 	mov.w	ip, ip, lsl #2
10003cb0:	f10c 4c80 	add.w	ip, ip, #1073741824	@ 0x40000000
10003cb4:	f50c 3c80 	add.w	ip, ip, #65536	@ 0x10000
10003cb8:	b570      	push	{r4, r5, r6, lr}
10003cba:	461e      	mov	r6, r3
10003cbc:	f8dc 3004 	ldr.w	r3, [ip, #4]
10003cc0:	1f04      	subs	r4, r0, #4
10003cc2:	f5b3 3f80 	cmp.w	r3, #65536	@ 0x10000
10003cc6:	bf38      	it	cc
10003cc8:	f44f 3380 	movcc.w	r3, #65536	@ 0x10000
10003ccc:	b2e4      	uxtb	r4, r4
10003cce:	bf38      	it	cc
10003cd0:	f8cc 3004 	strcc.w	r3, [ip, #4]
10003cd4:	2c01      	cmp	r4, #1
10003cd6:	f50c 5340 	add.w	r3, ip, #12288	@ 0x3000
10003cda:	d92c      	bls.n	10003d36 <clock_configure_undivided+0x8e>
10003cdc:	f44f 6e00 	mov.w	lr, #2048	@ 0x800
10003ce0:	f8c3 e000 	str.w	lr, [r3]
10003ce4:	4b25      	ldr	r3, [pc, #148]	@ (10003d7c <clock_configure_undivided+0xd4>)
10003ce6:	f853 e020 	ldr.w	lr, [r3, r0, lsl #2]
10003cea:	f1be 0f00 	cmp.w	lr, #0
10003cee:	d117      	bne.n	10003d20 <clock_configure_undivided+0x78>
10003cf0:	f8dc e000 	ldr.w	lr, [ip]
10003cf4:	2c01      	cmp	r4, #1
10003cf6:	ea8e 1242 	eor.w	r2, lr, r2, lsl #5
10003cfa:	f002 02e0 	and.w	r2, r2, #224	@ 0xe0
10003cfe:	f50c 5e80 	add.w	lr, ip, #4096	@ 0x1000
10003d02:	f8ce 2000 	str.w	r2, [lr]
10003d06:	d929      	bls.n	10003d5c <clock_configure_undivided+0xb4>
10003d08:	f44f 6100 	mov.w	r1, #2048	@ 0x800
10003d0c:	f843 6020 	str.w	r6, [r3, r0, lsl #2]
10003d10:	f44f 3380 	mov.w	r3, #65536	@ 0x10000
10003d14:	f50c 5200 	add.w	r2, ip, #8192	@ 0x2000
10003d18:	6011      	str	r1, [r2, #0]
10003d1a:	f8cc 3004 	str.w	r3, [ip, #4]
10003d1e:	bd70      	pop	{r4, r5, r6, pc}
10003d20:	695d      	ldr	r5, [r3, #20]
10003d22:	fbb5 fefe 	udiv	lr, r5, lr
10003d26:	f10e 0e01 	add.w	lr, lr, #1
10003d2a:	eb0e 0e4e 	add.w	lr, lr, lr, lsl #1
10003d2e:	f1be 0e03 	subs.w	lr, lr, #3
10003d32:	d2fc      	bcs.n	10003d2e <clock_configure_undivided+0x86>
10003d34:	e7dc      	b.n	10003cf0 <clock_configure_undivided+0x48>
10003d36:	2901      	cmp	r1, #1
10003d38:	d1d0      	bne.n	10003cdc <clock_configure_undivided+0x34>
10003d3a:	2403      	movs	r4, #3
10003d3c:	601c      	str	r4, [r3, #0]
10003d3e:	f8dc 3008 	ldr.w	r3, [ip, #8]
10003d42:	07db      	lsls	r3, r3, #31
10003d44:	d5fb      	bpl.n	10003d3e <clock_configure_undivided+0x96>
10003d46:	f8dc 3000 	ldr.w	r3, [ip]
10003d4a:	f50c 5e80 	add.w	lr, ip, #4096	@ 0x1000
10003d4e:	ea83 1342 	eor.w	r3, r3, r2, lsl #5
10003d52:	f003 03e0 	and.w	r3, r3, #224	@ 0xe0
10003d56:	f8ce 3000 	str.w	r3, [lr]
10003d5a:	4b08      	ldr	r3, [pc, #32]	@ (10003d7c <clock_configure_undivided+0xd4>)
10003d5c:	2201      	movs	r2, #1
10003d5e:	f8dc 4000 	ldr.w	r4, [ip]
10003d62:	404c      	eors	r4, r1
10003d64:	f004 0403 	and.w	r4, r4, #3
10003d68:	f8ce 4000 	str.w	r4, [lr]
10003d6c:	fa02 f101 	lsl.w	r1, r2, r1
10003d70:	f8dc 2008 	ldr.w	r2, [ip, #8]
10003d74:	420a      	tst	r2, r1
10003d76:	d0fb      	beq.n	10003d70 <clock_configure_undivided+0xc8>
10003d78:	e7c6      	b.n	10003d08 <clock_configure_undivided+0x60>
10003d7a:	bf00      	nop
10003d7c:	200021b4 	.word	0x200021b4

10003d80 <clock_get_hz>:
10003d80:	4b01      	ldr	r3, [pc, #4]	@ (10003d88 <clock_get_hz+0x8>)
10003d82:	f853 0020 	ldr.w	r0, [r3, r0, lsl #2]
10003d86:	4770      	bx	lr
10003d88:	200021b4 	.word	0x200021b4

10003d8c <set_sys_clock_pll>:
10003d8c:	e92d 41f0 	stmdb	sp!, {r4, r5, r6, r7, r8, lr}
10003d90:	4c58      	ldr	r4, [pc, #352]	@ (10003ef4 <set_sys_clock_pll+0x168>)
10003d92:	4606      	mov	r6, r0
10003d94:	6c20      	ldr	r0, [r4, #64]	@ 0x40
10003d96:	4617      	mov	r7, r2
10003d98:	f5b0 3f80 	cmp.w	r0, #65536	@ 0x10000
10003d9c:	bf38      	it	cc
10003d9e:	f44f 3280 	movcc.w	r2, #65536	@ 0x10000
10003da2:	460b      	mov	r3, r1
10003da4:	f04f 0103 	mov.w	r1, #3
10003da8:	b084      	sub	sp, #16
10003daa:	bf38      	it	cc
10003dac:	6422      	strcc	r2, [r4, #64]	@ 0x40
10003dae:	4a52      	ldr	r2, [pc, #328]	@ (10003ef8 <set_sys_clock_pll+0x16c>)
10003db0:	4c50      	ldr	r4, [pc, #320]	@ (10003ef4 <set_sys_clock_pll+0x168>)
10003db2:	63d1      	str	r1, [r2, #60]	@ 0x3c
10003db4:	6c62      	ldr	r2, [r4, #68]	@ 0x44
10003db6:	07d2      	lsls	r2, r2, #31
10003db8:	d5fc      	bpl.n	10003db4 <set_sys_clock_pll+0x28>
10003dba:	6be2      	ldr	r2, [r4, #60]	@ 0x3c
10003dbc:	494f      	ldr	r1, [pc, #316]	@ (10003efc <set_sys_clock_pll+0x170>)
10003dbe:	f082 0220 	eor.w	r2, r2, #32
10003dc2:	f002 02e0 	and.w	r2, r2, #224	@ 0xe0
10003dc6:	63ca      	str	r2, [r1, #60]	@ 0x3c
10003dc8:	6be2      	ldr	r2, [r4, #60]	@ 0x3c
10003dca:	4c4a      	ldr	r4, [pc, #296]	@ (10003ef4 <set_sys_clock_pll+0x168>)
10003dcc:	f082 0201 	eor.w	r2, r2, #1
10003dd0:	f002 0203 	and.w	r2, r2, #3
10003dd4:	63ca      	str	r2, [r1, #60]	@ 0x3c
10003dd6:	6c62      	ldr	r2, [r4, #68]	@ 0x44
10003dd8:	0795      	lsls	r5, r2, #30
10003dda:	d5fc      	bpl.n	10003dd6 <set_sys_clock_pll+0x4a>
10003ddc:	f44f 6100 	mov.w	r1, #2048	@ 0x800
10003de0:	f44f 3880 	mov.w	r8, #65536	@ 0x10000
10003de4:	4a46      	ldr	r2, [pc, #280]	@ (10003f00 <set_sys_clock_pll+0x174>)
10003de6:	4d47      	ldr	r5, [pc, #284]	@ (10003f04 <set_sys_clock_pll+0x178>)
10003de8:	63d1      	str	r1, [r2, #60]	@ 0x3c
10003dea:	4a47      	ldr	r2, [pc, #284]	@ (10003f08 <set_sys_clock_pll+0x17c>)
10003dec:	9303      	str	r3, [sp, #12]
10003dee:	616a      	str	r2, [r5, #20]
10003df0:	2101      	movs	r1, #1
10003df2:	4632      	mov	r2, r6
10003df4:	f8c4 8040 	str.w	r8, [r4, #64]	@ 0x40
10003df8:	4844      	ldr	r0, [pc, #272]	@ (10003f0c <set_sys_clock_pll+0x180>)
10003dfa:	9700      	str	r7, [sp, #0]
10003dfc:	f000 f946 	bl	1000408c <pll_init>
10003e00:	f44f 6100 	mov.w	r1, #2048	@ 0x800
10003e04:	9b03      	ldr	r3, [sp, #12]
10003e06:	fb07 f303 	mul.w	r3, r7, r3
10003e0a:	fbb6 f6f3 	udiv	r6, r6, r3
10003e0e:	6b63      	ldr	r3, [r4, #52]	@ 0x34
10003e10:	4543      	cmp	r3, r8
10003e12:	bf38      	it	cc
10003e14:	f8c4 8034 	strcc.w	r8, [r4, #52]	@ 0x34
10003e18:	4b37      	ldr	r3, [pc, #220]	@ (10003ef8 <set_sys_clock_pll+0x16c>)
10003e1a:	692a      	ldr	r2, [r5, #16]
10003e1c:	6319      	str	r1, [r3, #48]	@ 0x30
10003e1e:	b13a      	cbz	r2, 10003e30 <set_sys_clock_pll+0xa4>
10003e20:	696b      	ldr	r3, [r5, #20]
10003e22:	fbb3 f3f2 	udiv	r3, r3, r2
10003e26:	3301      	adds	r3, #1
10003e28:	eb03 0343 	add.w	r3, r3, r3, lsl #1
10003e2c:	3b03      	subs	r3, #3
10003e2e:	d2fd      	bcs.n	10003e2c <set_sys_clock_pll+0xa0>
10003e30:	4930      	ldr	r1, [pc, #192]	@ (10003ef4 <set_sys_clock_pll+0x168>)
10003e32:	4a32      	ldr	r2, [pc, #200]	@ (10003efc <set_sys_clock_pll+0x170>)
10003e34:	6b0b      	ldr	r3, [r1, #48]	@ 0x30
10003e36:	f003 03e0 	and.w	r3, r3, #224	@ 0xe0
10003e3a:	6313      	str	r3, [r2, #48]	@ 0x30
10003e3c:	6b0b      	ldr	r3, [r1, #48]	@ 0x30
10003e3e:	f083 0302 	eor.w	r3, r3, #2
10003e42:	f003 0303 	and.w	r3, r3, #3
10003e46:	6313      	str	r3, [r2, #48]	@ 0x30
10003e48:	6b8b      	ldr	r3, [r1, #56]	@ 0x38
10003e4a:	0758      	lsls	r0, r3, #29
10003e4c:	d5fc      	bpl.n	10003e48 <set_sys_clock_pll+0xbc>
10003e4e:	f44f 6400 	mov.w	r4, #2048	@ 0x800
10003e52:	f44f 3380 	mov.w	r3, #65536	@ 0x10000
10003e56:	4a2a      	ldr	r2, [pc, #168]	@ (10003f00 <set_sys_clock_pll+0x174>)
10003e58:	6314      	str	r4, [r2, #48]	@ 0x30
10003e5a:	4a2d      	ldr	r2, [pc, #180]	@ (10003f10 <set_sys_clock_pll+0x184>)
10003e5c:	634b      	str	r3, [r1, #52]	@ 0x34
10003e5e:	612a      	str	r2, [r5, #16]
10003e60:	6c0a      	ldr	r2, [r1, #64]	@ 0x40
10003e62:	4c24      	ldr	r4, [pc, #144]	@ (10003ef4 <set_sys_clock_pll+0x168>)
10003e64:	429a      	cmp	r2, r3
10003e66:	f04f 0203 	mov.w	r2, #3
10003e6a:	bf38      	it	cc
10003e6c:	640b      	strcc	r3, [r1, #64]	@ 0x40
10003e6e:	4b22      	ldr	r3, [pc, #136]	@ (10003ef8 <set_sys_clock_pll+0x16c>)
10003e70:	63da      	str	r2, [r3, #60]	@ 0x3c
10003e72:	6c63      	ldr	r3, [r4, #68]	@ 0x44
10003e74:	07da      	lsls	r2, r3, #31
10003e76:	d5fc      	bpl.n	10003e72 <set_sys_clock_pll+0xe6>
10003e78:	6be3      	ldr	r3, [r4, #60]	@ 0x3c
10003e7a:	4a20      	ldr	r2, [pc, #128]	@ (10003efc <set_sys_clock_pll+0x170>)
10003e7c:	f003 03e0 	and.w	r3, r3, #224	@ 0xe0
10003e80:	63d3      	str	r3, [r2, #60]	@ 0x3c
10003e82:	6be3      	ldr	r3, [r4, #60]	@ 0x3c
10003e84:	491b      	ldr	r1, [pc, #108]	@ (10003ef4 <set_sys_clock_pll+0x168>)
10003e86:	f083 0301 	eor.w	r3, r3, #1
10003e8a:	f003 0303 	and.w	r3, r3, #3
10003e8e:	63d3      	str	r3, [r2, #60]	@ 0x3c
10003e90:	6c4b      	ldr	r3, [r1, #68]	@ 0x44
10003e92:	079b      	lsls	r3, r3, #30
10003e94:	d5fc      	bpl.n	10003e90 <set_sys_clock_pll+0x104>
10003e96:	f44f 3380 	mov.w	r3, #65536	@ 0x10000
10003e9a:	f44f 6400 	mov.w	r4, #2048	@ 0x800
10003e9e:	4a18      	ldr	r2, [pc, #96]	@ (10003f00 <set_sys_clock_pll+0x174>)
10003ea0:	616e      	str	r6, [r5, #20]
10003ea2:	63d4      	str	r4, [r2, #60]	@ 0x3c
10003ea4:	640b      	str	r3, [r1, #64]	@ 0x40
10003ea6:	6cca      	ldr	r2, [r1, #76]	@ 0x4c
10003ea8:	429a      	cmp	r2, r3
10003eaa:	bf38      	it	cc
10003eac:	64cb      	strcc	r3, [r1, #76]	@ 0x4c
10003eae:	f44f 6100 	mov.w	r1, #2048	@ 0x800
10003eb2:	4b11      	ldr	r3, [pc, #68]	@ (10003ef8 <set_sys_clock_pll+0x16c>)
10003eb4:	69aa      	ldr	r2, [r5, #24]
10003eb6:	6499      	str	r1, [r3, #72]	@ 0x48
10003eb8:	b13a      	cbz	r2, 10003eca <set_sys_clock_pll+0x13e>
10003eba:	696b      	ldr	r3, [r5, #20]
10003ebc:	fbb3 f3f2 	udiv	r3, r3, r2
10003ec0:	3301      	adds	r3, #1
10003ec2:	eb03 0343 	add.w	r3, r3, r3, lsl #1
10003ec6:	3b03      	subs	r3, #3
10003ec8:	d2fd      	bcs.n	10003ec6 <set_sys_clock_pll+0x13a>
10003eca:	f44f 6000 	mov.w	r0, #2048	@ 0x800
10003ece:	f44f 3180 	mov.w	r1, #65536	@ 0x10000
10003ed2:	4a08      	ldr	r2, [pc, #32]	@ (10003ef4 <set_sys_clock_pll+0x168>)
10003ed4:	4c09      	ldr	r4, [pc, #36]	@ (10003efc <set_sys_clock_pll+0x170>)
10003ed6:	6c93      	ldr	r3, [r2, #72]	@ 0x48
10003ed8:	f083 0340 	eor.w	r3, r3, #64	@ 0x40
10003edc:	f003 03e0 	and.w	r3, r3, #224	@ 0xe0
10003ee0:	64a3      	str	r3, [r4, #72]	@ 0x48
10003ee2:	4b07      	ldr	r3, [pc, #28]	@ (10003f00 <set_sys_clock_pll+0x174>)
10003ee4:	4c08      	ldr	r4, [pc, #32]	@ (10003f08 <set_sys_clock_pll+0x17c>)
10003ee6:	61ac      	str	r4, [r5, #24]
10003ee8:	6498      	str	r0, [r3, #72]	@ 0x48
10003eea:	64d1      	str	r1, [r2, #76]	@ 0x4c
10003eec:	b004      	add	sp, #16
10003eee:	e8bd 81f0 	ldmia.w	sp!, {r4, r5, r6, r7, r8, pc}
10003ef2:	bf00      	nop
10003ef4:	40010000 	.word	0x40010000
10003ef8:	40013000 	.word	0x40013000
10003efc:	40011000 	.word	0x40011000
10003f00:	40012000 	.word	0x40012000
10003f04:	200021b4 	.word	0x200021b4
10003f08:	02dc6c00 	.word	0x02dc6c00
10003f0c:	40050000 	.word	0x40050000
10003f10:	00b71b00 	.word	0x00b71b00

10003f14 <check_sys_clock_khz>:
10003f14:	e92d 4ff0 	stmdb	sp!, {r4, r5, r6, r7, r8, r9, sl, fp, lr}
10003f18:	f44f 78a0 	mov.w	r8, #320	@ 0x140
10003f1c:	4696      	mov	lr, r2
10003f1e:	b085      	sub	sp, #20
10003f20:	9103      	str	r1, [sp, #12]
10003f22:	f8df 9164 	ldr.w	r9, [pc, #356]	@ 10004088 <check_sys_clock_khz+0x174>
10003f26:	4956      	ldr	r1, [pc, #344]	@ (10004080 <check_sys_clock_khz+0x16c>)
10003f28:	9301      	str	r3, [sp, #4]
10003f2a:	4549      	cmp	r1, r9
10003f2c:	d90a      	bls.n	10003f44 <check_sys_clock_khz+0x30>
10003f2e:	f108 38ff 	add.w	r8, r8, #4294967295	@ 0xffffffff
10003f32:	f5a1 513b 	sub.w	r1, r1, #11968	@ 0x2ec0
10003f36:	f1b8 0f0f 	cmp.w	r8, #15
10003f3a:	f1a1 0120 	sub.w	r1, r1, #32
10003f3e:	d1f4      	bne.n	10003f2a <check_sys_clock_khz+0x16>
10003f40:	2000      	movs	r0, #0
10003f42:	e066      	b.n	10004012 <check_sys_clock_khz+0xfe>
10003f44:	2307      	movs	r3, #7
10003f46:	f501 2237 	add.w	r2, r1, #749568	@ 0xb7000
10003f4a:	9102      	str	r1, [sp, #8]
10003f4c:	fb03 f103 	mul.w	r1, r3, r3
10003f50:	f502 72d8 	add.w	r2, r2, #432	@ 0x1b0
10003f54:	fbb2 faf1 	udiv	sl, r2, r1
10003f58:	4582      	cmp	sl, r0
10003f5a:	f04f 0c01 	mov.w	ip, #1
10003f5e:	f04f 0702 	mov.w	r7, #2
10003f62:	f04f 0603 	mov.w	r6, #3
10003f66:	f04f 0504 	mov.w	r5, #4
10003f6a:	f04f 0405 	mov.w	r4, #5
10003f6e:	d03f      	beq.n	10003ff0 <check_sys_clock_khz+0xdc>
10003f70:	f1b3 0a01 	subs.w	sl, r3, #1
10003f74:	f000 8082 	beq.w	1000407c <check_sys_clock_khz+0x168>
10003f78:	fb0a f103 	mul.w	r1, sl, r3
10003f7c:	fbb2 fbf1 	udiv	fp, r2, r1
10003f80:	4558      	cmp	r0, fp
10003f82:	d049      	beq.n	10004018 <check_sys_clock_khz+0x104>
10003f84:	b31c      	cbz	r4, 10003fce <check_sys_clock_khz+0xba>
10003f86:	fb03 f104 	mul.w	r1, r3, r4
10003f8a:	fbb2 fbf1 	udiv	fp, r2, r1
10003f8e:	4558      	cmp	r0, fp
10003f90:	d04b      	beq.n	1000402a <check_sys_clock_khz+0x116>
10003f92:	b1e5      	cbz	r5, 10003fce <check_sys_clock_khz+0xba>
10003f94:	fb05 f103 	mul.w	r1, r5, r3
10003f98:	fbb2 fbf1 	udiv	fp, r2, r1
10003f9c:	4558      	cmp	r0, fp
10003f9e:	d04d      	beq.n	1000403c <check_sys_clock_khz+0x128>
10003fa0:	b1ae      	cbz	r6, 10003fce <check_sys_clock_khz+0xba>
10003fa2:	fb06 f103 	mul.w	r1, r6, r3
10003fa6:	fbb2 fbf1 	udiv	fp, r2, r1
10003faa:	4558      	cmp	r0, fp
10003fac:	d04f      	beq.n	1000404e <check_sys_clock_khz+0x13a>
10003fae:	b177      	cbz	r7, 10003fce <check_sys_clock_khz+0xba>
10003fb0:	fb07 f103 	mul.w	r1, r7, r3
10003fb4:	fbb2 fbf1 	udiv	fp, r2, r1
10003fb8:	4558      	cmp	r0, fp
10003fba:	d051      	beq.n	10004060 <check_sys_clock_khz+0x14c>
10003fbc:	f1bc 0f00 	cmp.w	ip, #0
10003fc0:	d005      	beq.n	10003fce <check_sys_clock_khz+0xba>
10003fc2:	fb0c f103 	mul.w	r1, ip, r3
10003fc6:	fbb2 fbf1 	udiv	fp, r2, r1
10003fca:	4583      	cmp	fp, r0
10003fcc:	d04d      	beq.n	1000406a <check_sys_clock_khz+0x156>
10003fce:	4653      	mov	r3, sl
10003fd0:	fb03 f103 	mul.w	r1, r3, r3
10003fd4:	fbb2 faf1 	udiv	sl, r2, r1
10003fd8:	4582      	cmp	sl, r0
10003fda:	f104 34ff 	add.w	r4, r4, #4294967295	@ 0xffffffff
10003fde:	f105 35ff 	add.w	r5, r5, #4294967295	@ 0xffffffff
10003fe2:	f106 36ff 	add.w	r6, r6, #4294967295	@ 0xffffffff
10003fe6:	f107 37ff 	add.w	r7, r7, #4294967295	@ 0xffffffff
10003fea:	f10c 3cff 	add.w	ip, ip, #4294967295	@ 0xffffffff
10003fee:	d1bf      	bne.n	10003f70 <check_sys_clock_khz+0x5c>
10003ff0:	fb01 2110 	mls	r1, r1, r0, r2
10003ff4:	2900      	cmp	r1, #0
10003ff6:	d1bb      	bne.n	10003f70 <check_sys_clock_khz+0x5c>
10003ff8:	4672      	mov	r2, lr
10003ffa:	461f      	mov	r7, r3
10003ffc:	f8dd a00c 	ldr.w	sl, [sp, #12]
10004000:	2001      	movs	r0, #1
10004002:	4920      	ldr	r1, [pc, #128]	@ (10004084 <check_sys_clock_khz+0x170>)
10004004:	fb01 f108 	mul.w	r1, r1, r8
10004008:	f8ca 1000 	str.w	r1, [sl]
1000400c:	6013      	str	r3, [r2, #0]
1000400e:	9b01      	ldr	r3, [sp, #4]
10004010:	601f      	str	r7, [r3, #0]
10004012:	b005      	add	sp, #20
10004014:	e8bd 8ff0 	ldmia.w	sp!, {r4, r5, r6, r7, r8, r9, sl, fp, pc}
10004018:	fb01 2110 	mls	r1, r1, r0, r2
1000401c:	2900      	cmp	r1, #0
1000401e:	d1b1      	bne.n	10003f84 <check_sys_clock_khz+0x70>
10004020:	4657      	mov	r7, sl
10004022:	4672      	mov	r2, lr
10004024:	f8dd a00c 	ldr.w	sl, [sp, #12]
10004028:	e7ea      	b.n	10004000 <check_sys_clock_khz+0xec>
1000402a:	fb01 2110 	mls	r1, r1, r0, r2
1000402e:	2900      	cmp	r1, #0
10004030:	d1af      	bne.n	10003f92 <check_sys_clock_khz+0x7e>
10004032:	4672      	mov	r2, lr
10004034:	4627      	mov	r7, r4
10004036:	f8dd a00c 	ldr.w	sl, [sp, #12]
1000403a:	e7e1      	b.n	10004000 <check_sys_clock_khz+0xec>
1000403c:	fb01 2110 	mls	r1, r1, r0, r2
10004040:	2900      	cmp	r1, #0
10004042:	d1ad      	bne.n	10003fa0 <check_sys_clock_khz+0x8c>
10004044:	4672      	mov	r2, lr
10004046:	462f      	mov	r7, r5
10004048:	f8dd a00c 	ldr.w	sl, [sp, #12]
1000404c:	e7d8      	b.n	10004000 <check_sys_clock_khz+0xec>
1000404e:	fb01 2110 	mls	r1, r1, r0, r2
10004052:	2900      	cmp	r1, #0
10004054:	d1ab      	bne.n	10003fae <check_sys_clock_khz+0x9a>
10004056:	4672      	mov	r2, lr
10004058:	4637      	mov	r7, r6
1000405a:	f8dd a00c 	ldr.w	sl, [sp, #12]
1000405e:	e7cf      	b.n	10004000 <check_sys_clock_khz+0xec>
10004060:	fb01 2110 	mls	r1, r1, r0, r2
10004064:	2900      	cmp	r1, #0
10004066:	d1a9      	bne.n	10003fbc <check_sys_clock_khz+0xa8>
10004068:	e7db      	b.n	10004022 <check_sys_clock_khz+0x10e>
1000406a:	fb01 2110 	mls	r1, r1, r0, r2
1000406e:	2900      	cmp	r1, #0
10004070:	d1ad      	bne.n	10003fce <check_sys_clock_khz+0xba>
10004072:	4672      	mov	r2, lr
10004074:	4667      	mov	r7, ip
10004076:	f8dd a00c 	ldr.w	sl, [sp, #12]
1000407a:	e7c1      	b.n	10004000 <check_sys_clock_khz+0xec>
1000407c:	9902      	ldr	r1, [sp, #8]
1000407e:	e756      	b.n	10003f2e <check_sys_clock_khz+0x1a>
10004080:	002f2650 	.word	0x002f2650
10004084:	00b71b00 	.word	0x00b71b00
10004088:	000cf850 	.word	0x000cf850

1000408c <pll_init>:
1000408c:	b510      	push	{r4, lr}
1000408e:	460c      	mov	r4, r1
10004090:	9902      	ldr	r1, [sp, #8]
10004092:	f8d0 c000 	ldr.w	ip, [r0]
10004096:	ea4f 3e01 	mov.w	lr, r1, lsl #12
1000409a:	ea4e 4e03 	orr.w	lr, lr, r3, lsl #16
1000409e:	4b1d      	ldr	r3, [pc, #116]	@ (10004114 <pll_init+0x88>)
100040a0:	f1bc 0f00 	cmp.w	ip, #0
100040a4:	fbb3 f3f4 	udiv	r3, r3, r4
100040a8:	fbb2 f1f3 	udiv	r1, r2, r3
100040ac:	db21      	blt.n	100040f2 <pll_init+0x66>
100040ae:	4a1a      	ldr	r2, [pc, #104]	@ (10004118 <pll_init+0x8c>)
100040b0:	4b1a      	ldr	r3, [pc, #104]	@ (1000411c <pll_init+0x90>)
100040b2:	4290      	cmp	r0, r2
100040b4:	bf14      	ite	ne
100040b6:	f44f 4280 	movne.w	r2, #16384	@ 0x4000
100040ba:	f44f 4200 	moveq.w	r2, #32768	@ 0x8000
100040be:	f8df c060 	ldr.w	ip, [pc, #96]	@ 10004120 <pll_init+0x94>
100040c2:	601a      	str	r2, [r3, #0]
100040c4:	f503 5380 	add.w	r3, r3, #4096	@ 0x1000
100040c8:	601a      	str	r2, [r3, #0]
100040ca:	f8dc 3008 	ldr.w	r3, [ip, #8]
100040ce:	ea32 0303 	bics.w	r3, r2, r3
100040d2:	d1fa      	bne.n	100040ca <pll_init+0x3e>
100040d4:	2221      	movs	r2, #33	@ 0x21
100040d6:	f500 5340 	add.w	r3, r0, #12288	@ 0x3000
100040da:	3304      	adds	r3, #4
100040dc:	6004      	str	r4, [r0, #0]
100040de:	6081      	str	r1, [r0, #8]
100040e0:	601a      	str	r2, [r3, #0]
100040e2:	6802      	ldr	r2, [r0, #0]
100040e4:	2a00      	cmp	r2, #0
100040e6:	dafc      	bge.n	100040e2 <pll_init+0x56>
100040e8:	2208      	movs	r2, #8
100040ea:	f8c0 e00c 	str.w	lr, [r0, #12]
100040ee:	601a      	str	r2, [r3, #0]
100040f0:	bd10      	pop	{r4, pc}
100040f2:	6803      	ldr	r3, [r0, #0]
100040f4:	f003 033f 	and.w	r3, r3, #63	@ 0x3f
100040f8:	42a3      	cmp	r3, r4
100040fa:	d1d8      	bne.n	100040ae <pll_init+0x22>
100040fc:	6883      	ldr	r3, [r0, #8]
100040fe:	f3c3 030b 	ubfx	r3, r3, #0, #12
10004102:	428b      	cmp	r3, r1
10004104:	d1d3      	bne.n	100040ae <pll_init+0x22>
10004106:	68c3      	ldr	r3, [r0, #12]
10004108:	f403 23ee 	and.w	r3, r3, #487424	@ 0x77000
1000410c:	4573      	cmp	r3, lr
1000410e:	d1ce      	bne.n	100040ae <pll_init+0x22>
10004110:	bd10      	pop	{r4, pc}
10004112:	bf00      	nop
10004114:	00b71b00 	.word	0x00b71b00
10004118:	40058000 	.word	0x40058000
1000411c:	40022000 	.word	0x40022000
10004120:	40020000 	.word	0x40020000

10004124 <watchdog_reboot>:
10004124:	f04f 4c80 	mov.w	ip, #1073741824	@ 0x40000000
10004128:	4b21      	ldr	r3, [pc, #132]	@ (100041b0 <watchdog_reboot+0x8c>)
1000412a:	b500      	push	{lr}
1000412c:	f8c3 c000 	str.w	ip, [r3]
10004130:	2800      	cmp	r0, #0
10004132:	d039      	beq.n	100041a8 <watchdog_reboot+0x84>
10004134:	f8df c088 	ldr.w	ip, [pc, #136]	@ 100041c0 <watchdog_reboot+0x9c>
10004138:	f5a3 5340 	sub.w	r3, r3, #12288	@ 0x3000
1000413c:	f8c3 c01c 	str.w	ip, [r3, #28]
10004140:	f8df c080 	ldr.w	ip, [pc, #128]	@ 100041c4 <watchdog_reboot+0xa0>
10004144:	f040 0001 	orr.w	r0, r0, #1
10004148:	ea80 0c0c 	eor.w	ip, r0, ip
1000414c:	f8c3 c020 	str.w	ip, [r3, #32]
10004150:	6259      	str	r1, [r3, #36]	@ 0x24
10004152:	6298      	str	r0, [r3, #40]	@ 0x28
10004154:	f04f 4e80 	mov.w	lr, #1073741824	@ 0x40000000
10004158:	f04f 61e0 	mov.w	r1, #117440512	@ 0x7000000
1000415c:	4b14      	ldr	r3, [pc, #80]	@ (100041b0 <watchdog_reboot+0x8c>)
1000415e:	4815      	ldr	r0, [pc, #84]	@ (100041b4 <watchdog_reboot+0x90>)
10004160:	f8df c064 	ldr.w	ip, [pc, #100]	@ 100041c8 <watchdog_reboot+0xa4>
10004164:	f8c3 e000 	str.w	lr, [r3]
10004168:	f8c0 c008 	str.w	ip, [r0, #8]
1000416c:	6019      	str	r1, [r3, #0]
1000416e:	b92a      	cbnz	r2, 1000417c <watchdog_reboot+0x58>
10004170:	f04f 4200 	mov.w	r2, #2147483648	@ 0x80000000
10004174:	f5a3 5380 	sub.w	r3, r3, #4096	@ 0x1000
10004178:	601a      	str	r2, [r3, #0]
1000417a:	bd00      	pop	{pc}
1000417c:	f44f 737a 	mov.w	r3, #1000	@ 0x3e8
10004180:	fb03 f202 	mul.w	r2, r3, r2
10004184:	f1b2 7f80 	cmp.w	r2, #16777216	@ 0x1000000
10004188:	bf2a      	itet	cs
1000418a:	f06f 437f 	mvncs.w	r3, #4278190080	@ 0xff000000
1000418e:	4613      	movcc	r3, r2
10004190:	461a      	movcs	r2, r3
10004192:	f04f 4180 	mov.w	r1, #1073741824	@ 0x40000000
10004196:	f8df c034 	ldr.w	ip, [pc, #52]	@ 100041cc <watchdog_reboot+0xa8>
1000419a:	4807      	ldr	r0, [pc, #28]	@ (100041b8 <watchdog_reboot+0x94>)
1000419c:	f8cc 3000 	str.w	r3, [ip]
100041a0:	4b06      	ldr	r3, [pc, #24]	@ (100041bc <watchdog_reboot+0x98>)
100041a2:	6042      	str	r2, [r0, #4]
100041a4:	6019      	str	r1, [r3, #0]
100041a6:	bd00      	pop	{pc}
100041a8:	4b03      	ldr	r3, [pc, #12]	@ (100041b8 <watchdog_reboot+0x94>)
100041aa:	61d8      	str	r0, [r3, #28]
100041ac:	e7d2      	b.n	10004154 <watchdog_reboot+0x30>
100041ae:	bf00      	nop
100041b0:	400db000 	.word	0x400db000
100041b4:	4001a000 	.word	0x4001a000
100041b8:	400d8000 	.word	0x400d8000
100041bc:	400da000 	.word	0x400da000
100041c0:	b007c0d3 	.word	0xb007c0d3
100041c4:	4ff83f2d 	.word	0x4ff83f2d
100041c8:	01fffff3 	.word	0x01fffff3
100041cc:	20002614 	.word	0x20002614

100041d0 <tick_start>:
100041d0:	2301      	movs	r3, #1
100041d2:	eb00 0040 	add.w	r0, r0, r0, lsl #1
100041d6:	0080      	lsls	r0, r0, #2
100041d8:	f100 4080 	add.w	r0, r0, #1073741824	@ 0x40000000
100041dc:	f500 1084 	add.w	r0, r0, #1081344	@ 0x108000
100041e0:	6041      	str	r1, [r0, #4]
100041e2:	6003      	str	r3, [r0, #0]
100041e4:	4770      	bx	lr
100041e6:	bf00      	nop

100041e8 <rom_reboot.constprop.0.isra.0>:
100041e8:	b510      	push	{r4, lr}
100041ea:	2400      	movs	r4, #0
100041ec:	b082      	sub	sp, #8
100041ee:	460b      	mov	r3, r1
100041f0:	8ae4      	ldrh	r4, [r4, #22]
100041f2:	2100      	movs	r1, #0
100041f4:	e841 f100 	tt	r1, r1
100041f8:	e9cd 0300 	strd	r0, r3, [sp]
100041fc:	024b      	lsls	r3, r1, #9
100041fe:	bf54      	ite	pl
10004200:	2110      	movpl	r1, #16
10004202:	2104      	movmi	r1, #4
10004204:	f244 2052 	movw	r0, #16978	@ 0x4252
10004208:	47a0      	blx	r4
1000420a:	e9dd 2300 	ldrd	r2, r3, [sp]
1000420e:	4686      	mov	lr, r0
10004210:	210a      	movs	r1, #10
10004212:	f44f 7081 	mov.w	r0, #258	@ 0x102
10004216:	46f4      	mov	ip, lr
10004218:	b002      	add	sp, #8
1000421a:	e8bd 4010 	ldmia.w	sp!, {r4, lr}
1000421e:	4760      	bx	ip

10004220 <rom_func_lookup>:
10004220:	2300      	movs	r3, #0
10004222:	8adb      	ldrh	r3, [r3, #22]
10004224:	2200      	movs	r2, #0
10004226:	e842 f200 	tt	r2, r2
1000422a:	0252      	lsls	r2, r2, #9
1000422c:	d401      	bmi.n	10004232 <rom_func_lookup+0x12>
1000422e:	2110      	movs	r1, #16
10004230:	4718      	bx	r3
10004232:	2104      	movs	r1, #4
10004234:	4718      	bx	r3
10004236:	bf00      	nop

10004238 <rom_reset_usb_boot_extra>:
10004238:	b508      	push	{r3, lr}
1000423a:	4603      	mov	r3, r0
1000423c:	4608      	mov	r0, r1
1000423e:	1e19      	subs	r1, r3, #0
10004240:	db02      	blt.n	10004248 <rom_reset_usb_boot_extra+0x10>
10004242:	b11a      	cbz	r2, 1000424c <rom_reset_usb_boot_extra+0x14>
10004244:	f040 0030 	orr.w	r0, r0, #48	@ 0x30
10004248:	f7ff ffce 	bl	100041e8 <rom_reboot.constprop.0.isra.0>
1000424c:	f040 0020 	orr.w	r0, r0, #32
10004250:	e7fa      	b.n	10004248 <rom_reset_usb_boot_extra+0x10>
10004252:	bf00      	nop

10004254 <runtime_init_bootrom_locking_enable>:
10004254:	4a03      	ldr	r2, [pc, #12]	@ (10004264 <runtime_init_bootrom_locking_enable+0x10>)
10004256:	f8d2 3828 	ldr.w	r3, [r2, #2088]	@ 0x828
1000425a:	2b00      	cmp	r3, #0
1000425c:	d0fb      	beq.n	10004256 <runtime_init_bootrom_locking_enable+0x2>
1000425e:	f3bf 8f5f 	dmb	sy
10004262:	4770      	bx	lr
10004264:	400e0000 	.word	0x400e0000

10004268 <runtime_init_boot_locks_reset>:
10004268:	2100      	movs	r1, #0
1000426a:	4b04      	ldr	r3, [pc, #16]	@ (1000427c <runtime_init_boot_locks_reset+0x14>)
1000426c:	4a04      	ldr	r2, [pc, #16]	@ (10004280 <runtime_init_boot_locks_reset+0x18>)
1000426e:	f3bf 8f5f 	dmb	sy
10004272:	f843 1b04 	str.w	r1, [r3], #4
10004276:	4293      	cmp	r3, r2
10004278:	d1f9      	bne.n	1000426e <runtime_init_boot_locks_reset+0x6>
1000427a:	4770      	bx	lr
1000427c:	400e080c 	.word	0x400e080c
10004280:	400e082c 	.word	0x400e082c

10004284 <xosc_init>:
10004284:	f44f 6c2a 	mov.w	ip, #2720	@ 0xaa0
10004288:	f44f 708d 	mov.w	r0, #282	@ 0x11a
1000428c:	4a05      	ldr	r2, [pc, #20]	@ (100042a4 <xosc_init+0x20>)
1000428e:	4b06      	ldr	r3, [pc, #24]	@ (100042a8 <xosc_init+0x24>)
10004290:	4906      	ldr	r1, [pc, #24]	@ (100042ac <xosc_init+0x28>)
10004292:	f8c2 c000 	str.w	ip, [r2]
10004296:	60d0      	str	r0, [r2, #12]
10004298:	6019      	str	r1, [r3, #0]
1000429a:	6853      	ldr	r3, [r2, #4]
1000429c:	2b00      	cmp	r3, #0
1000429e:	dafc      	bge.n	1000429a <xosc_init+0x16>
100042a0:	4770      	bx	lr
100042a2:	bf00      	nop
100042a4:	40048000 	.word	0x40048000
100042a8:	4004a000 	.word	0x4004a000
100042ac:	00fab000 	.word	0x00fab000

100042b0 <first_per_core_initializer>:
100042b0:	4770      	bx	lr
100042b2:	bf00      	nop

100042b4 <hard_assertion_failure>:
100042b4:	b508      	push	{r3, lr}
100042b6:	4801      	ldr	r0, [pc, #4]	@ (100042bc <hard_assertion_failure+0x8>)
100042b8:	f7fe fc6e 	bl	10002b98 <panic>
100042bc:	1000998c 	.word	0x1000998c

100042c0 <runtime_run_initializers>:
100042c0:	b538      	push	{r3, r4, r5, lr}
100042c2:	4c05      	ldr	r4, [pc, #20]	@ (100042d8 <runtime_run_initializers+0x18>)
100042c4:	4d05      	ldr	r5, [pc, #20]	@ (100042dc <runtime_run_initializers+0x1c>)
100042c6:	42ac      	cmp	r4, r5
100042c8:	d204      	bcs.n	100042d4 <runtime_run_initializers+0x14>
100042ca:	f854 3b04 	ldr.w	r3, [r4], #4
100042ce:	4798      	blx	r3
100042d0:	42ac      	cmp	r4, r5
100042d2:	d3fa      	bcc.n	100042ca <runtime_run_initializers+0xa>
100042d4:	bd38      	pop	{r3, r4, r5, pc}
100042d6:	bf00      	nop
100042d8:	10009640 	.word	0x10009640
100042dc:	10009680 	.word	0x10009680

100042e0 <runtime_init_early_resets>:
100042e0:	4806      	ldr	r0, [pc, #24]	@ (100042fc <runtime_init_early_resets+0x1c>)
100042e2:	f8df c028 	ldr.w	ip, [pc, #40]	@ 1000430c <runtime_init_early_resets+0x2c>
100042e6:	4b06      	ldr	r3, [pc, #24]	@ (10004300 <runtime_init_early_resets+0x20>)
100042e8:	4a06      	ldr	r2, [pc, #24]	@ (10004304 <runtime_init_early_resets+0x24>)
100042ea:	4907      	ldr	r1, [pc, #28]	@ (10004308 <runtime_init_early_resets+0x28>)
100042ec:	f8c0 c000 	str.w	ip, [r0]
100042f0:	601a      	str	r2, [r3, #0]
100042f2:	688b      	ldr	r3, [r1, #8]
100042f4:	ea32 0303 	bics.w	r3, r2, r3
100042f8:	d1fb      	bne.n	100042f2 <runtime_init_early_resets+0x12>
100042fa:	4770      	bx	lr
100042fc:	40022000 	.word	0x40022000
10004300:	40023000 	.word	0x40023000
10004304:	03f3fff6 	.word	0x03f3fff6
10004308:	40020000 	.word	0x40020000
1000430c:	efef3b7f 	.word	0xefef3b7f

10004310 <runtime_init_usb_power_down>:
10004310:	4b04      	ldr	r3, [pc, #16]	@ (10004324 <runtime_init_usb_power_down+0x14>)
10004312:	6cdb      	ldr	r3, [r3, #76]	@ 0x4c
10004314:	f5b3 4f00 	cmp.w	r3, #32768	@ 0x8000
10004318:	d103      	bne.n	10004322 <runtime_init_usb_power_down+0x12>
1000431a:	f44f 2280 	mov.w	r2, #262144	@ 0x40000
1000431e:	4b02      	ldr	r3, [pc, #8]	@ (10004328 <runtime_init_usb_power_down+0x18>)
10004320:	64da      	str	r2, [r3, #76]	@ 0x4c
10004322:	4770      	bx	lr
10004324:	50110000 	.word	0x50110000
10004328:	50112000 	.word	0x50112000

1000432c <runtime_init_per_core_enable_coprocessors>:
1000432c:	f04f 22e0 	mov.w	r2, #3758153728	@ 0xe000e000
10004330:	4b04      	ldr	r3, [pc, #16]	@ (10004344 <runtime_init_per_core_enable_coprocessors+0x18>)
10004332:	f8d2 1d88 	ldr.w	r1, [r2, #3464]	@ 0xd88
10004336:	430b      	orrs	r3, r1
10004338:	f8c2 3d88 	str.w	r3, [r2, #3464]	@ 0xd88
1000433c:	ee10 0430 			dcp_rcmp r0
10004340:	4770      	bx	lr
10004342:	bf00      	nop
10004344:	00300303 	.word	0x00300303

10004348 <runtime_init_post_clock_resets>:
10004348:	f06f 4160 	mvn.w	r1, #3758096384	@ 0xe0000000
1000434c:	4b04      	ldr	r3, [pc, #16]	@ (10004360 <runtime_init_post_clock_resets+0x18>)
1000434e:	4a05      	ldr	r2, [pc, #20]	@ (10004364 <runtime_init_post_clock_resets+0x1c>)
10004350:	6019      	str	r1, [r3, #0]
10004352:	6893      	ldr	r3, [r2, #8]
10004354:	43db      	mvns	r3, r3
10004356:	f033 4360 	bics.w	r3, r3, #3758096384	@ 0xe0000000
1000435a:	d1fa      	bne.n	10004352 <runtime_init_post_clock_resets+0xa>
1000435c:	4770      	bx	lr
1000435e:	bf00      	nop
10004360:	40023000 	.word	0x40023000
10004364:	40020000 	.word	0x40020000

10004368 <runtime_init_bootrom_reset>:
10004368:	b510      	push	{r4, lr}
1000436a:	f245 2053 	movw	r0, #21075	@ 0x5253
1000436e:	f7ff ff57 	bl	10004220 <rom_func_lookup>
10004372:	e8bd 4010 	ldmia.w	sp!, {r4, lr}
10004376:	4603      	mov	r3, r0
10004378:	2004      	movs	r0, #4
1000437a:	4718      	bx	r3

1000437c <runtime_init_per_core_bootrom_reset>:
1000437c:	b510      	push	{r4, lr}
1000437e:	f245 2053 	movw	r0, #21075	@ 0x5253
10004382:	f7ff ff4d 	bl	10004220 <rom_func_lookup>
10004386:	e8bd 4010 	ldmia.w	sp!, {r4, lr}
1000438a:	4603      	mov	r3, r0
1000438c:	2001      	movs	r0, #1
1000438e:	4718      	bx	r3

10004390 <runtime_init_spin_locks_reset>:
10004390:	f7fe bcca 	b.w	10002d28 <spin_locks_reset>

10004394 <runtime_init_install_ram_vector_table>:
10004394:	4915      	ldr	r1, [pc, #84]	@ (100043ec <runtime_init_install_ram_vector_table+0x58>)
10004396:	4b16      	ldr	r3, [pc, #88]	@ (100043f0 <runtime_init_install_ram_vector_table+0x5c>)
10004398:	b570      	push	{r4, r5, r6, lr}
1000439a:	1a5c      	subs	r4, r3, r1
1000439c:	10a5      	asrs	r5, r4, #2
1000439e:	2d44      	cmp	r5, #68	@ 0x44
100043a0:	462a      	mov	r2, r5
100043a2:	bf28      	it	cs
100043a4:	2244      	movcs	r2, #68	@ 0x44
100043a6:	4e13      	ldr	r6, [pc, #76]	@ (100043f4 <runtime_init_install_ram_vector_table+0x60>)
100043a8:	0092      	lsls	r2, r2, #2
100043aa:	4630      	mov	r0, r6
100043ac:	f005 f81e 	bl	100093ec <memcpy>
100043b0:	f5b4 7f86 	cmp.w	r4, #268	@ 0x10c
100043b4:	d814      	bhi.n	100043e0 <runtime_init_install_ram_vector_table+0x4c>
100043b6:	4a10      	ldr	r2, [pc, #64]	@ (100043f8 <runtime_init_install_ram_vector_table+0x64>)
100043b8:	d015      	beq.n	100043e6 <runtime_init_install_ram_vector_table+0x52>
100043ba:	f1c5 0c44 	rsb	ip, r5, #68	@ 0x44
100043be:	1933      	adds	r3, r6, r4
100043c0:	ea4f 005c 	mov.w	r0, ip, lsr #1
100043c4:	eb03 01c0 	add.w	r1, r3, r0, lsl #3
100043c8:	e9c3 2200 	strd	r2, r2, [r3]
100043cc:	3308      	adds	r3, #8
100043ce:	428b      	cmp	r3, r1
100043d0:	d1fa      	bne.n	100043c8 <runtime_init_install_ram_vector_table+0x34>
100043d2:	ebbc 0f40 	cmp.w	ip, r0, lsl #1
100043d6:	d003      	beq.n	100043e0 <runtime_init_install_ram_vector_table+0x4c>
100043d8:	eb05 0540 	add.w	r5, r5, r0, lsl #1
100043dc:	f846 2025 	str.w	r2, [r6, r5, lsl #2]
100043e0:	4b06      	ldr	r3, [pc, #24]	@ (100043fc <runtime_init_install_ram_vector_table+0x68>)
100043e2:	609e      	str	r6, [r3, #8]
100043e4:	bd70      	pop	{r4, r5, r6, pc}
100043e6:	2543      	movs	r5, #67	@ 0x43
100043e8:	e7f8      	b.n	100043dc <runtime_init_install_ram_vector_table+0x48>
100043ea:	bf00      	nop
100043ec:	10000000 	.word	0x10000000
100043f0:	10000110 	.word	0x10000110
100043f4:	20000000 	.word	0x20000000
100043f8:	10000111 	.word	0x10000111
100043fc:	e000ed00 	.word	0xe000ed00

10004400 <runtime_init_clocks>:
10004400:	2300      	movs	r3, #0
10004402:	b570      	push	{r4, r5, r6, lr}
10004404:	4c2b      	ldr	r4, [pc, #172]	@ (100044b4 <runtime_init_clocks+0xb4>)
10004406:	b082      	sub	sp, #8
10004408:	f8c4 3084 	str.w	r3, [r4, #132]	@ 0x84
1000440c:	f7ff ff3a 	bl	10004284 <xosc_init>
10004410:	2201      	movs	r2, #1
10004412:	4b29      	ldr	r3, [pc, #164]	@ (100044b8 <runtime_init_clocks+0xb8>)
10004414:	63da      	str	r2, [r3, #60]	@ 0x3c
10004416:	6c63      	ldr	r3, [r4, #68]	@ 0x44
10004418:	2b01      	cmp	r3, #1
1000441a:	d1fc      	bne.n	10004416 <runtime_init_clocks+0x16>
1000441c:	2103      	movs	r1, #3
1000441e:	4a26      	ldr	r2, [pc, #152]	@ (100044b8 <runtime_init_clocks+0xb8>)
10004420:	4b24      	ldr	r3, [pc, #144]	@ (100044b4 <runtime_init_clocks+0xb4>)
10004422:	6311      	str	r1, [r2, #48]	@ 0x30
10004424:	6b9c      	ldr	r4, [r3, #56]	@ 0x38
10004426:	2c01      	cmp	r4, #1
10004428:	d1fc      	bne.n	10004424 <runtime_init_clocks+0x24>
1000442a:	2602      	movs	r6, #2
1000442c:	2505      	movs	r5, #5
1000442e:	4621      	mov	r1, r4
10004430:	2305      	movs	r3, #5
10004432:	4a22      	ldr	r2, [pc, #136]	@ (100044bc <runtime_init_clocks+0xbc>)
10004434:	4822      	ldr	r0, [pc, #136]	@ (100044c0 <runtime_init_clocks+0xc0>)
10004436:	9600      	str	r6, [sp, #0]
10004438:	f7ff fe28 	bl	1000408c <pll_init>
1000443c:	4621      	mov	r1, r4
1000443e:	462b      	mov	r3, r5
10004440:	4a20      	ldr	r2, [pc, #128]	@ (100044c4 <runtime_init_clocks+0xc4>)
10004442:	4821      	ldr	r0, [pc, #132]	@ (100044c8 <runtime_init_clocks+0xc8>)
10004444:	9500      	str	r5, [sp, #0]
10004446:	f7ff fe21 	bl	1000408c <pll_init>
1000444a:	2200      	movs	r2, #0
1000444c:	2004      	movs	r0, #4
1000444e:	4631      	mov	r1, r6
10004450:	4b1e      	ldr	r3, [pc, #120]	@ (100044cc <runtime_init_clocks+0xcc>)
10004452:	f7ff fc29 	bl	10003ca8 <clock_configure_undivided>
10004456:	4621      	mov	r1, r4
10004458:	4628      	mov	r0, r5
1000445a:	2200      	movs	r2, #0
1000445c:	4b1c      	ldr	r3, [pc, #112]	@ (100044d0 <runtime_init_clocks+0xd0>)
1000445e:	f7ff fc23 	bl	10003ca8 <clock_configure_undivided>
10004462:	2200      	movs	r2, #0
10004464:	2008      	movs	r0, #8
10004466:	4611      	mov	r1, r2
10004468:	4b1a      	ldr	r3, [pc, #104]	@ (100044d4 <runtime_init_clocks+0xd4>)
1000446a:	f7ff fc1d 	bl	10003ca8 <clock_configure_undivided>
1000446e:	2200      	movs	r2, #0
10004470:	2009      	movs	r0, #9
10004472:	4611      	mov	r1, r2
10004474:	4b17      	ldr	r3, [pc, #92]	@ (100044d4 <runtime_init_clocks+0xd4>)
10004476:	f7ff fc17 	bl	10003ca8 <clock_configure_undivided>
1000447a:	2200      	movs	r2, #0
1000447c:	2006      	movs	r0, #6
1000447e:	4611      	mov	r1, r2
10004480:	4b13      	ldr	r3, [pc, #76]	@ (100044d0 <runtime_init_clocks+0xd0>)
10004482:	f7ff fc11 	bl	10003ca8 <clock_configure_undivided>
10004486:	2200      	movs	r2, #0
10004488:	4b11      	ldr	r3, [pc, #68]	@ (100044d0 <runtime_init_clocks+0xd0>)
1000448a:	2007      	movs	r0, #7
1000448c:	4611      	mov	r1, r2
1000448e:	f7ff fc0b 	bl	10003ca8 <clock_configure_undivided>
10004492:	2004      	movs	r0, #4
10004494:	f7ff fc74 	bl	10003d80 <clock_get_hz>
10004498:	2400      	movs	r4, #0
1000449a:	4b0f      	ldr	r3, [pc, #60]	@ (100044d8 <runtime_init_clocks+0xd8>)
1000449c:	fba3 3500 	umull	r3, r5, r3, r0
100044a0:	0cad      	lsrs	r5, r5, #18
100044a2:	b2e0      	uxtb	r0, r4
100044a4:	4629      	mov	r1, r5
100044a6:	3401      	adds	r4, #1
100044a8:	f7ff fe92 	bl	100041d0 <tick_start>
100044ac:	2c06      	cmp	r4, #6
100044ae:	d1f8      	bne.n	100044a2 <runtime_init_clocks+0xa2>
100044b0:	b002      	add	sp, #8
100044b2:	bd70      	pop	{r4, r5, r6, pc}
100044b4:	40010000 	.word	0x40010000
100044b8:	40013000 	.word	0x40013000
100044bc:	59682f00 	.word	0x59682f00
100044c0:	40050000 	.word	0x40050000
100044c4:	47868c00 	.word	0x47868c00
100044c8:	40058000 	.word	0x40058000
100044cc:	00b71b00 	.word	0x00b71b00
100044d0:	08f0d180 	.word	0x08f0d180
100044d4:	02dc6c00 	.word	0x02dc6c00
100044d8:	431bde83 	.word	0x431bde83

100044dc <generic_save_state>:
100044dc:	b086      	sub	sp, #24
100044de:	b403      	push	{r0, r1}
100044e0:	fc51 0408 	dcp_pxmd r0, r1
100044e4:	e9cd 0102 	strd	r0, r1, [sp, #8]
100044e8:	fc51 0409 	dcp_pymd r0, r1
100044ec:	e9cd 0104 	strd	r0, r1, [sp, #16]
100044f0:	ec51 040a 	dcp_refd r0, r1
100044f4:	e9cd 0106 	strd	r0, r1, [sp, #24]
100044f8:	bc03      	pop	{r0, r1}
100044fa:	47f0      	blx	lr

100044fc <generic_restore_state>:
100044fc:	e8bd 5000 	ldmia.w	sp!, {ip, lr}
10004500:	ec4e c400 	dcp_wxmd ip, lr
10004504:	e8bd 5000 	ldmia.w	sp!, {ip, lr}
10004508:	ec4e c401 	dcp_wymd ip, lr
1000450c:	e8bd 5000 	ldmia.w	sp!, {ip, lr}
10004510:	ec4e c402 	dcp_wefd ip, lr
10004514:	bd00      	pop	{pc}
10004516:	0000      	movs	r0, r0
10004518:	b500      	push	{lr}
1000451a:	f7ff ffdf 	bl	100044dc <generic_save_state>
1000451e:	e002      	b.n	10004526 <__wrap___aeabi_dadd+0x6>

10004520 <__wrap___aeabi_dadd>:
10004520:	fe10 f430 	dcp_pcmp APSR_nzcv
10004524:	d4f8      	bmi.n	10004518 <generic_restore_state+0x1c>
10004526:	ec41 0410 	dcp_wxup r0, r1
1000452a:	ec43 2411 	dcp_wyup r2, r3
1000452e:	ee00 0401 			dcp_add0
10004532:	ee10 0401 			dcp_add1
10004536:	ee80 0420 			dcp_nrdd
1000453a:	ec51 0410 	dcp_rdda r0, r1
1000453e:	4770      	bx	lr
10004540:	b500      	push	{lr}
10004542:	f7ff ffcb 	bl	100044dc <generic_save_state>
10004546:	e002      	b.n	1000454e <__wrap___aeabi_dsub+0x6>

10004548 <__wrap___aeabi_dsub>:
10004548:	fe10 f430 	dcp_pcmp APSR_nzcv
1000454c:	d4f8      	bmi.n	10004540 <__wrap___aeabi_dadd+0x20>
1000454e:	ec41 0410 	dcp_wxup r0, r1
10004552:	ec43 2411 	dcp_wyup r2, r3
10004556:	ee00 0401 			dcp_add0
1000455a:	ee10 0421 			dcp_sub1
1000455e:	ee80 0420 			dcp_nrdd
10004562:	ec51 0430 	dcp_rdds r0, r1
10004566:	4770      	bx	lr
10004568:	b500      	push	{lr}
1000456a:	f7ff ffb7 	bl	100044dc <generic_save_state>
1000456e:	e002      	b.n	10004576 <__wrap___aeabi_dmul+0x6>

10004570 <__wrap___aeabi_dmul>:
10004570:	fe10 f430 	dcp_pcmp APSR_nzcv
10004574:	d4f8      	bmi.n	10004568 <__wrap___aeabi_dsub+0x20>
10004576:	b510      	push	{r4, lr}
10004578:	ec41 0410 	dcp_wxup r0, r1
1000457c:	ec43 2411 	dcp_wyup r2, r3
10004580:	ec51 0404 	dcp_rxms r0, r1, #0x0
10004584:	ec53 2405 	dcp_ryms r2, r3, #0x0
10004588:	fba0 4c02 	umull	r4, ip, r0, r2
1000458c:	f05f 0e00 	movs.w	lr, #0
10004590:	fbe0 ce03 	umlal	ip, lr, r0, r3
10004594:	fbe1 ce02 	umlal	ip, lr, r1, r2
10004598:	ec4c 4420 	dcp_wxms r4, ip
1000459c:	2400      	movs	r4, #0
1000459e:	fbe1 e403 	umlal	lr, r4, r1, r3
100045a2:	ec44 e430 	dcp_wxmo lr, r4
100045a6:	ee80 0420 			dcp_nrdd
100045aa:	ec51 0450 	dcp_rddm r0, r1
100045ae:	e8bd 4010 	ldmia.w	sp!, {r4, lr}
100045b2:	4770      	bx	lr
100045b4:	b500      	push	{lr}
100045b6:	f7ff ff91 	bl	100044dc <generic_save_state>
100045ba:	e002      	b.n	100045c2 <__wrap___aeabi_ddiv+0x6>

100045bc <__wrap___aeabi_ddiv>:
100045bc:	fe10 f430 	dcp_pcmp APSR_nzcv
100045c0:	d4f8      	bmi.n	100045b4 <__wrap___aeabi_dmul+0x44>
100045c2:	ec41 0410 	dcp_wxup r0, r1
100045c6:	ec43 2411 	dcp_wyup r2, r3
100045ca:	ec51 0421 	dcp_rymr r0, r1
100045ce:	fba0 1201 	umull	r1, r2, r0, r1
100045d2:	ea6f 0282 	mvn.w	r2, r2, lsl #2
100045d6:	fb52 0010 	smmlar	r0, r2, r0, r0
100045da:	fb52 f212 	smmulr	r2, r2, r2
100045de:	fb52 0010 	smmlar	r0, r2, r0, r0
100045e2:	eba0 7cd0 	sub.w	ip, r0, r0, lsr #31
100045e6:	ec53 2404 	dcp_rxms r2, r3, #0x0
100045ea:	fb5c f113 	smmulr	r1, ip, r3
100045ee:	ec53 2415 	dcp_ryms r2, r3, #0x1
100045f2:	fba1 2002 	umull	r2, r0, r1, r2
100045f6:	fb01 0003 	mla	r0, r1, r3, r0
100045fa:	ec53 2444 	dcp_rxms r2, r3, #0x4
100045fe:	eba2 0000 	sub.w	r0, r2, r0
10004602:	fb50 f21c 	smmulr	r2, r0, ip
10004606:	ea4f 1311 	mov.w	r3, r1, lsr #4
1000460a:	eb12 7001 	adds.w	r0, r2, r1, lsl #28
1000460e:	eb43 71e2 	adc.w	r1, r3, r2, asr #31
10004612:	ea40 5051 	orr.w	r0, r0, r1, lsr #21
10004616:	ea20 5091 	bic.w	r0, r0, r1, lsr #22
1000461a:	f020 0007 	bic.w	r0, r0, #7
1000461e:	ec53 2475 	dcp_ryms r2, r3, #0x7
10004622:	fba0 3c02 	umull	r3, ip, r0, r2
10004626:	ec53 2475 	dcp_ryms r2, r3, #0x7
1000462a:	fb00 cc03 	mla	ip, r0, r3, ip
1000462e:	fb01 cc02 	mla	ip, r1, r2, ip
10004632:	ec53 2404 	dcp_rxms r2, r3, #0x0
10004636:	ebac 4c82 	sub.w	ip, ip, r2, lsl #18
1000463a:	ea40 705c 	orr.w	r0, r0, ip, lsr #29
1000463e:	f1a0 0001 	sub.w	r0, r0, #1
10004642:	ec41 0440 	dcp_wxdd r0, r1
10004646:	ee80 0420 			dcp_nrdd
1000464a:	ec51 0470 	dcp_rddd r0, r1
1000464e:	4770      	bx	lr
10004650:	b500      	push	{lr}
10004652:	f7ff ff43 	bl	100044dc <generic_save_state>
10004656:	e002      	b.n	1000465e <__wrap___aeabi_d2f+0x6>

10004658 <__wrap___aeabi_d2f>:
10004658:	fe10 f430 	dcp_pcmp APSR_nzcv
1000465c:	d4f8      	bmi.n	10004650 <__wrap___aeabi_ddiv+0x94>
1000465e:	ec41 0410 	dcp_wxup r0, r1
10004662:	ee80 0422 			dcp_nrdf
10004666:	ee10 04b2 			dcp_rdfg r0
1000466a:	4770      	bx	lr
1000466c:	b500      	push	{lr}
1000466e:	f7ff ff35 	bl	100044dc <generic_save_state>
10004672:	e002      	b.n	1000467a <__wrap___aeabi_i2d+0x6>

10004674 <__wrap___aeabi_i2d>:
10004674:	fe10 f430 	dcp_pcmp APSR_nzcv
10004678:	d4f8      	bmi.n	1000466c <__wrap___aeabi_d2f+0x14>
1000467a:	ec40 0470 	dcp_wxic r0, r0
1000467e:	ee00 0401 			dcp_add0
10004682:	ee10 0421 			dcp_sub1
10004686:	ee80 0420 			dcp_nrdd
1000468a:	ec51 0430 	dcp_rdds r0, r1
1000468e:	4770      	bx	lr
10004690:	b500      	push	{lr}
10004692:	f7ff ff23 	bl	100044dc <generic_save_state>
10004696:	e002      	b.n	1000469e <__wrap___aeabi_ui2d+0x6>

10004698 <__wrap___aeabi_ui2d>:
10004698:	fe10 f430 	dcp_pcmp APSR_nzcv
1000469c:	d4f8      	bmi.n	10004690 <__wrap___aeabi_i2d+0x1c>
1000469e:	ec40 0460 	dcp_wxuc r0, r0
100046a2:	ee00 0401 			dcp_add0
100046a6:	ee10 0421 			dcp_sub1
100046aa:	ee80 0420 			dcp_nrdd
100046ae:	ec51 0430 	dcp_rdds r0, r1
100046b2:	4770      	bx	lr
100046b4:	b500      	push	{lr}
100046b6:	f7ff ff11 	bl	100044dc <generic_save_state>
100046ba:	e002      	b.n	100046c2 <double2int_z_entry>

100046bc <__wrap___aeabi_d2iz>:
100046bc:	fe10 f430 	dcp_pcmp APSR_nzcv
100046c0:	d4f8      	bmi.n	100046b4 <__wrap___aeabi_ui2d+0x1c>

100046c2 <double2int_z_entry>:
100046c2:	ec41 0480 	dcp_wxdc r0, r1
100046c6:	ee00 0401 			dcp_add0
100046ca:	ee10 0401 			dcp_add1
100046ce:	ee80 0440 			dcp_ntdc
100046d2:	ee10 0413 			dcp_rdic r0
100046d6:	4770      	bx	lr
100046d8:	b500      	push	{lr}
100046da:	f7ff feff 	bl	100044dc <generic_save_state>
100046de:	e002      	b.n	100046e6 <double2uint_z_entry>

100046e0 <__wrap___aeabi_d2uiz>:
100046e0:	fe10 f430 	dcp_pcmp APSR_nzcv
100046e4:	d4f8      	bmi.n	100046d8 <double2int_z_entry+0x16>

100046e6 <double2uint_z_entry>:
100046e6:	ec41 0480 	dcp_wxdc r0, r1
100046ea:	ee00 0401 			dcp_add0
100046ee:	ee10 0401 			dcp_add1
100046f2:	ee80 0440 			dcp_ntdc
100046f6:	ee10 0433 			dcp_rduc r0
100046fa:	4770      	bx	lr
100046fc:	b500      	push	{lr}
100046fe:	f7ff feed 	bl	100044dc <generic_save_state>
10004702:	e002      	b.n	1000470a <__wrap___aeabi_dcmpun+0x6>

10004704 <__wrap___aeabi_dcmpun>:
10004704:	fe10 f430 	dcp_pcmp APSR_nzcv
10004708:	d4f8      	bmi.n	100046fc <double2uint_z_entry+0x16>
1000470a:	ec41 0410 	dcp_wxup r0, r1
1000470e:	ec43 2411 	dcp_wyup r2, r3
10004712:	ee00 0401 			dcp_add0
10004716:	ee10 0430 			dcp_rcmp r0
1000471a:	f3c0 7000 	ubfx	r0, r0, #28, #1
1000471e:	4770      	bx	lr
10004720:	b500      	push	{lr}
10004722:	f7ff fedb 	bl	100044dc <generic_save_state>
10004726:	e002      	b.n	1000472e <__wrap___aeabi_dcmplt+0x6>

10004728 <__wrap___aeabi_dcmplt>:
10004728:	fe10 f430 	dcp_pcmp APSR_nzcv
1000472c:	d4f8      	bmi.n	10004720 <__wrap___aeabi_dcmpun+0x1c>
1000472e:	ec43 2410 	dcp_wxup r2, r3
10004732:	ec41 0411 	dcp_wyup r0, r1
10004736:	ee00 0401 			dcp_add0
1000473a:	ee10 f430 			dcp_rcmp APSR_nzcv
1000473e:	bf8c      	ite	hi
10004740:	2001      	movhi	r0, #1
10004742:	2000      	movls	r0, #0
10004744:	4770      	bx	lr
10004746:	bf00      	nop
10004748:	b500      	push	{lr}
1000474a:	f7ff fec7 	bl	100044dc <generic_save_state>
1000474e:	e002      	b.n	10004756 <__wrap___aeabi_dcmple+0x6>

10004750 <__wrap___aeabi_dcmple>:
10004750:	fe10 f430 	dcp_pcmp APSR_nzcv
10004754:	d4f8      	bmi.n	10004748 <__wrap___aeabi_dcmplt+0x20>
10004756:	ec43 2410 	dcp_wxup r2, r3
1000475a:	ec41 0411 	dcp_wyup r0, r1
1000475e:	ee00 0401 			dcp_add0
10004762:	ee10 f430 			dcp_rcmp APSR_nzcv
10004766:	bf2c      	ite	cs
10004768:	2001      	movcs	r0, #1
1000476a:	2000      	movcc	r0, #0
1000476c:	4770      	bx	lr
1000476e:	bf00      	nop
10004770:	b500      	push	{lr}
10004772:	f7ff feb3 	bl	100044dc <generic_save_state>
10004776:	e002      	b.n	1000477e <__wrap___aeabi_dcmpge+0x6>

10004778 <__wrap___aeabi_dcmpge>:
10004778:	fe10 f430 	dcp_pcmp APSR_nzcv
1000477c:	d4f8      	bmi.n	10004770 <__wrap___aeabi_dcmple+0x20>
1000477e:	ec41 0410 	dcp_wxup r0, r1
10004782:	ec43 2411 	dcp_wyup r2, r3
10004786:	ee00 0401 			dcp_add0
1000478a:	ee10 f430 			dcp_rcmp APSR_nzcv
1000478e:	bf2c      	ite	cs
10004790:	2001      	movcs	r0, #1
10004792:	2000      	movcc	r0, #0
10004794:	4770      	bx	lr
10004796:	bf00      	nop
10004798:	b500      	push	{lr}
1000479a:	f7ff fe9f 	bl	100044dc <generic_save_state>
1000479e:	e002      	b.n	100047a6 <__wrap___aeabi_dcmpgt+0x6>

100047a0 <__wrap___aeabi_dcmpgt>:
100047a0:	fe10 f430 	dcp_pcmp APSR_nzcv
100047a4:	d4f8      	bmi.n	10004798 <__wrap___aeabi_dcmpge+0x20>
100047a6:	ec41 0410 	dcp_wxup r0, r1
100047aa:	ec43 2411 	dcp_wyup r2, r3
100047ae:	ee00 0401 			dcp_add0
100047b2:	ee10 f430 			dcp_rcmp APSR_nzcv
100047b6:	bf8c      	ite	hi
100047b8:	2001      	movhi	r0, #1
100047ba:	2000      	movls	r0, #0
100047bc:	4770      	bx	lr
100047be:	bf00      	nop

100047c0 <__wrap_asinf>:
100047c0:	ee07 0a10 	vmov	s14, r0
100047c4:	eef7 6a00 	vmov.f32	s13, #112	@ 0x3f800000  1.0
100047c8:	ee76 7ac7 	vsub.f32	s15, s13, s14
100047cc:	ee77 6a26 	vadd.f32	s13, s14, s13
100047d0:	ee67 7aa6 	vmul.f32	s15, s15, s13
100047d4:	ee17 3a90 	vmov	r3, s15
100047d8:	f013 4fff 	tst.w	r3, #2139095040	@ 0x7f800000
100047dc:	d001      	beq.n	100047e2 <__wrap_asinf+0x22>
100047de:	2b00      	cmp	r3, #0
100047e0:	db0d      	blt.n	100047fe <__wrap_asinf+0x3e>
100047e2:	eef5 7a40 	vcmp.f32	s15, #0.0
100047e6:	eef1 fa10 	vmrs	APSR_nzcv, fpscr
100047ea:	ee17 3a10 	vmov	r3, s14
100047ee:	d409      	bmi.n	10004804 <__wrap_asinf+0x44>
100047f0:	eeb1 7ae7 	vsqrt.f32	s14, s15
100047f4:	4618      	mov	r0, r3
100047f6:	ee17 1a10 	vmov	r1, s14
100047fa:	f000 b92b 	b.w	10004a54 <__wrap_atan2f>
100047fe:	f04f 40ff 	mov.w	r0, #2139095040	@ 0x7f800000
10004802:	4770      	bx	lr
10004804:	b500      	push	{lr}
10004806:	ee17 0a90 	vmov	r0, s15
1000480a:	b083      	sub	sp, #12
1000480c:	ed8d 7a01 	vstr	s14, [sp, #4]
10004810:	f004 ff0a 	bl	10009628 <__sqrtf_veneer>
10004814:	9b01      	ldr	r3, [sp, #4]
10004816:	4601      	mov	r1, r0
10004818:	4618      	mov	r0, r3
1000481a:	b003      	add	sp, #12
1000481c:	f85d eb04 	ldr.w	lr, [sp], #4
10004820:	f000 b918 	b.w	10004a54 <__wrap_atan2f>

10004824 <__wrap___aeabi_l2f>:
10004824:	2200      	movs	r2, #0

10004826 <fix642float>:
10004826:	2900      	cmp	r1, #0
10004828:	f280 80a9 	bge.w	1000497e <ufix642float>
1000482c:	4240      	negs	r0, r0
1000482e:	eb61 0141 	sbc.w	r1, r1, r1, lsl #1
10004832:	b3b1      	cbz	r1, 100048a2 <fix642float+0x7c>
10004834:	fab1 f381 	clz	r3, r1
10004838:	3b08      	subs	r3, #8
1000483a:	d416      	bmi.n	1000486a <fix642float+0x44>
1000483c:	4099      	lsls	r1, r3
1000483e:	fa10 fc03 	lsls.w	ip, r0, r3
10004842:	f1c3 0320 	rsb	r3, r3, #32
10004846:	fa20 f003 	lsr.w	r0, r0, r3
1000484a:	ea40 0001 	orr.w	r0, r0, r1
1000484e:	eba2 0203 	sub.w	r2, r2, r3
10004852:	f1c2 0295 	rsb	r2, r2, #149	@ 0x95
10004856:	eb1c 0c0c 	adds.w	ip, ip, ip
1000485a:	eb40 50c2 	adc.w	r0, r0, r2, lsl #23
1000485e:	f040 4000 	orr.w	r0, r0, #2147483648	@ 0x80000000
10004862:	d020      	beq.n	100048a6 <fix642float+0x80>
10004864:	2afe      	cmp	r2, #254	@ 0xfe
10004866:	d216      	bcs.n	10004896 <fix642float+0x70>
10004868:	4770      	bx	lr
1000486a:	f103 0321 	add.w	r3, r3, #33	@ 0x21
1000486e:	fa11 fc03 	lsls.w	ip, r1, r3
10004872:	ea5c 0c00 	orrs.w	ip, ip, r0
10004876:	f1c3 0321 	rsb	r3, r3, #33	@ 0x21
1000487a:	fa21 f003 	lsr.w	r0, r1, r3
1000487e:	eba3 0202 	sub.w	r2, r3, r2
10004882:	f102 02b5 	add.w	r2, r2, #181	@ 0xb5
10004886:	eb40 50c2 	adc.w	r0, r0, r2, lsl #23
1000488a:	f040 4000 	orr.w	r0, r0, #2147483648	@ 0x80000000
1000488e:	d00a      	beq.n	100048a6 <fix642float+0x80>
10004890:	2afe      	cmp	r2, #254	@ 0xfe
10004892:	bf38      	it	cc
10004894:	4770      	bxcc	lr
10004896:	f04f 4000 	mov.w	r0, #2147483648	@ 0x80000000
1000489a:	bfa8      	it	ge
1000489c:	f6cf 7080 	movtge	r0, #65408	@ 0xff80
100048a0:	4770      	bx	lr
100048a2:	4611      	mov	r1, r2
100048a4:	e00a      	b.n	100048bc <fix2float_neg>
100048a6:	bf28      	it	cs
100048a8:	f020 0001 	biccs.w	r0, r0, #1
100048ac:	2afe      	cmp	r2, #254	@ 0xfe
100048ae:	bf38      	it	cc
100048b0:	4770      	bxcc	lr
100048b2:	e7f0      	b.n	10004896 <fix642float+0x70>

100048b4 <fix2float>:
100048b4:	2800      	cmp	r0, #0
100048b6:	f280 8033 	bge.w	10004920 <ufix2float>
100048ba:	4240      	negs	r0, r0

100048bc <fix2float_neg>:
100048bc:	fab0 f380 	clz	r3, r0
100048c0:	3b08      	subs	r3, #8
100048c2:	d40c      	bmi.n	100048de <fix2float_neg+0x22>
100048c4:	4098      	lsls	r0, r3
100048c6:	eb01 0203 	add.w	r2, r1, r3
100048ca:	f1c2 0295 	rsb	r2, r2, #149	@ 0x95
100048ce:	eb00 50c2 	add.w	r0, r0, r2, lsl #23
100048d2:	f040 4000 	orr.w	r0, r0, #2147483648	@ 0x80000000
100048d6:	2afe      	cmp	r2, #254	@ 0xfe
100048d8:	bf38      	it	cc
100048da:	4770      	bxcc	lr
100048dc:	e013      	b.n	10004906 <fix2float_neg+0x4a>
100048de:	f103 0321 	add.w	r3, r3, #33	@ 0x21
100048e2:	fa10 fc03 	lsls.w	ip, r0, r3
100048e6:	f1c3 0321 	rsb	r3, r3, #33	@ 0x21
100048ea:	fa20 f003 	lsr.w	r0, r0, r3
100048ee:	eba3 0201 	sub.w	r2, r3, r1
100048f2:	f102 0295 	add.w	r2, r2, #149	@ 0x95
100048f6:	eb40 50c2 	adc.w	r0, r0, r2, lsl #23
100048fa:	f040 4000 	orr.w	r0, r0, #2147483648	@ 0x80000000
100048fe:	d008      	beq.n	10004912 <fix2float_neg+0x56>
10004900:	2afe      	cmp	r2, #254	@ 0xfe
10004902:	bf38      	it	cc
10004904:	4770      	bxcc	lr
10004906:	f04f 4000 	mov.w	r0, #2147483648	@ 0x80000000
1000490a:	bfa8      	it	ge
1000490c:	f040 40ff 	orrge.w	r0, r0, #2139095040	@ 0x7f800000
10004910:	4770      	bx	lr
10004912:	bf28      	it	cs
10004914:	f020 0001 	biccs.w	r0, r0, #1
10004918:	2afe      	cmp	r2, #254	@ 0xfe
1000491a:	bf38      	it	cc
1000491c:	4770      	bxcc	lr
1000491e:	e7f2      	b.n	10004906 <fix2float_neg+0x4a>

10004920 <ufix2float>:
10004920:	b320      	cbz	r0, 1000496c <ufix2float+0x4c>
10004922:	fab0 f380 	clz	r3, r0
10004926:	3b08      	subs	r3, #8
10004928:	d40a      	bmi.n	10004940 <ufix2float+0x20>
1000492a:	4098      	lsls	r0, r3
1000492c:	eb01 0203 	add.w	r2, r1, r3
10004930:	f1c2 0295 	rsb	r2, r2, #149	@ 0x95
10004934:	eb00 50c2 	add.w	r0, r0, r2, lsl #23
10004938:	2afe      	cmp	r2, #254	@ 0xfe
1000493a:	bf38      	it	cc
1000493c:	4770      	bxcc	lr
1000493e:	e011      	b.n	10004964 <ufix2float+0x44>
10004940:	f103 0321 	add.w	r3, r3, #33	@ 0x21
10004944:	fa10 fc03 	lsls.w	ip, r0, r3
10004948:	f1c3 0321 	rsb	r3, r3, #33	@ 0x21
1000494c:	fa20 f003 	lsr.w	r0, r0, r3
10004950:	eba3 0201 	sub.w	r2, r3, r1
10004954:	f102 0295 	add.w	r2, r2, #149	@ 0x95
10004958:	eb40 50c2 	adc.w	r0, r0, r2, lsl #23
1000495c:	d007      	beq.n	1000496e <ufix2float+0x4e>
1000495e:	2afe      	cmp	r2, #254	@ 0xfe
10004960:	bf38      	it	cc
10004962:	4770      	bxcc	lr
10004964:	bfac      	ite	ge
10004966:	f04f 40ff 	movge.w	r0, #2139095040	@ 0x7f800000
1000496a:	2000      	movlt	r0, #0
1000496c:	4770      	bx	lr
1000496e:	bf28      	it	cs
10004970:	f020 0001 	biccs.w	r0, r0, #1
10004974:	2afe      	cmp	r2, #254	@ 0xfe
10004976:	bf38      	it	cc
10004978:	4770      	bxcc	lr
1000497a:	e7f3      	b.n	10004964 <ufix2float+0x44>

1000497c <__wrap___aeabi_ul2f>:
1000497c:	2200      	movs	r2, #0

1000497e <ufix642float>:
1000497e:	b389      	cbz	r1, 100049e4 <ufix642float+0x66>
10004980:	fab1 f381 	clz	r3, r1
10004984:	3b08      	subs	r3, #8
10004986:	d414      	bmi.n	100049b2 <ufix642float+0x34>
10004988:	4099      	lsls	r1, r3
1000498a:	fa10 fc03 	lsls.w	ip, r0, r3
1000498e:	f1c3 0320 	rsb	r3, r3, #32
10004992:	fa20 f003 	lsr.w	r0, r0, r3
10004996:	ea40 0001 	orr.w	r0, r0, r1
1000499a:	eba2 0203 	sub.w	r2, r2, r3
1000499e:	f1c2 0295 	rsb	r2, r2, #149	@ 0x95
100049a2:	eb1c 0c0c 	adds.w	ip, ip, ip
100049a6:	eb40 50c2 	adc.w	r0, r0, r2, lsl #23
100049aa:	d01e      	beq.n	100049ea <ufix642float+0x6c>
100049ac:	2afe      	cmp	r2, #254	@ 0xfe
100049ae:	d214      	bcs.n	100049da <ufix642float+0x5c>
100049b0:	4770      	bx	lr
100049b2:	f103 0321 	add.w	r3, r3, #33	@ 0x21
100049b6:	fa11 fc03 	lsls.w	ip, r1, r3
100049ba:	ea5c 0c00 	orrs.w	ip, ip, r0
100049be:	f1c3 0321 	rsb	r3, r3, #33	@ 0x21
100049c2:	fa21 f003 	lsr.w	r0, r1, r3
100049c6:	eba3 0202 	sub.w	r2, r3, r2
100049ca:	f102 02b5 	add.w	r2, r2, #181	@ 0xb5
100049ce:	eb40 50c2 	adc.w	r0, r0, r2, lsl #23
100049d2:	d00a      	beq.n	100049ea <ufix642float+0x6c>
100049d4:	2afe      	cmp	r2, #254	@ 0xfe
100049d6:	bf38      	it	cc
100049d8:	4770      	bxcc	lr
100049da:	bfac      	ite	ge
100049dc:	f04f 40ff 	movge.w	r0, #2139095040	@ 0x7f800000
100049e0:	2000      	movlt	r0, #0
100049e2:	4770      	bx	lr
100049e4:	4611      	mov	r1, r2
100049e6:	f7ff bf9b 	b.w	10004920 <ufix2float>
100049ea:	bf28      	it	cs
100049ec:	f020 0001 	biccs.w	r0, r0, #1
100049f0:	2afe      	cmp	r2, #254	@ 0xfe
100049f2:	bf38      	it	cc
100049f4:	4770      	bxcc	lr
100049f6:	e7f0      	b.n	100049da <ufix642float+0x5c>
100049f8:	f451 0080 	orrs.w	r0, r1, #4194304	@ 0x400000
100049fc:	4770      	bx	lr
100049fe:	d103      	bne.n	10004a08 <ufix642float+0x8a>
10004a00:	f1b3 4fff 	cmp.w	r3, #2139095040	@ 0x7f800000
10004a04:	d13c      	bne.n	10004a80 <__wrap_atan2f+0x2c>
10004a06:	e006      	b.n	10004a16 <ufix642float+0x98>
10004a08:	f450 0080 	orrs.w	r0, r0, #4194304	@ 0x400000
10004a0c:	4770      	bx	lr
10004a0e:	d1fb      	bne.n	10004a08 <ufix642float+0x8a>
10004a10:	f1b3 4fff 	cmp.w	r3, #2139095040	@ 0x7f800000
10004a14:	d149      	bne.n	10004aaa <__wrap_atan2f+0x56>
10004a16:	3801      	subs	r0, #1
10004a18:	3901      	subs	r1, #1
10004a1a:	e01b      	b.n	10004a54 <__wrap_atan2f>
10004a1c:	f003 4300 	and.w	r3, r3, #2147483648	@ 0x80000000
10004a20:	f5b2 0f00 	cmp.w	r2, #8388608	@ 0x800000
10004a24:	d202      	bcs.n	10004a2c <ufix642float+0xae>
10004a26:	e00b      	b.n	10004a40 <ufix642float+0xc2>
10004a28:	f002 4200 	and.w	r2, r2, #2147483648	@ 0x80000000
10004a2c:	ec43 2a10 	vmov	s0, s1, r2, r3
10004a30:	ee80 1a20 	vdiv.f32	s2, s0, s1
10004a34:	e01e      	b.n	10004a74 <__wrap_atan2f+0x20>
10004a36:	f003 4300 	and.w	r3, r3, #2147483648	@ 0x80000000
10004a3a:	f5b2 0f00 	cmp.w	r2, #8388608	@ 0x800000
10004a3e:	d204      	bcs.n	10004a4a <ufix642float+0xcc>
10004a40:	f041 517e 	orr.w	r1, r1, #1065353216	@ 0x3f800000
10004a44:	e006      	b.n	10004a54 <__wrap_atan2f>
10004a46:	f002 4200 	and.w	r2, r2, #2147483648	@ 0x80000000
10004a4a:	ec43 2a10 	vmov	s0, s1, r2, r3
10004a4e:	ee80 1a80 	vdiv.f32	s2, s1, s0
10004a52:	e024      	b.n	10004a9e <__wrap_atan2f+0x4a>

10004a54 <__wrap_atan2f>:
10004a54:	f020 4200 	bic.w	r2, r0, #2147483648	@ 0x80000000
10004a58:	f021 4300 	bic.w	r3, r1, #2147483648	@ 0x80000000
10004a5c:	ec43 2a10 	vmov	s0, s1, r2, r3
10004a60:	429a      	cmp	r2, r3
10004a62:	d814      	bhi.n	10004a8e <__wrap_atan2f+0x3a>
10004a64:	ee80 1a20 	vdiv.f32	s2, s0, s1
10004a68:	f5b3 0f00 	cmp.w	r3, #8388608	@ 0x800000
10004a6c:	d3d6      	bcc.n	10004a1c <ufix642float+0x9e>
10004a6e:	f5b2 0f00 	cmp.w	r2, #8388608	@ 0x800000
10004a72:	d3d9      	bcc.n	10004a28 <ufix642float+0xaa>
10004a74:	f1b3 4fff 	cmp.w	r3, #2139095040	@ 0x7f800000
10004a78:	d8be      	bhi.n	100049f8 <ufix642float+0x7a>
10004a7a:	f1b2 4fff 	cmp.w	r2, #2139095040	@ 0x7f800000
10004a7e:	d2be      	bcs.n	100049fe <ufix642float+0x80>
10004a80:	2900      	cmp	r1, #0
10004a82:	bf4c      	ite	mi
10004a84:	f8df c12c 	ldrmi.w	ip, [pc, #300]	@ 10004bb4 <pi>
10004a88:	f04f 0c00 	movpl.w	ip, #0
10004a8c:	e011      	b.n	10004ab2 <__wrap_atan2f+0x5e>
10004a8e:	ee80 1a80 	vdiv.f32	s2, s1, s0
10004a92:	f5b3 0f00 	cmp.w	r3, #8388608	@ 0x800000
10004a96:	d3ce      	bcc.n	10004a36 <ufix642float+0xb8>
10004a98:	f5b2 0f00 	cmp.w	r2, #8388608	@ 0x800000
10004a9c:	d3d3      	bcc.n	10004a46 <ufix642float+0xc8>
10004a9e:	f1b3 4fff 	cmp.w	r3, #2139095040	@ 0x7f800000
10004aa2:	d8a9      	bhi.n	100049f8 <ufix642float+0x7a>
10004aa4:	f1b2 4fff 	cmp.w	r2, #2139095040	@ 0x7f800000
10004aa8:	d2b1      	bcs.n	10004a0e <ufix642float+0x90>
10004aaa:	f8df c104 	ldr.w	ip, [pc, #260]	@ 10004bb0 <piover2>
10004aae:	f091 4100 	eors.w	r1, r1, #2147483648	@ 0x80000000
10004ab2:	a242      	add	r2, pc, #264	@ (adr r2, 10004bbc <trigtab3>)
10004ab4:	eef0 1a41 	vmov.f32	s3, s2
10004ab8:	eeff 1acd 	vcvt.u32.f32	s3, s3, #6
10004abc:	ee11 3a90 	vmov	r3, s3
10004ac0:	085b      	lsrs	r3, r3, #1
10004ac2:	f153 0300 	adcs.w	r3, r3, #0
10004ac6:	eb02 02c3 	add.w	r2, r2, r3, lsl #3
10004aca:	edd2 2a01 	vldr	s5, [r2, #4]
10004ace:	ee22 0a81 	vmul.f32	s0, s5, s2
10004ad2:	ee71 0a62 	vsub.f32	s1, s2, s5
10004ad6:	eef7 2a00 	vmov.f32	s5, #112	@ 0x3f800000  1.0
10004ada:	ee32 0a80 	vadd.f32	s0, s5, s0
10004ade:	d032      	beq.n	10004b46 <__wrap_atan2f+0xf2>
10004ae0:	ee80 0a80 	vdiv.f32	s0, s1, s0
10004ae4:	6812      	ldr	r2, [r2, #0]
10004ae6:	2900      	cmp	r1, #0
10004ae8:	bf48      	it	mi
10004aea:	4252      	negmi	r2, r2
10004aec:	4462      	add	r2, ip
10004aee:	2800      	cmp	r0, #0
10004af0:	bf48      	it	mi
10004af2:	4252      	negmi	r2, r2
10004af4:	2a00      	cmp	r2, #0
10004af6:	d507      	bpl.n	10004b08 <__wrap_atan2f+0xb4>
10004af8:	4252      	negs	r2, r2
10004afa:	fab2 f382 	clz	r3, r2
10004afe:	409a      	lsls	r2, r3
10004b00:	d00b      	beq.n	10004b1a <__wrap_atan2f+0xc6>
10004b02:	f5c3 73c0 	rsb	r3, r3, #384	@ 0x180
10004b06:	e005      	b.n	10004b14 <__wrap_atan2f+0xc0>
10004b08:	fab2 f382 	clz	r3, r2
10004b0c:	409a      	lsls	r2, r3
10004b0e:	d004      	beq.n	10004b1a <__wrap_atan2f+0xc6>
10004b10:	f1c3 0380 	rsb	r3, r3, #128	@ 0x80
10004b14:	0a12      	lsrs	r2, r2, #8
10004b16:	eb42 52c3 	adc.w	r2, r2, r3, lsl #23
10004b1a:	ee20 1a00 	vmul.f32	s2, s0, s0
10004b1e:	eddf 1a26 	vldr	s3, [pc, #152]	@ 10004bb8 <onethird>
10004b22:	ee21 1a00 	vmul.f32	s2, s2, s0
10004b26:	ea90 0f01 	teq	r0, r1
10004b2a:	ee21 1a21 	vmul.f32	s2, s2, s3
10004b2e:	ee02 2a10 	vmov	s4, r2
10004b32:	ee30 0a41 	vsub.f32	s0, s0, s2
10004b36:	bf54      	ite	pl
10004b38:	ee32 0a00 	vaddpl.f32	s0, s4, s0
10004b3c:	ee32 0a40 	vsubmi.f32	s0, s4, s0
10004b40:	ee10 0a10 	vmov	r0, s0
10004b44:	4770      	bx	lr
10004b46:	ee80 0a80 	vdiv.f32	s0, s1, s0
10004b4a:	4662      	mov	r2, ip
10004b4c:	2800      	cmp	r0, #0
10004b4e:	bf48      	it	mi
10004b50:	4252      	negmi	r2, r2
10004b52:	2a00      	cmp	r2, #0
10004b54:	d507      	bpl.n	10004b66 <__wrap_atan2f+0x112>
10004b56:	4252      	negs	r2, r2
10004b58:	fab2 f382 	clz	r3, r2
10004b5c:	409a      	lsls	r2, r3
10004b5e:	d00b      	beq.n	10004b78 <__wrap_atan2f+0x124>
10004b60:	f5c3 73c0 	rsb	r3, r3, #384	@ 0x180
10004b64:	e005      	b.n	10004b72 <__wrap_atan2f+0x11e>
10004b66:	fab2 f382 	clz	r3, r2
10004b6a:	409a      	lsls	r2, r3
10004b6c:	d004      	beq.n	10004b78 <__wrap_atan2f+0x124>
10004b6e:	f1c3 0380 	rsb	r3, r3, #128	@ 0x80
10004b72:	0a12      	lsrs	r2, r2, #8
10004b74:	eb42 52c3 	adc.w	r2, r2, r3, lsl #23
10004b78:	ee20 1a00 	vmul.f32	s2, s0, s0
10004b7c:	eddf 1a0e 	vldr	s3, [pc, #56]	@ 10004bb8 <onethird>
10004b80:	ee21 1a00 	vmul.f32	s2, s2, s0
10004b84:	ea90 0f01 	teq	r0, r1
10004b88:	ee21 1a21 	vmul.f32	s2, s2, s3
10004b8c:	ee02 2a10 	vmov	s4, r2
10004b90:	ee30 0a41 	vsub.f32	s0, s0, s2
10004b94:	bf54      	ite	pl
10004b96:	ee32 0a00 	vaddpl.f32	s0, s4, s0
10004b9a:	ee32 0a40 	vsubmi.f32	s0, s4, s0
10004b9e:	ee10 0a10 	vmov	r0, s0
10004ba2:	f010 4fff 	tst.w	r0, #2139095040	@ 0x7f800000
10004ba6:	bf18      	it	ne
10004ba8:	4770      	bxne	lr
10004baa:	f000 4000 	and.w	r0, r0, #2147483648	@ 0x80000000
10004bae:	4770      	bx	lr

10004bb0 <piover2>:
10004bb0:	3243f6a9 	.word	0x3243f6a9

10004bb4 <pi>:
10004bb4:	6487ed51 	.word	0x6487ed51

10004bb8 <onethird>:
10004bb8:	3eaaaaab 	.word	0x3eaaaaab

10004bbc <trigtab3>:
	...
10004bc4:	00ffee23 	.word	0x00ffee23
10004bc8:	3d0001bb 	.word	0x3d0001bb
10004bcc:	01fe88dc 	.word	0x01fe88dc
10004bd0:	3d7f992a 	.word	0x3d7f992a
10004bd4:	02fe0a70 	.word	0x02fe0a70
10004bd8:	3dc01203 	.word	0x3dc01203
10004bdc:	03fad228 	.word	0x03fad228
10004be0:	3e000368 	.word	0x3e000368
10004be4:	04f5ab70 	.word	0x04f5ab70
10004be8:	3e1ffdea 	.word	0x3e1ffdea
10004bec:	05ed56f8 	.word	0x05ed56f8
10004bf0:	3e3fdddc 	.word	0x3e3fdddc
10004bf4:	06e4cfa0 	.word	0x06e4cfa0
10004bf8:	3e601425 	.word	0x3e601425
10004bfc:	07d8d3e0 	.word	0x07d8d3e0
10004c00:	3e80215d 	.word	0x3e80215d
10004c04:	08c60460 	.word	0x08c60460
10004c08:	3e9000a5 	.word	0x3e9000a5
10004c0c:	09b26770 	.word	0x09b26770
10004c10:	3ea01492 	.word	0x3ea01492
10004c14:	0a996d50 	.word	0x0a996d50
10004c18:	3eb01377 	.word	0x3eb01377
10004c1c:	0b7a6d10 	.word	0x0b7a6d10
10004c20:	3ebff4a0 	.word	0x3ebff4a0
10004c24:	0c593ce0 	.word	0x0c593ce0
10004c28:	3ed0019f 	.word	0x3ed0019f
10004c2c:	0d33ebd0 	.word	0x0d33ebd0
10004c30:	3ee01bbc 	.word	0x3ee01bbc
10004c34:	0e087ab0 	.word	0x0e087ab0
10004c38:	3ef01fbd 	.word	0x3ef01fbd
10004c3c:	0ed56180 	.word	0x0ed56180
10004c40:	3effef98 	.word	0x3effef98
10004c44:	0fa1de80 	.word	0x0fa1de80
10004c48:	3f080ebf 	.word	0x3f080ebf
10004c4c:	10639d00 	.word	0x10639d00
10004c50:	3f0fec31 	.word	0x3f0fec31
10004c54:	112690e0 	.word	0x112690e0
10004c58:	3f180cfd 	.word	0x3f180cfd
10004c5c:	11e014c0 	.word	0x11e014c0
10004c60:	3f200065 	.word	0x3f200065
10004c64:	129651e0 	.word	0x129651e0
10004c68:	3f2808be 	.word	0x3f2808be
10004c6c:	1346d400 	.word	0x1346d400
10004c70:	3f300a7d 	.word	0x3f300a7d
10004c74:	13efc7c0 	.word	0x13efc7c0
10004c78:	3f37ee2f 	.word	0x3f37ee2f
10004c7c:	14988960 	.word	0x14988960
10004c80:	3f400c32 	.word	0x3f400c32
10004c84:	1537a8c0 	.word	0x1537a8c0
10004c88:	3f47ef42 	.word	0x3f47ef42
10004c8c:	15d4cc60 	.word	0x15d4cc60
10004c90:	3f4ff630 	.word	0x3f4ff630
10004c94:	166ef280 	.word	0x166ef280
10004c98:	3f581534 	.word	0x3f581534
10004c9c:	16ff75c0 	.word	0x16ff75c0
10004ca0:	3f5fef1e 	.word	0x3f5fef1e
10004ca4:	179116a0 	.word	0x179116a0
10004ca8:	3f68184d 	.word	0x3f68184d
10004cac:	181b5aa0 	.word	0x181b5aa0
10004cb0:	3f701722 	.word	0x3f701722
10004cb4:	18a10560 	.word	0x18a10560
10004cb8:	3f781071 	.word	0x3f781071
10004cbc:	19214060 	.word	0x19214060
10004cc0:	3f7ff451 	.word	0x3f7ff451

10004cc4 <_out_null>:
10004cc4:	4770      	bx	lr
10004cc6:	bf00      	nop

10004cc8 <_out_rev>:
10004cc8:	e92d 4ff0 	stmdb	sp!, {r4, r5, r6, r7, r8, r9, sl, fp, lr}
10004ccc:	b083      	sub	sp, #12
10004cce:	460f      	mov	r7, r1
10004cd0:	4611      	mov	r1, r2
10004cd2:	e9dd b20e 	ldrd	fp, r2, [sp, #56]	@ 0x38
10004cd6:	0792      	lsls	r2, r2, #30
10004cd8:	4698      	mov	r8, r3
10004cda:	e9dd 930c 	ldrd	r9, r3, [sp, #48]	@ 0x30
10004cde:	4606      	mov	r6, r0
10004ce0:	d02a      	beq.n	10004d38 <_out_rev+0x70>
10004ce2:	2b00      	cmp	r3, #0
10004ce4:	d040      	beq.n	10004d68 <_out_rev+0xa0>
10004ce6:	460d      	mov	r5, r1
10004ce8:	eb09 0403 	add.w	r4, r9, r3
10004cec:	eb05 0a04 	add.w	sl, r5, r4
10004cf0:	9501      	str	r5, [sp, #4]
10004cf2:	460d      	mov	r5, r1
10004cf4:	930d      	str	r3, [sp, #52]	@ 0x34
10004cf6:	ebaa 0204 	sub.w	r2, sl, r4
10004cfa:	f814 0d01 	ldrb.w	r0, [r4, #-1]!
10004cfe:	4643      	mov	r3, r8
10004d00:	4639      	mov	r1, r7
10004d02:	47b0      	blx	r6
10004d04:	454c      	cmp	r4, r9
10004d06:	d1f6      	bne.n	10004cf6 <_out_rev+0x2e>
10004d08:	4629      	mov	r1, r5
10004d0a:	9b0d      	ldr	r3, [sp, #52]	@ 0x34
10004d0c:	9d01      	ldr	r5, [sp, #4]
10004d0e:	441d      	add	r5, r3
10004d10:	9b0f      	ldr	r3, [sp, #60]	@ 0x3c
10004d12:	079b      	lsls	r3, r3, #30
10004d14:	d50c      	bpl.n	10004d30 <_out_rev+0x68>
10004d16:	1a6c      	subs	r4, r5, r1
10004d18:	45a3      	cmp	fp, r4
10004d1a:	d909      	bls.n	10004d30 <_out_rev+0x68>
10004d1c:	462a      	mov	r2, r5
10004d1e:	4643      	mov	r3, r8
10004d20:	4639      	mov	r1, r7
10004d22:	2020      	movs	r0, #32
10004d24:	3401      	adds	r4, #1
10004d26:	47b0      	blx	r6
10004d28:	455c      	cmp	r4, fp
10004d2a:	f105 0501 	add.w	r5, r5, #1
10004d2e:	d3f5      	bcc.n	10004d1c <_out_rev+0x54>
10004d30:	4628      	mov	r0, r5
10004d32:	b003      	add	sp, #12
10004d34:	e8bd 8ff0 	ldmia.w	sp!, {r4, r5, r6, r7, r8, r9, sl, fp, pc}
10004d38:	455b      	cmp	r3, fp
10004d3a:	d217      	bcs.n	10004d6c <_out_rev+0xa4>
10004d3c:	468a      	mov	sl, r1
10004d3e:	461c      	mov	r4, r3
10004d40:	4689      	mov	r9, r1
10004d42:	ebab 0503 	sub.w	r5, fp, r3
10004d46:	440d      	add	r5, r1
10004d48:	4652      	mov	r2, sl
10004d4a:	4643      	mov	r3, r8
10004d4c:	4639      	mov	r1, r7
10004d4e:	2020      	movs	r0, #32
10004d50:	f10a 0a01 	add.w	sl, sl, #1
10004d54:	47b0      	blx	r6
10004d56:	45aa      	cmp	sl, r5
10004d58:	d1f6      	bne.n	10004d48 <_out_rev+0x80>
10004d5a:	4649      	mov	r1, r9
10004d5c:	4623      	mov	r3, r4
10004d5e:	f8dd 9030 	ldr.w	r9, [sp, #48]	@ 0x30
10004d62:	2c00      	cmp	r4, #0
10004d64:	d1c0      	bne.n	10004ce8 <_out_rev+0x20>
10004d66:	e7e3      	b.n	10004d30 <_out_rev+0x68>
10004d68:	460d      	mov	r5, r1
10004d6a:	e7d1      	b.n	10004d10 <_out_rev+0x48>
10004d6c:	2b00      	cmp	r3, #0
10004d6e:	d1ba      	bne.n	10004ce6 <_out_rev+0x1e>
10004d70:	460d      	mov	r5, r1
10004d72:	e7dd      	b.n	10004d30 <_out_rev+0x68>

10004d74 <_ntoa_format>:
10004d74:	e92d 4ff0 	stmdb	sp!, {r4, r5, r6, r7, r8, r9, sl, fp, lr}
10004d78:	460f      	mov	r7, r1
10004d7a:	990f      	ldr	r1, [sp, #60]	@ 0x3c
10004d7c:	4606      	mov	r6, r0
10004d7e:	f89d 002c 	ldrb.w	r0, [sp, #44]	@ 0x2c
10004d82:	078d      	lsls	r5, r1, #30
10004d84:	4690      	mov	r8, r2
10004d86:	e9dd a20c 	ldrd	sl, r2, [sp, #48]	@ 0x30
10004d8a:	4699      	mov	r9, r3
10004d8c:	4683      	mov	fp, r0
10004d8e:	9c09      	ldr	r4, [sp, #36]	@ 0x24
10004d90:	f8dd c028 	ldr.w	ip, [sp, #40]	@ 0x28
10004d94:	9b0e      	ldr	r3, [sp, #56]	@ 0x38
10004d96:	d451      	bmi.n	10004e3c <_ntoa_format+0xc8>
10004d98:	2b00      	cmp	r3, #0
10004d9a:	d14a      	bne.n	10004e32 <_ntoa_format+0xbe>
10004d9c:	4594      	cmp	ip, r2
10004d9e:	d24d      	bcs.n	10004e3c <_ntoa_format+0xc8>
10004da0:	f001 0501 	and.w	r5, r1, #1
10004da4:	f104 3eff 	add.w	lr, r4, #4294967295	@ 0xffffffff
10004da8:	2030      	movs	r0, #48	@ 0x30
10004daa:	44e6      	add	lr, ip
10004dac:	e005      	b.n	10004dba <_ntoa_format+0x46>
10004dae:	f10c 0c01 	add.w	ip, ip, #1
10004db2:	4562      	cmp	r2, ip
10004db4:	f80e 0f01 	strb.w	r0, [lr, #1]!
10004db8:	d902      	bls.n	10004dc0 <_ntoa_format+0x4c>
10004dba:	f1bc 0f20 	cmp.w	ip, #32
10004dbe:	d1f6      	bne.n	10004dae <_ntoa_format+0x3a>
10004dc0:	2d00      	cmp	r5, #0
10004dc2:	f000 8084 	beq.w	10004ece <_ntoa_format+0x15a>
10004dc6:	4563      	cmp	r3, ip
10004dc8:	d938      	bls.n	10004e3c <_ntoa_format+0xc8>
10004dca:	1e60      	subs	r0, r4, #1
10004dcc:	f04f 0e30 	mov.w	lr, #48	@ 0x30
10004dd0:	4460      	add	r0, ip
10004dd2:	e005      	b.n	10004de0 <_ntoa_format+0x6c>
10004dd4:	f10c 0c01 	add.w	ip, ip, #1
10004dd8:	459c      	cmp	ip, r3
10004dda:	f800 ef01 	strb.w	lr, [r0, #1]!
10004dde:	d02d      	beq.n	10004e3c <_ntoa_format+0xc8>
10004de0:	f1bc 0f20 	cmp.w	ip, #32
10004de4:	d1f6      	bne.n	10004dd4 <_ntoa_format+0x60>
10004de6:	06cd      	lsls	r5, r1, #27
10004de8:	d516      	bpl.n	10004e18 <_ntoa_format+0xa4>
10004dea:	0548      	lsls	r0, r1, #21
10004dec:	d44e      	bmi.n	10004e8c <_ntoa_format+0x118>
10004dee:	4594      	cmp	ip, r2
10004df0:	d061      	beq.n	10004eb6 <_ntoa_format+0x142>
10004df2:	459c      	cmp	ip, r3
10004df4:	d05f      	beq.n	10004eb6 <_ntoa_format+0x142>
10004df6:	f1ba 0f10 	cmp.w	sl, #16
10004dfa:	d04a      	beq.n	10004e92 <_ntoa_format+0x11e>
10004dfc:	f1ba 0f02 	cmp.w	sl, #2
10004e00:	d052      	beq.n	10004ea8 <_ntoa_format+0x134>
10004e02:	f1bc 0f20 	cmp.w	ip, #32
10004e06:	d007      	beq.n	10004e18 <_ntoa_format+0xa4>
10004e08:	4662      	mov	r2, ip
10004e0a:	f10c 0c01 	add.w	ip, ip, #1
10004e0e:	2030      	movs	r0, #48	@ 0x30
10004e10:	54a0      	strb	r0, [r4, r2]
10004e12:	f1bc 0f20 	cmp.w	ip, #32
10004e16:	d122      	bne.n	10004e5e <_ntoa_format+0xea>
10004e18:	e9cd 310b 	strd	r3, r1, [sp, #44]	@ 0x2c
10004e1c:	4642      	mov	r2, r8
10004e1e:	464b      	mov	r3, r9
10004e20:	4639      	mov	r1, r7
10004e22:	4630      	mov	r0, r6
10004e24:	f8cd c028 	str.w	ip, [sp, #40]	@ 0x28
10004e28:	9409      	str	r4, [sp, #36]	@ 0x24
10004e2a:	e8bd 4ff0 	ldmia.w	sp!, {r4, r5, r6, r7, r8, r9, sl, fp, lr}
10004e2e:	f7ff bf4b 	b.w	10004cc8 <_out_rev>
10004e32:	f011 0501 	ands.w	r5, r1, #1
10004e36:	d123      	bne.n	10004e80 <_ntoa_format+0x10c>
10004e38:	4594      	cmp	ip, r2
10004e3a:	d3b3      	bcc.n	10004da4 <_ntoa_format+0x30>
10004e3c:	06cd      	lsls	r5, r1, #27
10004e3e:	d5e8      	bpl.n	10004e12 <_ntoa_format+0x9e>
10004e40:	0548      	lsls	r0, r1, #21
10004e42:	d4d8      	bmi.n	10004df6 <_ntoa_format+0x82>
10004e44:	f1bc 0f00 	cmp.w	ip, #0
10004e48:	d1d1      	bne.n	10004dee <_ntoa_format+0x7a>
10004e4a:	f1ba 0f10 	cmp.w	sl, #16
10004e4e:	d053      	beq.n	10004ef8 <_ntoa_format+0x184>
10004e50:	f1ba 0f02 	cmp.w	sl, #2
10004e54:	d06f      	beq.n	10004f36 <_ntoa_format+0x1c2>
10004e56:	2230      	movs	r2, #48	@ 0x30
10004e58:	f04f 0c01 	mov.w	ip, #1
10004e5c:	7022      	strb	r2, [r4, #0]
10004e5e:	f1bb 0f00 	cmp.w	fp, #0
10004e62:	d107      	bne.n	10004e74 <_ntoa_format+0x100>
10004e64:	0748      	lsls	r0, r1, #29
10004e66:	d537      	bpl.n	10004ed8 <_ntoa_format+0x164>
10004e68:	222b      	movs	r2, #43	@ 0x2b
10004e6a:	f804 200c 	strb.w	r2, [r4, ip]
10004e6e:	f10c 0c01 	add.w	ip, ip, #1
10004e72:	e7d1      	b.n	10004e18 <_ntoa_format+0xa4>
10004e74:	222d      	movs	r2, #45	@ 0x2d
10004e76:	f804 200c 	strb.w	r2, [r4, ip]
10004e7a:	f10c 0c01 	add.w	ip, ip, #1
10004e7e:	e7cb      	b.n	10004e18 <_ntoa_format+0xa4>
10004e80:	b390      	cbz	r0, 10004ee8 <_ntoa_format+0x174>
10004e82:	4594      	cmp	ip, r2
10004e84:	f103 33ff 	add.w	r3, r3, #4294967295	@ 0xffffffff
10004e88:	d38c      	bcc.n	10004da4 <_ntoa_format+0x30>
10004e8a:	e79c      	b.n	10004dc6 <_ntoa_format+0x52>
10004e8c:	f1ba 0f10 	cmp.w	sl, #16
10004e90:	d1c2      	bne.n	10004e18 <_ntoa_format+0xa4>
10004e92:	068d      	lsls	r5, r1, #26
10004e94:	d53c      	bpl.n	10004f10 <_ntoa_format+0x19c>
10004e96:	f1bc 0f20 	cmp.w	ip, #32
10004e9a:	d0bd      	beq.n	10004e18 <_ntoa_format+0xa4>
10004e9c:	2258      	movs	r2, #88	@ 0x58
10004e9e:	f804 200c 	strb.w	r2, [r4, ip]
10004ea2:	f10c 0c01 	add.w	ip, ip, #1
10004ea6:	e7ac      	b.n	10004e02 <_ntoa_format+0x8e>
10004ea8:	f1bc 0f20 	cmp.w	ip, #32
10004eac:	d0b4      	beq.n	10004e18 <_ntoa_format+0xa4>
10004eae:	4662      	mov	r2, ip
10004eb0:	f10c 0c01 	add.w	ip, ip, #1
10004eb4:	e008      	b.n	10004ec8 <_ntoa_format+0x154>
10004eb6:	f1bc 0201 	subs.w	r2, ip, #1
10004eba:	d0c6      	beq.n	10004e4a <_ntoa_format+0xd6>
10004ebc:	f1ba 0f10 	cmp.w	sl, #16
10004ec0:	d042      	beq.n	10004f48 <_ntoa_format+0x1d4>
10004ec2:	f1ba 0f02 	cmp.w	sl, #2
10004ec6:	d1a2      	bne.n	10004e0e <_ntoa_format+0x9a>
10004ec8:	2062      	movs	r0, #98	@ 0x62
10004eca:	54a0      	strb	r0, [r4, r2]
10004ecc:	e799      	b.n	10004e02 <_ntoa_format+0x8e>
10004ece:	06cd      	lsls	r5, r1, #27
10004ed0:	d59f      	bpl.n	10004e12 <_ntoa_format+0x9e>
10004ed2:	0548      	lsls	r0, r1, #21
10004ed4:	d58b      	bpl.n	10004dee <_ntoa_format+0x7a>
10004ed6:	e78e      	b.n	10004df6 <_ntoa_format+0x82>
10004ed8:	070a      	lsls	r2, r1, #28
10004eda:	d59d      	bpl.n	10004e18 <_ntoa_format+0xa4>
10004edc:	2220      	movs	r2, #32
10004ede:	f804 200c 	strb.w	r2, [r4, ip]
10004ee2:	f10c 0c01 	add.w	ip, ip, #1
10004ee6:	e797      	b.n	10004e18 <_ntoa_format+0xa4>
10004ee8:	f011 0f0c 	tst.w	r1, #12
10004eec:	d000      	beq.n	10004ef0 <_ntoa_format+0x17c>
10004eee:	3b01      	subs	r3, #1
10004ef0:	4594      	cmp	ip, r2
10004ef2:	f4ff af57 	bcc.w	10004da4 <_ntoa_format+0x30>
10004ef6:	e766      	b.n	10004dc6 <_ntoa_format+0x52>
10004ef8:	068a      	lsls	r2, r1, #26
10004efa:	d412      	bmi.n	10004f22 <_ntoa_format+0x1ae>
10004efc:	2278      	movs	r2, #120	@ 0x78
10004efe:	7022      	strb	r2, [r4, #0]
10004f00:	2230      	movs	r2, #48	@ 0x30
10004f02:	f04f 0c02 	mov.w	ip, #2
10004f06:	7062      	strb	r2, [r4, #1]
10004f08:	f1bb 0f00 	cmp.w	fp, #0
10004f0c:	d0aa      	beq.n	10004e64 <_ntoa_format+0xf0>
10004f0e:	e7b1      	b.n	10004e74 <_ntoa_format+0x100>
10004f10:	f1bc 0f20 	cmp.w	ip, #32
10004f14:	d080      	beq.n	10004e18 <_ntoa_format+0xa4>
10004f16:	2278      	movs	r2, #120	@ 0x78
10004f18:	f804 200c 	strb.w	r2, [r4, ip]
10004f1c:	f10c 0c01 	add.w	ip, ip, #1
10004f20:	e76f      	b.n	10004e02 <_ntoa_format+0x8e>
10004f22:	2258      	movs	r2, #88	@ 0x58
10004f24:	7022      	strb	r2, [r4, #0]
10004f26:	2230      	movs	r2, #48	@ 0x30
10004f28:	f04f 0c02 	mov.w	ip, #2
10004f2c:	7062      	strb	r2, [r4, #1]
10004f2e:	f1bb 0f00 	cmp.w	fp, #0
10004f32:	d097      	beq.n	10004e64 <_ntoa_format+0xf0>
10004f34:	e79e      	b.n	10004e74 <_ntoa_format+0x100>
10004f36:	2262      	movs	r2, #98	@ 0x62
10004f38:	7022      	strb	r2, [r4, #0]
10004f3a:	2230      	movs	r2, #48	@ 0x30
10004f3c:	46d4      	mov	ip, sl
10004f3e:	7062      	strb	r2, [r4, #1]
10004f40:	f1bb 0f00 	cmp.w	fp, #0
10004f44:	d08e      	beq.n	10004e64 <_ntoa_format+0xf0>
10004f46:	e795      	b.n	10004e74 <_ntoa_format+0x100>
10004f48:	068d      	lsls	r5, r1, #26
10004f4a:	f1ac 0002 	sub.w	r0, ip, #2
10004f4e:	d504      	bpl.n	10004f5a <_ntoa_format+0x1e6>
10004f50:	f04f 0e58 	mov.w	lr, #88	@ 0x58
10004f54:	f804 e000 	strb.w	lr, [r4, r0]
10004f58:	e759      	b.n	10004e0e <_ntoa_format+0x9a>
10004f5a:	f04f 0e78 	mov.w	lr, #120	@ 0x78
10004f5e:	f804 e000 	strb.w	lr, [r4, r0]
10004f62:	e754      	b.n	10004e0e <_ntoa_format+0x9a>

10004f64 <_out_char>:
10004f64:	b900      	cbnz	r0, 10004f68 <_out_char+0x4>
10004f66:	4770      	bx	lr
10004f68:	f001 bb1e 	b.w	100065a8 <__wrap_putchar>

10004f6c <_out_fct>:
10004f6c:	b110      	cbz	r0, 10004f74 <_out_fct+0x8>
10004f6e:	e9d1 3100 	ldrd	r3, r1, [r1]
10004f72:	4718      	bx	r3
10004f74:	4770      	bx	lr
10004f76:	bf00      	nop

10004f78 <_ftoa>:
10004f78:	e92d 4ff0 	stmdb	sp!, {r4, r5, r6, r7, r8, r9, sl, fp, lr}
10004f7c:	b097      	sub	sp, #92	@ 0x5c
10004f7e:	ed9d 7b20 	vldr	d7, [sp, #128]	@ 0x80
10004f82:	e9dd 5b22 	ldrd	r5, fp, [sp, #136]	@ 0x88
10004f86:	4680      	mov	r8, r0
10004f88:	4689      	mov	r9, r1
10004f8a:	ec51 0b17 	vmov	r0, r1, d7
10004f8e:	469a      	mov	sl, r3
10004f90:	9b24      	ldr	r3, [sp, #144]	@ 0x90
10004f92:	920c      	str	r2, [sp, #48]	@ 0x30
10004f94:	9307      	str	r3, [sp, #28]
10004f96:	4602      	mov	r2, r0
10004f98:	460b      	mov	r3, r1
10004f9a:	ed8d 7b04 	vstr	d7, [sp, #16]
10004f9e:	f7ff fbb1 	bl	10004704 <__wrap___aeabi_dcmpun>
10004fa2:	2800      	cmp	r0, #0
10004fa4:	f040 81e6 	bne.w	10005374 <_ftoa+0x3fc>
10004fa8:	e9dd 0104 	ldrd	r0, r1, [sp, #16]
10004fac:	f04f 32ff 	mov.w	r2, #4294967295	@ 0xffffffff
10004fb0:	f46f 1380 	mvn.w	r3, #1048576	@ 0x100000
10004fb4:	f7ff fbb8 	bl	10004728 <__wrap___aeabi_dcmplt>
10004fb8:	2800      	cmp	r0, #0
10004fba:	f040 810f 	bne.w	100051dc <_ftoa+0x264>
10004fbe:	e9dd 0104 	ldrd	r0, r1, [sp, #16]
10004fc2:	f04f 32ff 	mov.w	r2, #4294967295	@ 0xffffffff
10004fc6:	4bb4      	ldr	r3, [pc, #720]	@ (10005298 <_ftoa+0x320>)
10004fc8:	f7ff fbea 	bl	100047a0 <__wrap___aeabi_dcmpgt>
10004fcc:	2800      	cmp	r0, #0
10004fce:	f040 80e3 	bne.w	10005198 <_ftoa+0x220>
10004fd2:	e9dd 6704 	ldrd	r6, r7, [sp, #16]
10004fd6:	a3ac      	add	r3, pc, #688	@ (adr r3, 10005288 <_ftoa+0x310>)
10004fd8:	e9d3 2300 	ldrd	r2, r3, [r3]
10004fdc:	4630      	mov	r0, r6
10004fde:	4639      	mov	r1, r7
10004fe0:	f7ff fbde 	bl	100047a0 <__wrap___aeabi_dcmpgt>
10004fe4:	2800      	cmp	r0, #0
10004fe6:	f040 80c6 	bne.w	10005176 <_ftoa+0x1fe>
10004fea:	a3a9      	add	r3, pc, #676	@ (adr r3, 10005290 <_ftoa+0x318>)
10004fec:	e9d3 2300 	ldrd	r2, r3, [r3]
10004ff0:	4630      	mov	r0, r6
10004ff2:	4639      	mov	r1, r7
10004ff4:	f7ff fb98 	bl	10004728 <__wrap___aeabi_dcmplt>
10004ff8:	2800      	cmp	r0, #0
10004ffa:	f040 80bc 	bne.w	10005176 <_ftoa+0x1fe>
10004ffe:	4630      	mov	r0, r6
10005000:	4639      	mov	r1, r7
10005002:	2200      	movs	r2, #0
10005004:	2300      	movs	r3, #0
10005006:	f7ff fb8f 	bl	10004728 <__wrap___aeabi_dcmplt>
1000500a:	2800      	cmp	r0, #0
1000500c:	f040 80db 	bne.w	100051c6 <_ftoa+0x24e>
10005010:	900d      	str	r0, [sp, #52]	@ 0x34
10005012:	9b07      	ldr	r3, [sp, #28]
10005014:	2130      	movs	r1, #48	@ 0x30
10005016:	f413 6f80 	tst.w	r3, #1024	@ 0x400
1000501a:	bf08      	it	eq
1000501c:	2506      	moveq	r5, #6
1000501e:	aa0e      	add	r2, sp, #56	@ 0x38
10005020:	462b      	mov	r3, r5
10005022:	f1a5 0620 	sub.w	r6, r5, #32
10005026:	e005      	b.n	10005034 <_ftoa+0xbc>
10005028:	3b01      	subs	r3, #1
1000502a:	429e      	cmp	r6, r3
1000502c:	f802 1b01 	strb.w	r1, [r2], #1
10005030:	f000 8168 	beq.w	10005304 <_ftoa+0x38c>
10005034:	2b09      	cmp	r3, #9
10005036:	d8f7      	bhi.n	10005028 <_ftoa+0xb0>
10005038:	461e      	mov	r6, r3
1000503a:	1aed      	subs	r5, r5, r3
1000503c:	e9dd 0104 	ldrd	r0, r1, [sp, #16]
10005040:	f7ff fb3c 	bl	100046bc <__wrap___aeabi_d2iz>
10005044:	4b95      	ldr	r3, [pc, #596]	@ (1000529c <_ftoa+0x324>)
10005046:	4604      	mov	r4, r0
10005048:	eb03 03c6 	add.w	r3, r3, r6, lsl #3
1000504c:	ed93 7b00 	vldr	d7, [r3]
10005050:	ed8d 7b08 	vstr	d7, [sp, #32]
10005054:	f7ff fb0e 	bl	10004674 <__wrap___aeabi_i2d>
10005058:	4602      	mov	r2, r0
1000505a:	460b      	mov	r3, r1
1000505c:	e9dd 0104 	ldrd	r0, r1, [sp, #16]
10005060:	f7ff fa72 	bl	10004548 <__wrap___aeabi_dsub>
10005064:	e9dd 2308 	ldrd	r2, r3, [sp, #32]
10005068:	f7ff fa82 	bl	10004570 <__wrap___aeabi_dmul>
1000506c:	e9cd 010a 	strd	r0, r1, [sp, #40]	@ 0x28
10005070:	f7ff fb36 	bl	100046e0 <__wrap___aeabi_d2uiz>
10005074:	4607      	mov	r7, r0
10005076:	f7ff fb0f 	bl	10004698 <__wrap___aeabi_ui2d>
1000507a:	4602      	mov	r2, r0
1000507c:	460b      	mov	r3, r1
1000507e:	e9dd 010a 	ldrd	r0, r1, [sp, #40]	@ 0x28
10005082:	f7ff fa61 	bl	10004548 <__wrap___aeabi_dsub>
10005086:	2200      	movs	r2, #0
10005088:	4b85      	ldr	r3, [pc, #532]	@ (100052a0 <_ftoa+0x328>)
1000508a:	e9cd 010a 	strd	r0, r1, [sp, #40]	@ 0x28
1000508e:	f7ff fb87 	bl	100047a0 <__wrap___aeabi_dcmpgt>
10005092:	2800      	cmp	r0, #0
10005094:	f000 80c9 	beq.w	1000522a <_ftoa+0x2b2>
10005098:	3701      	adds	r7, #1
1000509a:	4638      	mov	r0, r7
1000509c:	f7ff fafc 	bl	10004698 <__wrap___aeabi_ui2d>
100050a0:	460b      	mov	r3, r1
100050a2:	4602      	mov	r2, r0
100050a4:	e9dd 0108 	ldrd	r0, r1, [sp, #32]
100050a8:	f7ff fb52 	bl	10004750 <__wrap___aeabi_dcmple>
100050ac:	1c63      	adds	r3, r4, #1
100050ae:	2800      	cmp	r0, #0
100050b0:	bf1c      	itt	ne
100050b2:	2700      	movne	r7, #0
100050b4:	461c      	movne	r4, r3
100050b6:	2e00      	cmp	r6, #0
100050b8:	f000 80c7 	beq.w	1000524a <_ftoa+0x2d2>
100050bc:	f10d 0c37 	add.w	ip, sp, #55	@ 0x37
100050c0:	4878      	ldr	r0, [pc, #480]	@ (100052a4 <_ftoa+0x32c>)
100050c2:	eb0c 0105 	add.w	r1, ip, r5
100050c6:	e00f      	b.n	100050e8 <_ftoa+0x170>
100050c8:	fba0 3207 	umull	r3, r2, r0, r7
100050cc:	08d2      	lsrs	r2, r2, #3
100050ce:	eb02 0382 	add.w	r3, r2, r2, lsl #2
100050d2:	eba7 0343 	sub.w	r3, r7, r3, lsl #1
100050d6:	3330      	adds	r3, #48	@ 0x30
100050d8:	2f09      	cmp	r7, #9
100050da:	f105 0501 	add.w	r5, r5, #1
100050de:	f801 3f01 	strb.w	r3, [r1, #1]!
100050e2:	f240 80f9 	bls.w	100052d8 <_ftoa+0x360>
100050e6:	4617      	mov	r7, r2
100050e8:	2d20      	cmp	r5, #32
100050ea:	f106 36ff 	add.w	r6, r6, #4294967295	@ 0xffffffff
100050ee:	d1eb      	bne.n	100050c8 <_ftoa+0x150>
100050f0:	486c      	ldr	r0, [pc, #432]	@ (100052a4 <_ftoa+0x32c>)
100050f2:	eb0c 0105 	add.w	r1, ip, r5
100050f6:	e00f      	b.n	10005118 <_ftoa+0x1a0>
100050f8:	fba0 2304 	umull	r2, r3, r0, r4
100050fc:	08db      	lsrs	r3, r3, #3
100050fe:	eb03 0283 	add.w	r2, r3, r3, lsl #2
10005102:	eba4 0442 	sub.w	r4, r4, r2, lsl #1
10005106:	f104 0230 	add.w	r2, r4, #48	@ 0x30
1000510a:	3501      	adds	r5, #1
1000510c:	461c      	mov	r4, r3
1000510e:	f801 2f01 	strb.w	r2, [r1, #1]!
10005112:	2b00      	cmp	r3, #0
10005114:	f000 80ce 	beq.w	100052b4 <_ftoa+0x33c>
10005118:	2d20      	cmp	r5, #32
1000511a:	d1ed      	bne.n	100050f8 <_ftoa+0x180>
1000511c:	9b07      	ldr	r3, [sp, #28]
1000511e:	f003 0303 	and.w	r3, r3, #3
10005122:	2b01      	cmp	r3, #1
10005124:	d116      	bne.n	10005154 <_ftoa+0x1dc>
10005126:	f1bb 0f00 	cmp.w	fp, #0
1000512a:	d013      	beq.n	10005154 <_ftoa+0x1dc>
1000512c:	9b0d      	ldr	r3, [sp, #52]	@ 0x34
1000512e:	2b00      	cmp	r3, #0
10005130:	f000 80ea 	beq.w	10005308 <_ftoa+0x390>
10005134:	f10b 3bff 	add.w	fp, fp, #4294967295	@ 0xffffffff
10005138:	f1bb 0f20 	cmp.w	fp, #32
1000513c:	d90a      	bls.n	10005154 <_ftoa+0x1dc>
1000513e:	2330      	movs	r3, #48	@ 0x30
10005140:	44ac      	add	ip, r5
10005142:	e005      	b.n	10005150 <_ftoa+0x1d8>
10005144:	3501      	adds	r5, #1
10005146:	455d      	cmp	r5, fp
10005148:	f80c 3f01 	strb.w	r3, [ip, #1]!
1000514c:	f080 80b8 	bcs.w	100052c0 <_ftoa+0x348>
10005150:	2d20      	cmp	r5, #32
10005152:	d1f7      	bne.n	10005144 <_ftoa+0x1cc>
10005154:	9b07      	ldr	r3, [sp, #28]
10005156:	ac0e      	add	r4, sp, #56	@ 0x38
10005158:	e9cd b302 	strd	fp, r3, [sp, #8]
1000515c:	9400      	str	r4, [sp, #0]
1000515e:	4653      	mov	r3, sl
10005160:	4649      	mov	r1, r9
10005162:	4640      	mov	r0, r8
10005164:	9a0c      	ldr	r2, [sp, #48]	@ 0x30
10005166:	9501      	str	r5, [sp, #4]
10005168:	f7ff fdae 	bl	10004cc8 <_out_rev>
1000516c:	4604      	mov	r4, r0
1000516e:	4620      	mov	r0, r4
10005170:	b017      	add	sp, #92	@ 0x5c
10005172:	e8bd 8ff0 	ldmia.w	sp!, {r4, r5, r6, r7, r8, r9, sl, fp, pc}
10005176:	9b07      	ldr	r3, [sp, #28]
10005178:	ed9d 7b04 	vldr	d7, [sp, #16]
1000517c:	e9cd b323 	strd	fp, r3, [sp, #140]	@ 0x8c
10005180:	4649      	mov	r1, r9
10005182:	4653      	mov	r3, sl
10005184:	4640      	mov	r0, r8
10005186:	9a0c      	ldr	r2, [sp, #48]	@ 0x30
10005188:	ed8d 7b20 	vstr	d7, [sp, #128]	@ 0x80
1000518c:	9522      	str	r5, [sp, #136]	@ 0x88
1000518e:	b017      	add	sp, #92	@ 0x5c
10005190:	e8bd 4ff0 	ldmia.w	sp!, {r4, r5, r6, r7, r8, r9, sl, fp, lr}
10005194:	f000 b940 	b.w	10005418 <_etoa>
10005198:	9b07      	ldr	r3, [sp, #28]
1000519a:	4649      	mov	r1, r9
1000519c:	0758      	lsls	r0, r3, #29
1000519e:	bf4c      	ite	mi
100051a0:	2304      	movmi	r3, #4
100051a2:	2303      	movpl	r3, #3
100051a4:	4640      	mov	r0, r8
100051a6:	9321      	str	r3, [sp, #132]	@ 0x84
100051a8:	4653      	mov	r3, sl
100051aa:	9a07      	ldr	r2, [sp, #28]
100051ac:	bf48      	it	mi
100051ae:	4c3e      	ldrmi	r4, [pc, #248]	@ (100052a8 <_ftoa+0x330>)
100051b0:	e9cd b222 	strd	fp, r2, [sp, #136]	@ 0x88
100051b4:	bf58      	it	pl
100051b6:	4c3d      	ldrpl	r4, [pc, #244]	@ (100052ac <_ftoa+0x334>)
100051b8:	9a0c      	ldr	r2, [sp, #48]	@ 0x30
100051ba:	9420      	str	r4, [sp, #128]	@ 0x80
100051bc:	b017      	add	sp, #92	@ 0x5c
100051be:	e8bd 4ff0 	ldmia.w	sp!, {r4, r5, r6, r7, r8, r9, sl, fp, lr}
100051c2:	f7ff bd81 	b.w	10004cc8 <_out_rev>
100051c6:	463b      	mov	r3, r7
100051c8:	4632      	mov	r2, r6
100051ca:	2000      	movs	r0, #0
100051cc:	2100      	movs	r1, #0
100051ce:	f7ff f9bb 	bl	10004548 <__wrap___aeabi_dsub>
100051d2:	2301      	movs	r3, #1
100051d4:	e9cd 0104 	strd	r0, r1, [sp, #16]
100051d8:	930d      	str	r3, [sp, #52]	@ 0x34
100051da:	e71a      	b.n	10005012 <_ftoa+0x9a>
100051dc:	9b07      	ldr	r3, [sp, #28]
100051de:	f003 0202 	and.w	r2, r3, #2
100051e2:	079c      	lsls	r4, r3, #30
100051e4:	9204      	str	r2, [sp, #16]
100051e6:	f000 80b3 	beq.w	10005350 <_ftoa+0x3d8>
100051ea:	9f0c      	ldr	r7, [sp, #48]	@ 0x30
100051ec:	463d      	mov	r5, r7
100051ee:	4e30      	ldr	r6, [pc, #192]	@ (100052b0 <_ftoa+0x338>)
100051f0:	1d34      	adds	r4, r6, #4
100051f2:	f814 0d01 	ldrb.w	r0, [r4, #-1]!
100051f6:	462a      	mov	r2, r5
100051f8:	4653      	mov	r3, sl
100051fa:	4649      	mov	r1, r9
100051fc:	47c0      	blx	r8
100051fe:	42b4      	cmp	r4, r6
10005200:	f105 0501 	add.w	r5, r5, #1
10005204:	d1f5      	bne.n	100051f2 <_ftoa+0x27a>
10005206:	9b04      	ldr	r3, [sp, #16]
10005208:	1d3c      	adds	r4, r7, #4
1000520a:	2b00      	cmp	r3, #0
1000520c:	d0af      	beq.n	1000516e <_ftoa+0x1f6>
1000520e:	9d0c      	ldr	r5, [sp, #48]	@ 0x30
10005210:	1b63      	subs	r3, r4, r5
10005212:	459b      	cmp	fp, r3
10005214:	d9ab      	bls.n	1000516e <_ftoa+0x1f6>
10005216:	4622      	mov	r2, r4
10005218:	4653      	mov	r3, sl
1000521a:	4649      	mov	r1, r9
1000521c:	2020      	movs	r0, #32
1000521e:	3401      	adds	r4, #1
10005220:	47c0      	blx	r8
10005222:	1b63      	subs	r3, r4, r5
10005224:	459b      	cmp	fp, r3
10005226:	d8f6      	bhi.n	10005216 <_ftoa+0x29e>
10005228:	e7a1      	b.n	1000516e <_ftoa+0x1f6>
1000522a:	2200      	movs	r2, #0
1000522c:	e9dd 010a 	ldrd	r0, r1, [sp, #40]	@ 0x28
10005230:	4b1b      	ldr	r3, [pc, #108]	@ (100052a0 <_ftoa+0x328>)
10005232:	f7ff fa79 	bl	10004728 <__wrap___aeabi_dcmplt>
10005236:	2800      	cmp	r0, #0
10005238:	f47f af3d 	bne.w	100050b6 <_ftoa+0x13e>
1000523c:	2f00      	cmp	r7, #0
1000523e:	f040 8083 	bne.w	10005348 <_ftoa+0x3d0>
10005242:	3701      	adds	r7, #1
10005244:	2e00      	cmp	r6, #0
10005246:	f47f af39 	bne.w	100050bc <_ftoa+0x144>
1000524a:	4620      	mov	r0, r4
1000524c:	f7ff fa12 	bl	10004674 <__wrap___aeabi_i2d>
10005250:	4602      	mov	r2, r0
10005252:	460b      	mov	r3, r1
10005254:	e9dd 0104 	ldrd	r0, r1, [sp, #16]
10005258:	f7ff f976 	bl	10004548 <__wrap___aeabi_dsub>
1000525c:	2200      	movs	r2, #0
1000525e:	4b10      	ldr	r3, [pc, #64]	@ (100052a0 <_ftoa+0x328>)
10005260:	4606      	mov	r6, r0
10005262:	460f      	mov	r7, r1
10005264:	f7ff fa60 	bl	10004728 <__wrap___aeabi_dcmplt>
10005268:	b948      	cbnz	r0, 1000527e <_ftoa+0x306>
1000526a:	4630      	mov	r0, r6
1000526c:	4639      	mov	r1, r7
1000526e:	2200      	movs	r2, #0
10005270:	4b0b      	ldr	r3, [pc, #44]	@ (100052a0 <_ftoa+0x328>)
10005272:	f7ff fa95 	bl	100047a0 <__wrap___aeabi_dcmpgt>
10005276:	b910      	cbnz	r0, 1000527e <_ftoa+0x306>
10005278:	3401      	adds	r4, #1
1000527a:	f024 0401 	bic.w	r4, r4, #1
1000527e:	f10d 0c37 	add.w	ip, sp, #55	@ 0x37
10005282:	e735      	b.n	100050f0 <_ftoa+0x178>
10005284:	f3af 8000 	nop.w
10005288:	00000000 	.word	0x00000000
1000528c:	41cdcd65 	.word	0x41cdcd65
10005290:	00000000 	.word	0x00000000
10005294:	c1cdcd65 	.word	0xc1cdcd65
10005298:	7fefffff 	.word	0x7fefffff
1000529c:	10009b30 	.word	0x10009b30
100052a0:	3fe00000 	.word	0x3fe00000
100052a4:	cccccccd 	.word	0xcccccccd
100052a8:	100099d8 	.word	0x100099d8
100052ac:	100099e0 	.word	0x100099e0
100052b0:	100099e8 	.word	0x100099e8
100052b4:	9b07      	ldr	r3, [sp, #28]
100052b6:	f003 0303 	and.w	r3, r3, #3
100052ba:	2b01      	cmp	r3, #1
100052bc:	f000 8097 	beq.w	100053ee <_ftoa+0x476>
100052c0:	2d20      	cmp	r5, #32
100052c2:	f43f af47 	beq.w	10005154 <_ftoa+0x1dc>
100052c6:	9b0d      	ldr	r3, [sp, #52]	@ 0x34
100052c8:	b353      	cbz	r3, 10005320 <_ftoa+0x3a8>
100052ca:	222d      	movs	r2, #45	@ 0x2d
100052cc:	eb0d 0305 	add.w	r3, sp, r5
100052d0:	f883 2038 	strb.w	r2, [r3, #56]	@ 0x38
100052d4:	3501      	adds	r5, #1
100052d6:	e73d      	b.n	10005154 <_ftoa+0x1dc>
100052d8:	2d20      	cmp	r5, #32
100052da:	f43f af09 	beq.w	100050f0 <_ftoa+0x178>
100052de:	2230      	movs	r2, #48	@ 0x30
100052e0:	442e      	add	r6, r5
100052e2:	eb0c 0305 	add.w	r3, ip, r5
100052e6:	e005      	b.n	100052f4 <_ftoa+0x37c>
100052e8:	3501      	adds	r5, #1
100052ea:	2d20      	cmp	r5, #32
100052ec:	f803 2f01 	strb.w	r2, [r3, #1]!
100052f0:	f43f aefe 	beq.w	100050f0 <_ftoa+0x178>
100052f4:	42ae      	cmp	r6, r5
100052f6:	d1f7      	bne.n	100052e8 <_ftoa+0x370>
100052f8:	232e      	movs	r3, #46	@ 0x2e
100052fa:	446e      	add	r6, sp
100052fc:	3501      	adds	r5, #1
100052fe:	f886 3038 	strb.w	r3, [r6, #56]	@ 0x38
10005302:	e6f5      	b.n	100050f0 <_ftoa+0x178>
10005304:	2520      	movs	r5, #32
10005306:	e699      	b.n	1000503c <_ftoa+0xc4>
10005308:	9b07      	ldr	r3, [sp, #28]
1000530a:	f013 0f0c 	tst.w	r3, #12
1000530e:	d059      	beq.n	100053c4 <_ftoa+0x44c>
10005310:	f10b 3bff 	add.w	fp, fp, #4294967295	@ 0xffffffff
10005314:	45ab      	cmp	fp, r5
10005316:	f63f af12 	bhi.w	1000513e <_ftoa+0x1c6>
1000531a:	2d20      	cmp	r5, #32
1000531c:	f43f af1a 	beq.w	10005154 <_ftoa+0x1dc>
10005320:	9b07      	ldr	r3, [sp, #28]
10005322:	075a      	lsls	r2, r3, #29
10005324:	d506      	bpl.n	10005334 <_ftoa+0x3bc>
10005326:	222b      	movs	r2, #43	@ 0x2b
10005328:	eb0d 0305 	add.w	r3, sp, r5
1000532c:	f883 2038 	strb.w	r2, [r3, #56]	@ 0x38
10005330:	3501      	adds	r5, #1
10005332:	e70f      	b.n	10005154 <_ftoa+0x1dc>
10005334:	071b      	lsls	r3, r3, #28
10005336:	f57f af0d 	bpl.w	10005154 <_ftoa+0x1dc>
1000533a:	2220      	movs	r2, #32
1000533c:	eb0d 0305 	add.w	r3, sp, r5
10005340:	f883 2038 	strb.w	r2, [r3, #56]	@ 0x38
10005344:	3501      	adds	r5, #1
10005346:	e705      	b.n	10005154 <_ftoa+0x1dc>
10005348:	07f9      	lsls	r1, r7, #31
1000534a:	f57f aeb4 	bpl.w	100050b6 <_ftoa+0x13e>
1000534e:	e778      	b.n	10005242 <_ftoa+0x2ca>
10005350:	f1bb 0f04 	cmp.w	fp, #4
10005354:	f67f af49 	bls.w	100051ea <_ftoa+0x272>
10005358:	9b0c      	ldr	r3, [sp, #48]	@ 0x30
1000535a:	461d      	mov	r5, r3
1000535c:	3b04      	subs	r3, #4
1000535e:	eb03 070b 	add.w	r7, r3, fp
10005362:	462a      	mov	r2, r5
10005364:	4653      	mov	r3, sl
10005366:	4649      	mov	r1, r9
10005368:	2020      	movs	r0, #32
1000536a:	3501      	adds	r5, #1
1000536c:	47c0      	blx	r8
1000536e:	42bd      	cmp	r5, r7
10005370:	d1f7      	bne.n	10005362 <_ftoa+0x3ea>
10005372:	e73b      	b.n	100051ec <_ftoa+0x274>
10005374:	9b07      	ldr	r3, [sp, #28]
10005376:	f003 0202 	and.w	r2, r3, #2
1000537a:	079d      	lsls	r5, r3, #30
1000537c:	9204      	str	r2, [sp, #16]
1000537e:	d025      	beq.n	100053cc <_ftoa+0x454>
10005380:	9f0c      	ldr	r7, [sp, #48]	@ 0x30
10005382:	463d      	mov	r5, r7
10005384:	4e22      	ldr	r6, [pc, #136]	@ (10005410 <_ftoa+0x498>)
10005386:	1cf4      	adds	r4, r6, #3
10005388:	f814 0d01 	ldrb.w	r0, [r4, #-1]!
1000538c:	462a      	mov	r2, r5
1000538e:	4653      	mov	r3, sl
10005390:	4649      	mov	r1, r9
10005392:	47c0      	blx	r8
10005394:	42b4      	cmp	r4, r6
10005396:	f105 0501 	add.w	r5, r5, #1
1000539a:	d1f5      	bne.n	10005388 <_ftoa+0x410>
1000539c:	9b04      	ldr	r3, [sp, #16]
1000539e:	1cfc      	adds	r4, r7, #3
100053a0:	2b00      	cmp	r3, #0
100053a2:	f43f aee4 	beq.w	1000516e <_ftoa+0x1f6>
100053a6:	9d0c      	ldr	r5, [sp, #48]	@ 0x30
100053a8:	1b63      	subs	r3, r4, r5
100053aa:	455b      	cmp	r3, fp
100053ac:	f4bf aedf 	bcs.w	1000516e <_ftoa+0x1f6>
100053b0:	4622      	mov	r2, r4
100053b2:	4653      	mov	r3, sl
100053b4:	4649      	mov	r1, r9
100053b6:	2020      	movs	r0, #32
100053b8:	3401      	adds	r4, #1
100053ba:	47c0      	blx	r8
100053bc:	1b63      	subs	r3, r4, r5
100053be:	459b      	cmp	fp, r3
100053c0:	d8f6      	bhi.n	100053b0 <_ftoa+0x438>
100053c2:	e6d4      	b.n	1000516e <_ftoa+0x1f6>
100053c4:	45ab      	cmp	fp, r5
100053c6:	f63f aeba 	bhi.w	1000513e <_ftoa+0x1c6>
100053ca:	e6c3      	b.n	10005154 <_ftoa+0x1dc>
100053cc:	f1bb 0f03 	cmp.w	fp, #3
100053d0:	d9d6      	bls.n	10005380 <_ftoa+0x408>
100053d2:	9b0c      	ldr	r3, [sp, #48]	@ 0x30
100053d4:	461d      	mov	r5, r3
100053d6:	3b03      	subs	r3, #3
100053d8:	eb03 070b 	add.w	r7, r3, fp
100053dc:	462a      	mov	r2, r5
100053de:	4653      	mov	r3, sl
100053e0:	4649      	mov	r1, r9
100053e2:	2020      	movs	r0, #32
100053e4:	3501      	adds	r5, #1
100053e6:	47c0      	blx	r8
100053e8:	42bd      	cmp	r5, r7
100053ea:	d1f7      	bne.n	100053dc <_ftoa+0x464>
100053ec:	e7c9      	b.n	10005382 <_ftoa+0x40a>
100053ee:	f1bb 0f00 	cmp.w	fp, #0
100053f2:	f43f af65 	beq.w	100052c0 <_ftoa+0x348>
100053f6:	9b0d      	ldr	r3, [sp, #52]	@ 0x34
100053f8:	2b00      	cmp	r3, #0
100053fa:	d085      	beq.n	10005308 <_ftoa+0x390>
100053fc:	f10b 3bff 	add.w	fp, fp, #4294967295	@ 0xffffffff
10005400:	455d      	cmp	r5, fp
10005402:	f4ff ae9c 	bcc.w	1000513e <_ftoa+0x1c6>
10005406:	2d20      	cmp	r5, #32
10005408:	f47f af5f 	bne.w	100052ca <_ftoa+0x352>
1000540c:	e6a2      	b.n	10005154 <_ftoa+0x1dc>
1000540e:	bf00      	nop
10005410:	100099e4 	.word	0x100099e4
10005414:	00000000 	.word	0x00000000

10005418 <_etoa>:
10005418:	e92d 4ff0 	stmdb	sp!, {r4, r5, r6, r7, r8, r9, sl, fp, lr}
1000541c:	b09f      	sub	sp, #124	@ 0x7c
1000541e:	461e      	mov	r6, r3
10005420:	e9dd ab28 	ldrd	sl, fp, [sp, #160]	@ 0xa0
10005424:	e9dd 982b 	ldrd	r9, r8, [sp, #172]	@ 0xac
10005428:	9b2a      	ldr	r3, [sp, #168]	@ 0xa8
1000542a:	4607      	mov	r7, r0
1000542c:	4614      	mov	r4, r2
1000542e:	910a      	str	r1, [sp, #40]	@ 0x28
10005430:	930b      	str	r3, [sp, #44]	@ 0x2c
10005432:	4652      	mov	r2, sl
10005434:	465b      	mov	r3, fp
10005436:	4650      	mov	r0, sl
10005438:	4659      	mov	r1, fp
1000543a:	f7ff f963 	bl	10004704 <__wrap___aeabi_dcmpun>
1000543e:	2800      	cmp	r0, #0
10005440:	f040 80c6 	bne.w	100055d0 <_etoa+0x1b8>
10005444:	4650      	mov	r0, sl
10005446:	4659      	mov	r1, fp
10005448:	f04f 32ff 	mov.w	r2, #4294967295	@ 0xffffffff
1000544c:	4b7b      	ldr	r3, [pc, #492]	@ (1000563c <_etoa+0x224>)
1000544e:	f7ff f9a7 	bl	100047a0 <__wrap___aeabi_dcmpgt>
10005452:	2800      	cmp	r0, #0
10005454:	f040 80bc 	bne.w	100055d0 <_etoa+0x1b8>
10005458:	4650      	mov	r0, sl
1000545a:	4659      	mov	r1, fp
1000545c:	f04f 32ff 	mov.w	r2, #4294967295	@ 0xffffffff
10005460:	f46f 1380 	mvn.w	r3, #1048576	@ 0x100000
10005464:	f7ff f960 	bl	10004728 <__wrap___aeabi_dcmplt>
10005468:	2800      	cmp	r0, #0
1000546a:	f040 80b1 	bne.w	100055d0 <_etoa+0x1b8>
1000546e:	4650      	mov	r0, sl
10005470:	4659      	mov	r1, fp
10005472:	2200      	movs	r2, #0
10005474:	2300      	movs	r3, #0
10005476:	f7ff f957 	bl	10004728 <__wrap___aeabi_dcmplt>
1000547a:	2800      	cmp	r0, #0
1000547c:	f040 81dd 	bne.w	1000583a <_etoa+0x422>
10005480:	e9cd ab08 	strd	sl, fp, [sp, #32]
10005484:	e9dd 1208 	ldrd	r1, r2, [sp, #32]
10005488:	f418 6080 	ands.w	r0, r8, #1024	@ 0x400
1000548c:	460b      	mov	r3, r1
1000548e:	460d      	mov	r5, r1
10005490:	f408 6100 	and.w	r1, r8, #2048	@ 0x800
10005494:	920c      	str	r2, [sp, #48]	@ 0x30
10005496:	9114      	str	r1, [sp, #80]	@ 0x50
10005498:	9015      	str	r0, [sp, #84]	@ 0x54
1000549a:	f040 80a8 	bne.w	100055ee <_etoa+0x1d6>
1000549e:	4313      	orrs	r3, r2
100054a0:	f040 80d0 	bne.w	10005644 <_etoa+0x22c>
100054a4:	2900      	cmp	r1, #0
100054a6:	f040 81ef 	bne.w	10005888 <_etoa+0x470>
100054aa:	2306      	movs	r3, #6
100054ac:	930b      	str	r3, [sp, #44]	@ 0x2c
100054ae:	f018 0302 	ands.w	r3, r8, #2
100054b2:	9310      	str	r3, [sp, #64]	@ 0x40
100054b4:	f000 81dd 	beq.w	10005872 <_etoa+0x45a>
100054b8:	2202      	movs	r2, #2
100054ba:	2300      	movs	r3, #0
100054bc:	9210      	str	r2, [sp, #64]	@ 0x40
100054be:	2204      	movs	r2, #4
100054c0:	9314      	str	r3, [sp, #80]	@ 0x50
100054c2:	9212      	str	r2, [sp, #72]	@ 0x48
100054c4:	930e      	str	r3, [sp, #56]	@ 0x38
100054c6:	4650      	mov	r0, sl
100054c8:	4659      	mov	r1, fp
100054ca:	2200      	movs	r2, #0
100054cc:	2300      	movs	r3, #0
100054ce:	f7ff f92b 	bl	10004728 <__wrap___aeabi_dcmplt>
100054d2:	2800      	cmp	r0, #0
100054d4:	f040 822c 	bne.w	10005930 <_etoa+0x518>
100054d8:	ed9d 7b08 	vldr	d7, [sp, #32]
100054dc:	9b14      	ldr	r3, [sp, #80]	@ 0x50
100054de:	4622      	mov	r2, r4
100054e0:	9303      	str	r3, [sp, #12]
100054e2:	9b0b      	ldr	r3, [sp, #44]	@ 0x2c
100054e4:	ed8d 7b00 	vstr	d7, [sp]
100054e8:	9302      	str	r3, [sp, #8]
100054ea:	f428 6300 	bic.w	r3, r8, #2048	@ 0x800
100054ee:	9304      	str	r3, [sp, #16]
100054f0:	4638      	mov	r0, r7
100054f2:	4633      	mov	r3, r6
100054f4:	990a      	ldr	r1, [sp, #40]	@ 0x28
100054f6:	f7ff fd3f 	bl	10004f78 <_ftoa>
100054fa:	4602      	mov	r2, r0
100054fc:	f018 0f20 	tst.w	r8, #32
10005500:	4633      	mov	r3, r6
10005502:	bf0c      	ite	eq
10005504:	2065      	moveq	r0, #101	@ 0x65
10005506:	2045      	movne	r0, #69	@ 0x45
10005508:	990a      	ldr	r1, [sp, #40]	@ 0x28
1000550a:	f102 0801 	add.w	r8, r2, #1
1000550e:	47b8      	blx	r7
10005510:	9b12      	ldr	r3, [sp, #72]	@ 0x48
10005512:	f10d 0a58 	add.w	sl, sp, #88	@ 0x58
10005516:	f103 3bff 	add.w	fp, r3, #4294967295	@ 0xffffffff
1000551a:	9b0e      	ldr	r3, [sp, #56]	@ 0x38
1000551c:	2200      	movs	r2, #0
1000551e:	ea83 7ce3 	eor.w	ip, r3, r3, asr #31
10005522:	4650      	mov	r0, sl
10005524:	f8df e118 	ldr.w	lr, [pc, #280]	@ 10005640 <_etoa+0x228>
10005528:	9d0a      	ldr	r5, [sp, #40]	@ 0x28
1000552a:	ebac 7ce3 	sub.w	ip, ip, r3, asr #31
1000552e:	0fd9      	lsrs	r1, r3, #31
10005530:	f8cd 8020 	str.w	r8, [sp, #32]
10005534:	e002      	b.n	1000553c <_etoa+0x124>
10005536:	2a20      	cmp	r2, #32
10005538:	46c4      	mov	ip, r8
1000553a:	d010      	beq.n	1000555e <_etoa+0x146>
1000553c:	fbae 380c 	umull	r3, r8, lr, ip
10005540:	ea4f 08d8 	mov.w	r8, r8, lsr #3
10005544:	eb08 0388 	add.w	r3, r8, r8, lsl #2
10005548:	ebac 0343 	sub.w	r3, ip, r3, lsl #1
1000554c:	3001      	adds	r0, #1
1000554e:	3330      	adds	r3, #48	@ 0x30
10005550:	f1bc 0f09 	cmp.w	ip, #9
10005554:	f102 0201 	add.w	r2, r2, #1
10005558:	f800 3c01 	strb.w	r3, [r0, #-1]
1000555c:	d8eb      	bhi.n	10005536 <_etoa+0x11e>
1000555e:	2305      	movs	r3, #5
10005560:	f04f 0c00 	mov.w	ip, #0
10005564:	9306      	str	r3, [sp, #24]
10005566:	230a      	movs	r3, #10
10005568:	f8dd 8020 	ldr.w	r8, [sp, #32]
1000556c:	e9cd 2101 	strd	r2, r1, [sp, #4]
10005570:	e9cd 3c03 	strd	r3, ip, [sp, #12]
10005574:	f8cd a000 	str.w	sl, [sp]
10005578:	4633      	mov	r3, r6
1000557a:	4642      	mov	r2, r8
1000557c:	4629      	mov	r1, r5
1000557e:	4638      	mov	r0, r7
10005580:	f8cd b014 	str.w	fp, [sp, #20]
10005584:	950a      	str	r5, [sp, #40]	@ 0x28
10005586:	f7ff fbf5 	bl	10004d74 <_ntoa_format>
1000558a:	9b10      	ldr	r3, [sp, #64]	@ 0x40
1000558c:	4682      	mov	sl, r0
1000558e:	b1db      	cbz	r3, 100055c8 <_etoa+0x1b0>
10005590:	eba0 0804 	sub.w	r8, r0, r4
10005594:	45c1      	cmp	r9, r8
10005596:	d917      	bls.n	100055c8 <_etoa+0x1b0>
10005598:	9d0a      	ldr	r5, [sp, #40]	@ 0x28
1000559a:	eb04 0208 	add.w	r2, r4, r8
1000559e:	4633      	mov	r3, r6
100055a0:	4629      	mov	r1, r5
100055a2:	2020      	movs	r0, #32
100055a4:	f108 0801 	add.w	r8, r8, #1
100055a8:	47b8      	blx	r7
100055aa:	45c1      	cmp	r9, r8
100055ac:	d8f5      	bhi.n	1000559a <_etoa+0x182>
100055ae:	1e63      	subs	r3, r4, #1
100055b0:	444b      	add	r3, r9
100055b2:	f1c4 0401 	rsb	r4, r4, #1
100055b6:	eba3 030a 	sub.w	r3, r3, sl
100055ba:	4454      	add	r4, sl
100055bc:	45a1      	cmp	r9, r4
100055be:	bf38      	it	cc
100055c0:	2300      	movcc	r3, #0
100055c2:	f10a 0a01 	add.w	sl, sl, #1
100055c6:	449a      	add	sl, r3
100055c8:	4650      	mov	r0, sl
100055ca:	b01f      	add	sp, #124	@ 0x7c
100055cc:	e8bd 8ff0 	ldmia.w	sp!, {r4, r5, r6, r7, r8, r9, sl, fp, pc}
100055d0:	4633      	mov	r3, r6
100055d2:	4638      	mov	r0, r7
100055d4:	4622      	mov	r2, r4
100055d6:	e9cd ab28 	strd	sl, fp, [sp, #160]	@ 0xa0
100055da:	9c0b      	ldr	r4, [sp, #44]	@ 0x2c
100055dc:	e9cd 982b 	strd	r9, r8, [sp, #172]	@ 0xac
100055e0:	990a      	ldr	r1, [sp, #40]	@ 0x28
100055e2:	942a      	str	r4, [sp, #168]	@ 0xa8
100055e4:	b01f      	add	sp, #124	@ 0x7c
100055e6:	e8bd 4ff0 	ldmia.w	sp!, {r4, r5, r6, r7, r8, r9, sl, fp, lr}
100055ea:	f7ff bcc5 	b.w	10004f78 <_ftoa>
100055ee:	ea55 0302 	orrs.w	r3, r5, r2
100055f2:	d129      	bne.n	10005648 <_etoa+0x230>
100055f4:	2900      	cmp	r1, #0
100055f6:	f43f af5a 	beq.w	100054ae <_etoa+0x96>
100055fa:	2300      	movs	r3, #0
100055fc:	930e      	str	r3, [sp, #56]	@ 0x38
100055fe:	9b0b      	ldr	r3, [sp, #44]	@ 0x2c
10005600:	9a0e      	ldr	r2, [sp, #56]	@ 0x38
10005602:	4293      	cmp	r3, r2
10005604:	f300 81ba 	bgt.w	1000597c <_etoa+0x564>
10005608:	2500      	movs	r5, #0
1000560a:	4650      	mov	r0, sl
1000560c:	4659      	mov	r1, fp
1000560e:	2200      	movs	r2, #0
10005610:	2300      	movs	r3, #0
10005612:	f7ff f889 	bl	10004728 <__wrap___aeabi_dcmplt>
10005616:	2800      	cmp	r0, #0
10005618:	f040 8115 	bne.w	10005846 <_etoa+0x42e>
1000561c:	ed9d 7b08 	vldr	d7, [sp, #32]
10005620:	f428 6300 	bic.w	r3, r8, #2048	@ 0x800
10005624:	f443 6380 	orr.w	r3, r3, #1024	@ 0x400
10005628:	932c      	str	r3, [sp, #176]	@ 0xb0
1000562a:	ed8d 7b28 	vstr	d7, [sp, #160]	@ 0xa0
1000562e:	4633      	mov	r3, r6
10005630:	4622      	mov	r2, r4
10005632:	4638      	mov	r0, r7
10005634:	e9cd 592a 	strd	r5, r9, [sp, #168]	@ 0xa8
10005638:	990a      	ldr	r1, [sp, #40]	@ 0x28
1000563a:	e7d3      	b.n	100055e4 <_etoa+0x1cc>
1000563c:	7fefffff 	.word	0x7fefffff
10005640:	cccccccd 	.word	0xcccccccd
10005644:	2306      	movs	r3, #6
10005646:	930b      	str	r3, [sp, #44]	@ 0x2c
10005648:	9b0c      	ldr	r3, [sp, #48]	@ 0x30
1000564a:	f3c3 500a 	ubfx	r0, r3, #20, #11
1000564e:	f2a0 30ff 	subw	r0, r0, #1023	@ 0x3ff
10005652:	f7ff f80f 	bl	10004674 <__wrap___aeabi_i2d>
10005656:	a3b2      	add	r3, pc, #712	@ (adr r3, 10005920 <_etoa+0x508>)
10005658:	e9d3 2300 	ldrd	r2, r3, [r3]
1000565c:	f7fe ff88 	bl	10004570 <__wrap___aeabi_dmul>
10005660:	a3b1      	add	r3, pc, #708	@ (adr r3, 10005928 <_etoa+0x510>)
10005662:	e9d3 2300 	ldrd	r2, r3, [r3]
10005666:	f7fe ff5b 	bl	10004520 <__wrap___aeabi_dadd>
1000566a:	9b0c      	ldr	r3, [sp, #48]	@ 0x30
1000566c:	e9cd 010e 	strd	r0, r1, [sp, #56]	@ 0x38
10005670:	f3c3 0313 	ubfx	r3, r3, #0, #20
10005674:	f043 517f 	orr.w	r1, r3, #1069547520	@ 0x3fc00000
10005678:	4628      	mov	r0, r5
1000567a:	2200      	movs	r2, #0
1000567c:	4ba2      	ldr	r3, [pc, #648]	@ (10005908 <_etoa+0x4f0>)
1000567e:	f441 1140 	orr.w	r1, r1, #3145728	@ 0x300000
10005682:	f7fe ff61 	bl	10004548 <__wrap___aeabi_dsub>
10005686:	a394      	add	r3, pc, #592	@ (adr r3, 100058d8 <_etoa+0x4c0>)
10005688:	e9d3 2300 	ldrd	r2, r3, [r3]
1000568c:	f7fe ff70 	bl	10004570 <__wrap___aeabi_dmul>
10005690:	4602      	mov	r2, r0
10005692:	460b      	mov	r3, r1
10005694:	e9dd 010e 	ldrd	r0, r1, [sp, #56]	@ 0x38
10005698:	f7fe ff42 	bl	10004520 <__wrap___aeabi_dadd>
1000569c:	f7ff f80e 	bl	100046bc <__wrap___aeabi_d2iz>
100056a0:	900e      	str	r0, [sp, #56]	@ 0x38
100056a2:	f7fe ffe7 	bl	10004674 <__wrap___aeabi_i2d>
100056a6:	a38e      	add	r3, pc, #568	@ (adr r3, 100058e0 <_etoa+0x4c8>)
100056a8:	e9d3 2300 	ldrd	r2, r3, [r3]
100056ac:	e9cd 010c 	strd	r0, r1, [sp, #48]	@ 0x30
100056b0:	f7fe ff5e 	bl	10004570 <__wrap___aeabi_dmul>
100056b4:	2200      	movs	r2, #0
100056b6:	4b95      	ldr	r3, [pc, #596]	@ (1000590c <_etoa+0x4f4>)
100056b8:	f7fe ff32 	bl	10004520 <__wrap___aeabi_dadd>
100056bc:	f7fe fffe 	bl	100046bc <__wrap___aeabi_d2iz>
100056c0:	a389      	add	r3, pc, #548	@ (adr r3, 100058e8 <_etoa+0x4d0>)
100056c2:	e9d3 2300 	ldrd	r2, r3, [r3]
100056c6:	4605      	mov	r5, r0
100056c8:	e9dd 010c 	ldrd	r0, r1, [sp, #48]	@ 0x30
100056cc:	f7fe ff50 	bl	10004570 <__wrap___aeabi_dmul>
100056d0:	e9cd 010c 	strd	r0, r1, [sp, #48]	@ 0x30
100056d4:	4628      	mov	r0, r5
100056d6:	f7fe ffcd 	bl	10004674 <__wrap___aeabi_i2d>
100056da:	a385      	add	r3, pc, #532	@ (adr r3, 100058f0 <_etoa+0x4d8>)
100056dc:	e9d3 2300 	ldrd	r2, r3, [r3]
100056e0:	f7fe ff46 	bl	10004570 <__wrap___aeabi_dmul>
100056e4:	4602      	mov	r2, r0
100056e6:	460b      	mov	r3, r1
100056e8:	e9dd 010c 	ldrd	r0, r1, [sp, #48]	@ 0x30
100056ec:	f7fe ff2c 	bl	10004548 <__wrap___aeabi_dsub>
100056f0:	4602      	mov	r2, r0
100056f2:	460b      	mov	r3, r1
100056f4:	e9cd 230c 	strd	r2, r3, [sp, #48]	@ 0x30
100056f8:	f7fe ff3a 	bl	10004570 <__wrap___aeabi_dmul>
100056fc:	e9cd 0110 	strd	r0, r1, [sp, #64]	@ 0x40
10005700:	e9dd 010c 	ldrd	r0, r1, [sp, #48]	@ 0x30
10005704:	4602      	mov	r2, r0
10005706:	460b      	mov	r3, r1
10005708:	f7fe ff0a 	bl	10004520 <__wrap___aeabi_dadd>
1000570c:	2200      	movs	r2, #0
1000570e:	e9cd 0112 	strd	r0, r1, [sp, #72]	@ 0x48
10005712:	e9dd 0110 	ldrd	r0, r1, [sp, #64]	@ 0x40
10005716:	4b7e      	ldr	r3, [pc, #504]	@ (10005910 <_etoa+0x4f8>)
10005718:	f7fe ff50 	bl	100045bc <__wrap___aeabi_ddiv>
1000571c:	2200      	movs	r2, #0
1000571e:	4b7d      	ldr	r3, [pc, #500]	@ (10005914 <_etoa+0x4fc>)
10005720:	f7fe fefe 	bl	10004520 <__wrap___aeabi_dadd>
10005724:	4602      	mov	r2, r0
10005726:	460b      	mov	r3, r1
10005728:	e9dd 0110 	ldrd	r0, r1, [sp, #64]	@ 0x40
1000572c:	f7fe ff46 	bl	100045bc <__wrap___aeabi_ddiv>
10005730:	2200      	movs	r2, #0
10005732:	4b79      	ldr	r3, [pc, #484]	@ (10005918 <_etoa+0x500>)
10005734:	f7fe fef4 	bl	10004520 <__wrap___aeabi_dadd>
10005738:	4602      	mov	r2, r0
1000573a:	460b      	mov	r3, r1
1000573c:	e9dd 0110 	ldrd	r0, r1, [sp, #64]	@ 0x40
10005740:	f7fe ff3c 	bl	100045bc <__wrap___aeabi_ddiv>
10005744:	e9cd 0110 	strd	r0, r1, [sp, #64]	@ 0x40
10005748:	e9dd 230c 	ldrd	r2, r3, [sp, #48]	@ 0x30
1000574c:	2000      	movs	r0, #0
1000574e:	f04f 4180 	mov.w	r1, #1073741824	@ 0x40000000
10005752:	f7fe fef9 	bl	10004548 <__wrap___aeabi_dsub>
10005756:	4602      	mov	r2, r0
10005758:	460b      	mov	r3, r1
1000575a:	e9dd 0110 	ldrd	r0, r1, [sp, #64]	@ 0x40
1000575e:	f7fe fedf 	bl	10004520 <__wrap___aeabi_dadd>
10005762:	4602      	mov	r2, r0
10005764:	460b      	mov	r3, r1
10005766:	e9dd 0112 	ldrd	r0, r1, [sp, #72]	@ 0x48
1000576a:	f7fe ff27 	bl	100045bc <__wrap___aeabi_ddiv>
1000576e:	2200      	movs	r2, #0
10005770:	4b6a      	ldr	r3, [pc, #424]	@ (1000591c <_etoa+0x504>)
10005772:	f7fe fed5 	bl	10004520 <__wrap___aeabi_dadd>
10005776:	f205 3cff 	addw	ip, r5, #1023	@ 0x3ff
1000577a:	2200      	movs	r2, #0
1000577c:	ea4f 530c 	mov.w	r3, ip, lsl #20
10005780:	f7fe fef6 	bl	10004570 <__wrap___aeabi_dmul>
10005784:	4602      	mov	r2, r0
10005786:	460b      	mov	r3, r1
10005788:	e9dd 0108 	ldrd	r0, r1, [sp, #32]
1000578c:	e9cd 230c 	strd	r2, r3, [sp, #48]	@ 0x30
10005790:	f7fe ffca 	bl	10004728 <__wrap___aeabi_dcmplt>
10005794:	b150      	cbz	r0, 100057ac <_etoa+0x394>
10005796:	e9dd 010c 	ldrd	r0, r1, [sp, #48]	@ 0x30
1000579a:	9b0e      	ldr	r3, [sp, #56]	@ 0x38
1000579c:	2200      	movs	r2, #0
1000579e:	3b01      	subs	r3, #1
100057a0:	930e      	str	r3, [sp, #56]	@ 0x38
100057a2:	4b5c      	ldr	r3, [pc, #368]	@ (10005914 <_etoa+0x4fc>)
100057a4:	f7fe ff0a 	bl	100045bc <__wrap___aeabi_ddiv>
100057a8:	e9cd 010c 	strd	r0, r1, [sp, #48]	@ 0x30
100057ac:	e9dd 010c 	ldrd	r0, r1, [sp, #48]	@ 0x30
100057b0:	9b0e      	ldr	r3, [sp, #56]	@ 0x38
100057b2:	4602      	mov	r2, r0
100057b4:	3363      	adds	r3, #99	@ 0x63
100057b6:	2bc6      	cmp	r3, #198	@ 0xc6
100057b8:	f008 0302 	and.w	r3, r8, #2
100057bc:	9310      	str	r3, [sp, #64]	@ 0x40
100057be:	9b14      	ldr	r3, [sp, #80]	@ 0x50
100057c0:	d82d      	bhi.n	1000581e <_etoa+0x406>
100057c2:	2b00      	cmp	r3, #0
100057c4:	d062      	beq.n	1000588c <_etoa+0x474>
100057c6:	2304      	movs	r3, #4
100057c8:	9312      	str	r3, [sp, #72]	@ 0x48
100057ca:	430a      	orrs	r2, r1
100057cc:	f43f af17 	beq.w	100055fe <_etoa+0x1e6>
100057d0:	e9dd 0108 	ldrd	r0, r1, [sp, #32]
100057d4:	a348      	add	r3, pc, #288	@ (adr r3, 100058f8 <_etoa+0x4e0>)
100057d6:	e9d3 2300 	ldrd	r2, r3, [r3]
100057da:	f7fe ffcd 	bl	10004778 <__wrap___aeabi_dcmpge>
100057de:	b148      	cbz	r0, 100057f4 <_etoa+0x3dc>
100057e0:	e9dd 0108 	ldrd	r0, r1, [sp, #32]
100057e4:	a346      	add	r3, pc, #280	@ (adr r3, 10005900 <_etoa+0x4e8>)
100057e6:	e9d3 2300 	ldrd	r2, r3, [r3]
100057ea:	f7fe ff9d 	bl	10004728 <__wrap___aeabi_dcmplt>
100057ee:	2800      	cmp	r0, #0
100057f0:	f47f af05 	bne.w	100055fe <_etoa+0x1e6>
100057f4:	9b0b      	ldr	r3, [sp, #44]	@ 0x2c
100057f6:	2b00      	cmp	r3, #0
100057f8:	d054      	beq.n	100058a4 <_etoa+0x48c>
100057fa:	9a15      	ldr	r2, [sp, #84]	@ 0x54
100057fc:	2a00      	cmp	r2, #0
100057fe:	f000 80ac 	beq.w	1000595a <_etoa+0x542>
10005802:	3b01      	subs	r3, #1
10005804:	930b      	str	r3, [sp, #44]	@ 0x2c
10005806:	9b12      	ldr	r3, [sp, #72]	@ 0x48
10005808:	4599      	cmp	r9, r3
1000580a:	d905      	bls.n	10005818 <_etoa+0x400>
1000580c:	9b10      	ldr	r3, [sp, #64]	@ 0x40
1000580e:	2b00      	cmp	r3, #0
10005810:	f000 80af 	beq.w	10005972 <_etoa+0x55a>
10005814:	2302      	movs	r3, #2
10005816:	9310      	str	r3, [sp, #64]	@ 0x40
10005818:	2300      	movs	r3, #0
1000581a:	9314      	str	r3, [sp, #80]	@ 0x50
1000581c:	e047      	b.n	100058ae <_etoa+0x496>
1000581e:	bb2b      	cbnz	r3, 1000586c <_etoa+0x454>
10005820:	f1b9 0f05 	cmp.w	r9, #5
10005824:	d952      	bls.n	100058cc <_etoa+0x4b4>
10005826:	f008 0302 	and.w	r3, r8, #2
1000582a:	2b00      	cmp	r3, #0
1000582c:	d14c      	bne.n	100058c8 <_etoa+0x4b0>
1000582e:	2305      	movs	r3, #5
10005830:	9312      	str	r3, [sp, #72]	@ 0x48
10005832:	f1a9 0305 	sub.w	r3, r9, #5
10005836:	9314      	str	r3, [sp, #80]	@ 0x50
10005838:	e03d      	b.n	100058b6 <_etoa+0x49e>
1000583a:	f10b 4300 	add.w	r3, fp, #2147483648	@ 0x80000000
1000583e:	f8cd a020 	str.w	sl, [sp, #32]
10005842:	9309      	str	r3, [sp, #36]	@ 0x24
10005844:	e61e      	b.n	10005484 <_etoa+0x6c>
10005846:	f428 6300 	bic.w	r3, r8, #2048	@ 0x800
1000584a:	f443 6380 	orr.w	r3, r3, #1024	@ 0x400
1000584e:	4622      	mov	r2, r4
10005850:	4638      	mov	r0, r7
10005852:	932c      	str	r3, [sp, #176]	@ 0xb0
10005854:	4633      	mov	r3, r6
10005856:	e9dd 6708 	ldrd	r6, r7, [sp, #32]
1000585a:	4634      	mov	r4, r6
1000585c:	e9cd 592a 	strd	r5, r9, [sp, #168]	@ 0xa8
10005860:	f107 4500 	add.w	r5, r7, #2147483648	@ 0x80000000
10005864:	e9cd 4528 	strd	r4, r5, [sp, #160]	@ 0xa0
10005868:	990a      	ldr	r1, [sp, #40]	@ 0x28
1000586a:	e6bb      	b.n	100055e4 <_etoa+0x1cc>
1000586c:	2305      	movs	r3, #5
1000586e:	9312      	str	r3, [sp, #72]	@ 0x48
10005870:	e7ab      	b.n	100057ca <_etoa+0x3b2>
10005872:	461a      	mov	r2, r3
10005874:	464b      	mov	r3, r9
10005876:	2b04      	cmp	r3, #4
10005878:	bf38      	it	cc
1000587a:	2304      	movcc	r3, #4
1000587c:	920e      	str	r2, [sp, #56]	@ 0x38
1000587e:	2204      	movs	r2, #4
10005880:	3b04      	subs	r3, #4
10005882:	9212      	str	r2, [sp, #72]	@ 0x48
10005884:	9314      	str	r3, [sp, #80]	@ 0x50
10005886:	e61e      	b.n	100054c6 <_etoa+0xae>
10005888:	2505      	movs	r5, #5
1000588a:	e6be      	b.n	1000560a <_etoa+0x1f2>
1000588c:	f1b9 0f04 	cmp.w	r9, #4
10005890:	d91f      	bls.n	100058d2 <_etoa+0x4ba>
10005892:	9b10      	ldr	r3, [sp, #64]	@ 0x40
10005894:	2b00      	cmp	r3, #0
10005896:	d174      	bne.n	10005982 <_etoa+0x56a>
10005898:	2304      	movs	r3, #4
1000589a:	9312      	str	r3, [sp, #72]	@ 0x48
1000589c:	f1a9 0304 	sub.w	r3, r9, #4
100058a0:	9314      	str	r3, [sp, #80]	@ 0x50
100058a2:	e004      	b.n	100058ae <_etoa+0x496>
100058a4:	9b12      	ldr	r3, [sp, #72]	@ 0x48
100058a6:	4599      	cmp	r9, r3
100058a8:	d85c      	bhi.n	10005964 <_etoa+0x54c>
100058aa:	9b0b      	ldr	r3, [sp, #44]	@ 0x2c
100058ac:	9314      	str	r3, [sp, #80]	@ 0x50
100058ae:	9b0e      	ldr	r3, [sp, #56]	@ 0x38
100058b0:	2b00      	cmp	r3, #0
100058b2:	f43f ae08 	beq.w	100054c6 <_etoa+0xae>
100058b6:	e9dd 0108 	ldrd	r0, r1, [sp, #32]
100058ba:	e9dd 230c 	ldrd	r2, r3, [sp, #48]	@ 0x30
100058be:	f7fe fe7d 	bl	100045bc <__wrap___aeabi_ddiv>
100058c2:	e9cd 0108 	strd	r0, r1, [sp, #32]
100058c6:	e5fe      	b.n	100054c6 <_etoa+0xae>
100058c8:	2302      	movs	r3, #2
100058ca:	9310      	str	r3, [sp, #64]	@ 0x40
100058cc:	2305      	movs	r3, #5
100058ce:	9312      	str	r3, [sp, #72]	@ 0x48
100058d0:	e7f1      	b.n	100058b6 <_etoa+0x49e>
100058d2:	2304      	movs	r3, #4
100058d4:	9312      	str	r3, [sp, #72]	@ 0x48
100058d6:	e7ea      	b.n	100058ae <_etoa+0x496>
100058d8:	636f4361 	.word	0x636f4361
100058dc:	3fd287a7 	.word	0x3fd287a7
100058e0:	0979a371 	.word	0x0979a371
100058e4:	400a934f 	.word	0x400a934f
100058e8:	bbb55516 	.word	0xbbb55516
100058ec:	40026bb1 	.word	0x40026bb1
100058f0:	fefa39ef 	.word	0xfefa39ef
100058f4:	3fe62e42 	.word	0x3fe62e42
100058f8:	eb1c432d 	.word	0xeb1c432d
100058fc:	3f1a36e2 	.word	0x3f1a36e2
10005900:	00000000 	.word	0x00000000
10005904:	412e8480 	.word	0x412e8480
10005908:	3ff80000 	.word	0x3ff80000
1000590c:	3fe00000 	.word	0x3fe00000
10005910:	402c0000 	.word	0x402c0000
10005914:	40240000 	.word	0x40240000
10005918:	40180000 	.word	0x40180000
1000591c:	3ff00000 	.word	0x3ff00000
10005920:	509f79fb 	.word	0x509f79fb
10005924:	3fd34413 	.word	0x3fd34413
10005928:	8b60c8b3 	.word	0x8b60c8b3
1000592c:	3fc68a28 	.word	0x3fc68a28
10005930:	9b14      	ldr	r3, [sp, #80]	@ 0x50
10005932:	e9dd a508 	ldrd	sl, r5, [sp, #32]
10005936:	9303      	str	r3, [sp, #12]
10005938:	9b0b      	ldr	r3, [sp, #44]	@ 0x2c
1000593a:	f105 4b00 	add.w	fp, r5, #2147483648	@ 0x80000000
1000593e:	9302      	str	r3, [sp, #8]
10005940:	f428 6300 	bic.w	r3, r8, #2048	@ 0x800
10005944:	4622      	mov	r2, r4
10005946:	9304      	str	r3, [sp, #16]
10005948:	4638      	mov	r0, r7
1000594a:	4633      	mov	r3, r6
1000594c:	e9cd ab00 	strd	sl, fp, [sp]
10005950:	990a      	ldr	r1, [sp, #40]	@ 0x28
10005952:	f7ff fb11 	bl	10004f78 <_ftoa>
10005956:	4602      	mov	r2, r0
10005958:	e5d0      	b.n	100054fc <_etoa+0xe4>
1000595a:	9b12      	ldr	r3, [sp, #72]	@ 0x48
1000595c:	4599      	cmp	r9, r3
1000595e:	d815      	bhi.n	1000598c <_etoa+0x574>
10005960:	9214      	str	r2, [sp, #80]	@ 0x50
10005962:	e7a4      	b.n	100058ae <_etoa+0x496>
10005964:	9b10      	ldr	r3, [sp, #64]	@ 0x40
10005966:	b123      	cbz	r3, 10005972 <_etoa+0x55a>
10005968:	9b0b      	ldr	r3, [sp, #44]	@ 0x2c
1000596a:	9314      	str	r3, [sp, #80]	@ 0x50
1000596c:	2302      	movs	r3, #2
1000596e:	9310      	str	r3, [sp, #64]	@ 0x40
10005970:	e79d      	b.n	100058ae <_etoa+0x496>
10005972:	9b12      	ldr	r3, [sp, #72]	@ 0x48
10005974:	eba9 0303 	sub.w	r3, r9, r3
10005978:	9314      	str	r3, [sp, #80]	@ 0x50
1000597a:	e798      	b.n	100058ae <_etoa+0x496>
1000597c:	1a9b      	subs	r3, r3, r2
1000597e:	1e5d      	subs	r5, r3, #1
10005980:	e643      	b.n	1000560a <_etoa+0x1f2>
10005982:	2304      	movs	r3, #4
10005984:	9312      	str	r3, [sp, #72]	@ 0x48
10005986:	2302      	movs	r3, #2
10005988:	9310      	str	r3, [sp, #64]	@ 0x40
1000598a:	e790      	b.n	100058ae <_etoa+0x496>
1000598c:	9b10      	ldr	r3, [sp, #64]	@ 0x40
1000598e:	2b00      	cmp	r3, #0
10005990:	d0ef      	beq.n	10005972 <_etoa+0x55a>
10005992:	2302      	movs	r3, #2
10005994:	9214      	str	r2, [sp, #80]	@ 0x50
10005996:	9310      	str	r3, [sp, #64]	@ 0x40
10005998:	e789      	b.n	100058ae <_etoa+0x496>
1000599a:	bf00      	nop

1000599c <_vsnprintf>:
1000599c:	e92d 4ff0 	stmdb	sp!, {r4, r5, r6, r7, r8, r9, sl, fp, lr}
100059a0:	4699      	mov	r9, r3
100059a2:	4693      	mov	fp, r2
100059a4:	4c9d      	ldr	r4, [pc, #628]	@ (10005c1c <_vsnprintf+0x280>)
100059a6:	4a9e      	ldr	r2, [pc, #632]	@ (10005c20 <_vsnprintf+0x284>)
100059a8:	1e0b      	subs	r3, r1, #0
100059aa:	b09d      	sub	sp, #116	@ 0x74
100059ac:	bf18      	it	ne
100059ae:	4680      	movne	r8, r0
100059b0:	6014      	str	r4, [r2, #0]
100059b2:	f899 0000 	ldrb.w	r0, [r9]
100059b6:	4a9b      	ldr	r2, [pc, #620]	@ (10005c24 <_vsnprintf+0x288>)
100059b8:	9f26      	ldr	r7, [sp, #152]	@ 0x98
100059ba:	bf08      	it	eq
100059bc:	4690      	moveq	r8, r2
100059be:	9309      	str	r3, [sp, #36]	@ 0x24
100059c0:	2800      	cmp	r0, #0
100059c2:	f000 82b6 	beq.w	10005f32 <_vsnprintf+0x596>
100059c6:	f04f 0a00 	mov.w	sl, #0
100059ca:	f8cd b028 	str.w	fp, [sp, #40]	@ 0x28
100059ce:	e009      	b.n	100059e4 <_vsnprintf+0x48>
100059d0:	4652      	mov	r2, sl
100059d2:	9b0a      	ldr	r3, [sp, #40]	@ 0x28
100059d4:	9909      	ldr	r1, [sp, #36]	@ 0x24
100059d6:	47c0      	blx	r8
100059d8:	f10a 0a01 	add.w	sl, sl, #1
100059dc:	f899 0000 	ldrb.w	r0, [r9]
100059e0:	2800      	cmp	r0, #0
100059e2:	d07b      	beq.n	10005adc <_vsnprintf+0x140>
100059e4:	2825      	cmp	r0, #37	@ 0x25
100059e6:	f109 0901 	add.w	r9, r9, #1
100059ea:	d1f1      	bne.n	100059d0 <_vsnprintf+0x34>
100059ec:	2200      	movs	r2, #0
100059ee:	464b      	mov	r3, r9
100059f0:	f813 0b01 	ldrb.w	r0, [r3], #1
100059f4:	f1a0 0120 	sub.w	r1, r0, #32
100059f8:	2910      	cmp	r1, #16
100059fa:	d80a      	bhi.n	10005a12 <_vsnprintf+0x76>
100059fc:	e8df f001 	tbb	[pc, r1]
10005a00:	3b09093f 	.word	0x3b09093f
10005a04:	09090909 	.word	0x09090909
10005a08:	37090909 	.word	0x37090909
10005a0c:	09093309 	.word	0x09093309
10005a10:	2f          	.byte	0x2f
10005a11:	00          	.byte	0x00
10005a12:	f1a0 0130 	sub.w	r1, r0, #48	@ 0x30
10005a16:	2909      	cmp	r1, #9
10005a18:	f240 80b6 	bls.w	10005b88 <_vsnprintf+0x1ec>
10005a1c:	282a      	cmp	r0, #42	@ 0x2a
10005a1e:	f000 80ef 	beq.w	10005c00 <_vsnprintf+0x264>
10005a22:	2400      	movs	r4, #0
10005a24:	282e      	cmp	r0, #46	@ 0x2e
10005a26:	f000 809e 	beq.w	10005b66 <_vsnprintf+0x1ca>
10005a2a:	2500      	movs	r5, #0
10005a2c:	f1a0 0168 	sub.w	r1, r0, #104	@ 0x68
10005a30:	2912      	cmp	r1, #18
10005a32:	d82d      	bhi.n	10005a90 <_vsnprintf+0xf4>
10005a34:	e8df f011 	tbh	[pc, r1, lsl #1]
10005a38:	002c0139 	.word	0x002c0139
10005a3c:	002c014e 	.word	0x002c014e
10005a40:	002c0142 	.word	0x002c0142
10005a44:	002c002c 	.word	0x002c002c
10005a48:	002c002c 	.word	0x002c002c
10005a4c:	002c002c 	.word	0x002c002c
10005a50:	002c0027 	.word	0x002c0027
10005a54:	002c002c 	.word	0x002c002c
10005a58:	002c002c 	.word	0x002c002c
10005a5c:	0027      	.short	0x0027
10005a5e:	4699      	mov	r9, r3
10005a60:	f042 0201 	orr.w	r2, r2, #1
10005a64:	e7c3      	b.n	100059ee <_vsnprintf+0x52>
10005a66:	4699      	mov	r9, r3
10005a68:	f042 0202 	orr.w	r2, r2, #2
10005a6c:	e7bf      	b.n	100059ee <_vsnprintf+0x52>
10005a6e:	4699      	mov	r9, r3
10005a70:	f042 0204 	orr.w	r2, r2, #4
10005a74:	e7bb      	b.n	100059ee <_vsnprintf+0x52>
10005a76:	4699      	mov	r9, r3
10005a78:	f042 0210 	orr.w	r2, r2, #16
10005a7c:	e7b7      	b.n	100059ee <_vsnprintf+0x52>
10005a7e:	4699      	mov	r9, r3
10005a80:	f042 0208 	orr.w	r2, r2, #8
10005a84:	e7b3      	b.n	100059ee <_vsnprintf+0x52>
10005a86:	f899 0001 	ldrb.w	r0, [r9, #1]
10005a8a:	f442 7280 	orr.w	r2, r2, #256	@ 0x100
10005a8e:	3301      	adds	r3, #1
10005a90:	2865      	cmp	r0, #101	@ 0x65
10005a92:	4699      	mov	r9, r3
10005a94:	d832      	bhi.n	10005afc <_vsnprintf+0x160>
10005a96:	2846      	cmp	r0, #70	@ 0x46
10005a98:	f200 8086 	bhi.w	10005ba8 <_vsnprintf+0x20c>
10005a9c:	2825      	cmp	r0, #37	@ 0x25
10005a9e:	d097      	beq.n	100059d0 <_vsnprintf+0x34>
10005aa0:	2824      	cmp	r0, #36	@ 0x24
10005aa2:	d995      	bls.n	100059d0 <_vsnprintf+0x34>
10005aa4:	2845      	cmp	r0, #69	@ 0x45
10005aa6:	f000 81f4 	beq.w	10005e92 <_vsnprintf+0x4f6>
10005aaa:	2846      	cmp	r0, #70	@ 0x46
10005aac:	d190      	bne.n	100059d0 <_vsnprintf+0x34>
10005aae:	f042 0220 	orr.w	r2, r2, #32
10005ab2:	e9cd 4203 	strd	r4, r2, [sp, #12]
10005ab6:	e9dd 1309 	ldrd	r1, r3, [sp, #36]	@ 0x24
10005aba:	3707      	adds	r7, #7
10005abc:	9502      	str	r5, [sp, #8]
10005abe:	f027 0707 	bic.w	r7, r7, #7
10005ac2:	4652      	mov	r2, sl
10005ac4:	e8f7 4502 	ldrd	r4, r5, [r7], #8
10005ac8:	4640      	mov	r0, r8
10005aca:	e9cd 4500 	strd	r4, r5, [sp]
10005ace:	f7ff fa53 	bl	10004f78 <_ftoa>
10005ad2:	4682      	mov	sl, r0
10005ad4:	f899 0000 	ldrb.w	r0, [r9]
10005ad8:	2800      	cmp	r0, #0
10005ada:	d183      	bne.n	100059e4 <_vsnprintf+0x48>
10005adc:	4654      	mov	r4, sl
10005ade:	f8dd b028 	ldr.w	fp, [sp, #40]	@ 0x28
10005ae2:	45d3      	cmp	fp, sl
10005ae4:	d801      	bhi.n	10005aea <_vsnprintf+0x14e>
10005ae6:	f10b 3aff 	add.w	sl, fp, #4294967295	@ 0xffffffff
10005aea:	465b      	mov	r3, fp
10005aec:	4652      	mov	r2, sl
10005aee:	2000      	movs	r0, #0
10005af0:	9909      	ldr	r1, [sp, #36]	@ 0x24
10005af2:	47c0      	blx	r8
10005af4:	4620      	mov	r0, r4
10005af6:	b01d      	add	sp, #116	@ 0x74
10005af8:	e8bd 8ff0 	ldmia.w	sp!, {r4, r5, r6, r7, r8, r9, sl, fp, pc}
10005afc:	2878      	cmp	r0, #120	@ 0x78
10005afe:	f63f af67 	bhi.w	100059d0 <_vsnprintf+0x34>
10005b02:	2868      	cmp	r0, #104	@ 0x68
10005b04:	f240 80ec 	bls.w	10005ce0 <_vsnprintf+0x344>
10005b08:	2101      	movs	r1, #1
10005b0a:	f249 0641 	movw	r6, #36929	@ 0x9041
10005b0e:	f1a0 0369 	sub.w	r3, r0, #105	@ 0x69
10005b12:	b2db      	uxtb	r3, r3
10005b14:	4099      	lsls	r1, r3
10005b16:	4031      	ands	r1, r6
10005b18:	f040 80fc 	bne.w	10005d14 <_vsnprintf+0x378>
10005b1c:	2873      	cmp	r0, #115	@ 0x73
10005b1e:	f000 8087 	beq.w	10005c30 <_vsnprintf+0x294>
10005b22:	2870      	cmp	r0, #112	@ 0x70
10005b24:	f47f af54 	bne.w	100059d0 <_vsnprintf+0x34>
10005b28:	f857 0b04 	ldr.w	r0, [r7], #4
10005b2c:	2800      	cmp	r0, #0
10005b2e:	f040 817a 	bne.w	10005e26 <_vsnprintf+0x48a>
10005b32:	f022 0410 	bic.w	r4, r2, #16
10005b36:	0556      	lsls	r6, r2, #21
10005b38:	f044 0421 	orr.w	r4, r4, #33	@ 0x21
10005b3c:	f140 8175 	bpl.w	10005e2a <_vsnprintf+0x48e>
10005b40:	aa14      	add	r2, sp, #80	@ 0x50
10005b42:	2308      	movs	r3, #8
10005b44:	9305      	str	r3, [sp, #20]
10005b46:	2310      	movs	r3, #16
10005b48:	e9cd 2100 	strd	r2, r1, [sp]
10005b4c:	4652      	mov	r2, sl
10005b4e:	9406      	str	r4, [sp, #24]
10005b50:	9504      	str	r5, [sp, #16]
10005b52:	9303      	str	r3, [sp, #12]
10005b54:	2300      	movs	r3, #0
10005b56:	9302      	str	r3, [sp, #8]
10005b58:	4640      	mov	r0, r8
10005b5a:	e9dd 1309 	ldrd	r1, r3, [sp, #36]	@ 0x24
10005b5e:	f7ff f909 	bl	10004d74 <_ntoa_format>
10005b62:	4682      	mov	sl, r0
10005b64:	e73a      	b.n	100059dc <_vsnprintf+0x40>
10005b66:	f899 0001 	ldrb.w	r0, [r9, #1]
10005b6a:	4619      	mov	r1, r3
10005b6c:	f1a0 0530 	sub.w	r5, r0, #48	@ 0x30
10005b70:	2d09      	cmp	r5, #9
10005b72:	f442 6280 	orr.w	r2, r2, #1024	@ 0x400
10005b76:	f240 813b 	bls.w	10005df0 <_vsnprintf+0x454>
10005b7a:	282a      	cmp	r0, #42	@ 0x2a
10005b7c:	f000 8148 	beq.w	10005e10 <_vsnprintf+0x474>
10005b80:	4699      	mov	r9, r3
10005b82:	2500      	movs	r5, #0
10005b84:	3301      	adds	r3, #1
10005b86:	e751      	b.n	10005a2c <_vsnprintf+0x90>
10005b88:	2400      	movs	r4, #0
10005b8a:	eb04 0484 	add.w	r4, r4, r4, lsl #2
10005b8e:	eb00 0444 	add.w	r4, r0, r4, lsl #1
10005b92:	7818      	ldrb	r0, [r3, #0]
10005b94:	4699      	mov	r9, r3
10005b96:	f1a0 0130 	sub.w	r1, r0, #48	@ 0x30
10005b9a:	2909      	cmp	r1, #9
10005b9c:	f1a4 0430 	sub.w	r4, r4, #48	@ 0x30
10005ba0:	f103 0301 	add.w	r3, r3, #1
10005ba4:	d9f1      	bls.n	10005b8a <_vsnprintf+0x1ee>
10005ba6:	e73d      	b.n	10005a24 <_vsnprintf+0x88>
10005ba8:	2301      	movs	r3, #1
10005baa:	f1a0 0147 	sub.w	r1, r0, #71	@ 0x47
10005bae:	b2c9      	uxtb	r1, r1
10005bb0:	408b      	lsls	r3, r1
10005bb2:	491d      	ldr	r1, [pc, #116]	@ (10005c28 <_vsnprintf+0x28c>)
10005bb4:	420b      	tst	r3, r1
10005bb6:	f040 821e 	bne.w	10005ff6 <_vsnprintf+0x65a>
10005bba:	491c      	ldr	r1, [pc, #112]	@ (10005c2c <_vsnprintf+0x290>)
10005bbc:	420b      	tst	r3, r1
10005bbe:	f040 8163 	bne.w	10005e88 <_vsnprintf+0x4ec>
10005bc2:	2863      	cmp	r0, #99	@ 0x63
10005bc4:	f47f af04 	bne.w	100059d0 <_vsnprintf+0x34>
10005bc8:	0793      	lsls	r3, r2, #30
10005bca:	f10a 0501 	add.w	r5, sl, #1
10005bce:	f107 0b04 	add.w	fp, r7, #4
10005bd2:	f140 81ed 	bpl.w	10005fb0 <_vsnprintf+0x614>
10005bd6:	4652      	mov	r2, sl
10005bd8:	7838      	ldrb	r0, [r7, #0]
10005bda:	9b0a      	ldr	r3, [sp, #40]	@ 0x28
10005bdc:	9909      	ldr	r1, [sp, #36]	@ 0x24
10005bde:	47c0      	blx	r8
10005be0:	2c01      	cmp	r4, #1
10005be2:	f240 825a 	bls.w	1000609a <_vsnprintf+0x6fe>
10005be6:	44a2      	add	sl, r4
10005be8:	e9dd 4609 	ldrd	r4, r6, [sp, #36]	@ 0x24
10005bec:	462a      	mov	r2, r5
10005bee:	4633      	mov	r3, r6
10005bf0:	4621      	mov	r1, r4
10005bf2:	2020      	movs	r0, #32
10005bf4:	3501      	adds	r5, #1
10005bf6:	47c0      	blx	r8
10005bf8:	4555      	cmp	r5, sl
10005bfa:	d1f7      	bne.n	10005bec <_vsnprintf+0x250>
10005bfc:	465f      	mov	r7, fp
10005bfe:	e6ed      	b.n	100059dc <_vsnprintf+0x40>
10005c00:	f857 4b04 	ldr.w	r4, [r7], #4
10005c04:	f042 0102 	orr.w	r1, r2, #2
10005c08:	2c00      	cmp	r4, #0
10005c0a:	4699      	mov	r9, r3
10005c0c:	7818      	ldrb	r0, [r3, #0]
10005c0e:	bfb8      	it	lt
10005c10:	460a      	movlt	r2, r1
10005c12:	f103 0301 	add.w	r3, r3, #1
10005c16:	bfb8      	it	lt
10005c18:	4264      	neglt	r4, r4
10005c1a:	e703      	b.n	10005a24 <_vsnprintf+0x88>
10005c1c:	1000599d 	.word	0x1000599d
10005c20:	20002610 	.word	0x20002610
10005c24:	10004cc5 	.word	0x10004cc5
10005c28:	28020000 	.word	0x28020000
10005c2c:	40000001 	.word	0x40000001
10005c30:	463b      	mov	r3, r7
10005c32:	f853 6b04 	ldr.w	r6, [r3], #4
10005c36:	2d00      	cmp	r5, #0
10005c38:	7830      	ldrb	r0, [r6, #0]
10005c3a:	bf14      	ite	ne
10005c3c:	462f      	movne	r7, r5
10005c3e:	f04f 37ff 	moveq.w	r7, #4294967295	@ 0xffffffff
10005c42:	2800      	cmp	r0, #0
10005c44:	f000 831a 	beq.w	1000627c <_vsnprintf+0x8e0>
10005c48:	46b3      	mov	fp, r6
10005c4a:	4437      	add	r7, r6
10005c4c:	f81b 1f01 	ldrb.w	r1, [fp, #1]!
10005c50:	b109      	cbz	r1, 10005c56 <_vsnprintf+0x2ba>
10005c52:	45bb      	cmp	fp, r7
10005c54:	d1fa      	bne.n	10005c4c <_vsnprintf+0x2b0>
10005c56:	0557      	lsls	r7, r2, #21
10005c58:	ebab 0b06 	sub.w	fp, fp, r6
10005c5c:	f140 80fb 	bpl.w	10005e56 <_vsnprintf+0x4ba>
10005c60:	45ab      	cmp	fp, r5
10005c62:	bf28      	it	cs
10005c64:	46ab      	movcs	fp, r5
10005c66:	f012 0702 	ands.w	r7, r2, #2
10005c6a:	f000 8256 	beq.w	1000611a <_vsnprintf+0x77e>
10005c6e:	2702      	movs	r7, #2
10005c70:	e9cd 430b 	strd	r4, r3, [sp, #44]	@ 0x2c
10005c74:	f8cd b034 	str.w	fp, [sp, #52]	@ 0x34
10005c78:	4652      	mov	r2, sl
10005c7a:	e9dd 4b09 	ldrd	r4, fp, [sp, #36]	@ 0x24
10005c7e:	4455      	add	r5, sl
10005c80:	e008      	b.n	10005c94 <_vsnprintf+0x2f8>
10005c82:	465b      	mov	r3, fp
10005c84:	4621      	mov	r1, r4
10005c86:	47c0      	blx	r8
10005c88:	f816 0f01 	ldrb.w	r0, [r6, #1]!
10005c8c:	f10a 0a01 	add.w	sl, sl, #1
10005c90:	b110      	cbz	r0, 10005c98 <_vsnprintf+0x2fc>
10005c92:	4652      	mov	r2, sl
10005c94:	45aa      	cmp	sl, r5
10005c96:	d1f4      	bne.n	10005c82 <_vsnprintf+0x2e6>
10005c98:	f8dd b034 	ldr.w	fp, [sp, #52]	@ 0x34
10005c9c:	e9dd 430b 	ldrd	r4, r3, [sp, #44]	@ 0x2c
10005ca0:	2f00      	cmp	r7, #0
10005ca2:	f040 812c 	bne.w	10005efe <_vsnprintf+0x562>
10005ca6:	461f      	mov	r7, r3
10005ca8:	e698      	b.n	100059dc <_vsnprintf+0x40>
10005caa:	f899 0001 	ldrb.w	r0, [r9, #1]
10005cae:	2868      	cmp	r0, #104	@ 0x68
10005cb0:	f000 8138 	beq.w	10005f24 <_vsnprintf+0x588>
10005cb4:	f042 0280 	orr.w	r2, r2, #128	@ 0x80
10005cb8:	3301      	adds	r3, #1
10005cba:	e6e9      	b.n	10005a90 <_vsnprintf+0xf4>
10005cbc:	f899 0001 	ldrb.w	r0, [r9, #1]
10005cc0:	286c      	cmp	r0, #108	@ 0x6c
10005cc2:	f47f aee2 	bne.w	10005a8a <_vsnprintf+0xee>
10005cc6:	f899 0002 	ldrb.w	r0, [r9, #2]
10005cca:	f442 7240 	orr.w	r2, r2, #768	@ 0x300
10005cce:	f109 0303 	add.w	r3, r9, #3
10005cd2:	e6dd      	b.n	10005a90 <_vsnprintf+0xf4>
10005cd4:	f899 0001 	ldrb.w	r0, [r9, #1]
10005cd8:	f442 7200 	orr.w	r2, r2, #512	@ 0x200
10005cdc:	3301      	adds	r3, #1
10005cde:	e6d7      	b.n	10005a90 <_vsnprintf+0xf4>
10005ce0:	2866      	cmp	r0, #102	@ 0x66
10005ce2:	f43f aee6 	beq.w	10005ab2 <_vsnprintf+0x116>
10005ce6:	2867      	cmp	r0, #103	@ 0x67
10005ce8:	f47f ae72 	bne.w	100059d0 <_vsnprintf+0x34>
10005cec:	f442 6200 	orr.w	r2, r2, #2048	@ 0x800
10005cf0:	e9cd 4203 	strd	r4, r2, [sp, #12]
10005cf4:	e9dd 1309 	ldrd	r1, r3, [sp, #36]	@ 0x24
10005cf8:	3707      	adds	r7, #7
10005cfa:	9502      	str	r5, [sp, #8]
10005cfc:	f027 0707 	bic.w	r7, r7, #7
10005d00:	4652      	mov	r2, sl
10005d02:	e8f7 4502 	ldrd	r4, r5, [r7], #8
10005d06:	4640      	mov	r0, r8
10005d08:	e9cd 4500 	strd	r4, r5, [sp]
10005d0c:	f7ff fb84 	bl	10005418 <_etoa>
10005d10:	4682      	mov	sl, r0
10005d12:	e663      	b.n	100059dc <_vsnprintf+0x40>
10005d14:	286f      	cmp	r0, #111	@ 0x6f
10005d16:	f000 80bf 	beq.w	10005e98 <_vsnprintf+0x4fc>
10005d1a:	f200 8165 	bhi.w	10005fe8 <_vsnprintf+0x64c>
10005d1e:	2869      	cmp	r0, #105	@ 0x69
10005d20:	f022 0e10 	bic.w	lr, r2, #16
10005d24:	f040 82bb 	bne.w	1000629e <_vsnprintf+0x902>
10005d28:	f412 6380 	ands.w	r3, r2, #1024	@ 0x400
10005d2c:	f022 0211 	bic.w	r2, r2, #17
10005d30:	bf1c      	itt	ne
10005d32:	4696      	movne	lr, r2
10005d34:	f44f 6380 	movne.w	r3, #1024	@ 0x400
10005d38:	f41e 7000 	ands.w	r0, lr, #512	@ 0x200
10005d3c:	f000 80fc 	beq.w	10005f38 <_vsnprintf+0x59c>
10005d40:	3707      	adds	r7, #7
10005d42:	f027 0707 	bic.w	r7, r7, #7
10005d46:	687e      	ldr	r6, [r7, #4]
10005d48:	f857 1b08 	ldr.w	r1, [r7], #8
10005d4c:	2901      	cmp	r1, #1
10005d4e:	f176 0200 	sbcs.w	r2, r6, #0
10005d52:	f2c0 8184 	blt.w	1000605e <_vsnprintf+0x6c2>
10005d56:	2000      	movs	r0, #0
10005d58:	aa14      	add	r2, sp, #80	@ 0x50
10005d5a:	4694      	mov	ip, r2
10005d5c:	f04f 0b00 	mov.w	fp, #0
10005d60:	e9cd 7a0b 	strd	r7, sl, [sp, #44]	@ 0x2c
10005d64:	e9cd e40d 	strd	lr, r4, [sp, #52]	@ 0x34
10005d68:	920f      	str	r2, [sp, #60]	@ 0x3c
10005d6a:	e004      	b.n	10005d76 <_vsnprintf+0x3da>
10005d6c:	f1bb 0f20 	cmp.w	fp, #32
10005d70:	ea4e 71c7 	orr.w	r1, lr, r7, lsl #31
10005d74:	d02d      	beq.n	10005dd2 <_vsnprintf+0x436>
10005d76:	198b      	adds	r3, r1, r6
10005d78:	4cc4      	ldr	r4, [pc, #784]	@ (1000608c <_vsnprintf+0x6f0>)
10005d7a:	f143 0300 	adc.w	r3, r3, #0
10005d7e:	4622      	mov	r2, r4
10005d80:	fba4 4703 	umull	r4, r7, r4, r3
10005d84:	f027 0403 	bic.w	r4, r7, #3
10005d88:	eb04 0497 	add.w	r4, r4, r7, lsr #2
10005d8c:	f04f 37cc 	mov.w	r7, #3435973836	@ 0xcccccccc
10005d90:	1b1b      	subs	r3, r3, r4
10005d92:	1acc      	subs	r4, r1, r3
10005d94:	fb07 f704 	mul.w	r7, r7, r4
10005d98:	f166 0a00 	sbc.w	sl, r6, #0
10005d9c:	fba4 e402 	umull	lr, r4, r4, r2
10005da0:	fb02 770a 	mla	r7, r2, sl, r7
10005da4:	2205      	movs	r2, #5
10005da6:	f00e 0a01 	and.w	sl, lr, #1
10005daa:	4427      	add	r7, r4
10005dac:	fbaa 4a02 	umull	r4, sl, sl, r2
10005db0:	18e4      	adds	r4, r4, r3
10005db2:	290a      	cmp	r1, #10
10005db4:	f10c 0c01 	add.w	ip, ip, #1
10005db8:	f104 0430 	add.w	r4, r4, #48	@ 0x30
10005dbc:	f176 0600 	sbcs.w	r6, r6, #0
10005dc0:	f10b 0b01 	add.w	fp, fp, #1
10005dc4:	ea4f 0e5e 	mov.w	lr, lr, lsr #1
10005dc8:	f80c 4c01 	strb.w	r4, [ip, #-1]
10005dcc:	ea4f 0657 	mov.w	r6, r7, lsr #1
10005dd0:	d2cc      	bcs.n	10005d6c <_vsnprintf+0x3d0>
10005dd2:	9a0f      	ldr	r2, [sp, #60]	@ 0x3c
10005dd4:	e9dd 7a0b 	ldrd	r7, sl, [sp, #44]	@ 0x2c
10005dd8:	e9dd e40d 	ldrd	lr, r4, [sp, #52]	@ 0x34
10005ddc:	230a      	movs	r3, #10
10005dde:	9200      	str	r2, [sp, #0]
10005de0:	e9cd 4e05 	strd	r4, lr, [sp, #20]
10005de4:	4652      	mov	r2, sl
10005de6:	e9cd b001 	strd	fp, r0, [sp, #4]
10005dea:	9504      	str	r5, [sp, #16]
10005dec:	9303      	str	r3, [sp, #12]
10005dee:	e6b3      	b.n	10005b58 <_vsnprintf+0x1bc>
10005df0:	2500      	movs	r5, #0
10005df2:	eb05 0585 	add.w	r5, r5, r5, lsl #2
10005df6:	eb00 0045 	add.w	r0, r0, r5, lsl #1
10005dfa:	f1a0 0530 	sub.w	r5, r0, #48	@ 0x30
10005dfe:	f811 0f01 	ldrb.w	r0, [r1, #1]!
10005e02:	f1a0 0330 	sub.w	r3, r0, #48	@ 0x30
10005e06:	2b09      	cmp	r3, #9
10005e08:	d9f3      	bls.n	10005df2 <_vsnprintf+0x456>
10005e0a:	4689      	mov	r9, r1
10005e0c:	1c4b      	adds	r3, r1, #1
10005e0e:	e60d      	b.n	10005a2c <_vsnprintf+0x90>
10005e10:	f857 5b04 	ldr.w	r5, [r7], #4
10005e14:	f899 0002 	ldrb.w	r0, [r9, #2]
10005e18:	f109 0902 	add.w	r9, r9, #2
10005e1c:	f109 0301 	add.w	r3, r9, #1
10005e20:	ea25 75e5 	bic.w	r5, r5, r5, asr #31
10005e24:	e602      	b.n	10005a2c <_vsnprintf+0x90>
10005e26:	f042 0421 	orr.w	r4, r2, #33	@ 0x21
10005e2a:	aa14      	add	r2, sp, #80	@ 0x50
10005e2c:	4616      	mov	r6, r2
10005e2e:	e002      	b.n	10005e36 <_vsnprintf+0x49a>
10005e30:	2920      	cmp	r1, #32
10005e32:	f43f ae86 	beq.w	10005b42 <_vsnprintf+0x1a6>
10005e36:	f000 030f 	and.w	r3, r0, #15
10005e3a:	2b09      	cmp	r3, #9
10005e3c:	bf94      	ite	ls
10005e3e:	3330      	addls	r3, #48	@ 0x30
10005e40:	3337      	addhi	r3, #55	@ 0x37
10005e42:	280f      	cmp	r0, #15
10005e44:	7033      	strb	r3, [r6, #0]
10005e46:	f101 0101 	add.w	r1, r1, #1
10005e4a:	f106 0601 	add.w	r6, r6, #1
10005e4e:	ea4f 1010 	mov.w	r0, r0, lsr #4
10005e52:	d8ed      	bhi.n	10005e30 <_vsnprintf+0x494>
10005e54:	e675      	b.n	10005b42 <_vsnprintf+0x1a6>
10005e56:	f012 0702 	ands.w	r7, r2, #2
10005e5a:	f000 8188 	beq.w	1000616e <_vsnprintf+0x7d2>
10005e5e:	2702      	movs	r7, #2
10005e60:	e9cd 430b 	strd	r4, r3, [sp, #44]	@ 0x2c
10005e64:	e9dd 4509 	ldrd	r4, r5, [sp, #36]	@ 0x24
10005e68:	4652      	mov	r2, sl
10005e6a:	462b      	mov	r3, r5
10005e6c:	4621      	mov	r1, r4
10005e6e:	47c0      	blx	r8
10005e70:	f816 0f01 	ldrb.w	r0, [r6, #1]!
10005e74:	f10a 0a01 	add.w	sl, sl, #1
10005e78:	2800      	cmp	r0, #0
10005e7a:	d1f5      	bne.n	10005e68 <_vsnprintf+0x4cc>
10005e7c:	e9dd 430b 	ldrd	r4, r3, [sp, #44]	@ 0x2c
10005e80:	2f00      	cmp	r7, #0
10005e82:	f43f af10 	beq.w	10005ca6 <_vsnprintf+0x30a>
10005e86:	e03a      	b.n	10005efe <_vsnprintf+0x562>
10005e88:	2847      	cmp	r0, #71	@ 0x47
10005e8a:	f47f af31 	bne.w	10005cf0 <_vsnprintf+0x354>
10005e8e:	f442 6200 	orr.w	r2, r2, #2048	@ 0x800
10005e92:	f042 0220 	orr.w	r2, r2, #32
10005e96:	e72b      	b.n	10005cf0 <_vsnprintf+0x354>
10005e98:	2308      	movs	r3, #8
10005e9a:	930b      	str	r3, [sp, #44]	@ 0x2c
10005e9c:	f412 6c80 	ands.w	ip, r2, #1024	@ 0x400
10005ea0:	f000 80b0 	beq.w	10006004 <_vsnprintf+0x668>
10005ea4:	f022 0e0d 	bic.w	lr, r2, #13
10005ea8:	f41e 7100 	ands.w	r1, lr, #512	@ 0x200
10005eac:	f040 811c 	bne.w	100060e8 <_vsnprintf+0x74c>
10005eb0:	1d3a      	adds	r2, r7, #4
10005eb2:	f41e 7080 	ands.w	r0, lr, #256	@ 0x100
10005eb6:	920b      	str	r2, [sp, #44]	@ 0x2c
10005eb8:	f040 8198 	bne.w	100061ec <_vsnprintf+0x850>
10005ebc:	f01e 0f40 	tst.w	lr, #64	@ 0x40
10005ec0:	f000 80d8 	beq.w	10006074 <_vsnprintf+0x6d8>
10005ec4:	7839      	ldrb	r1, [r7, #0]
10005ec6:	2900      	cmp	r1, #0
10005ec8:	f040 80ea 	bne.w	100060a0 <_vsnprintf+0x704>
10005ecc:	f02e 0e10 	bic.w	lr, lr, #16
10005ed0:	f1bc 0f00 	cmp.w	ip, #0
10005ed4:	f000 80e4 	beq.w	100060a0 <_vsnprintf+0x704>
10005ed8:	4608      	mov	r0, r1
10005eda:	aa14      	add	r2, sp, #80	@ 0x50
10005edc:	e9cd 4e05 	strd	r4, lr, [sp, #20]
10005ee0:	e9cd 3503 	strd	r3, r5, [sp, #12]
10005ee4:	9001      	str	r0, [sp, #4]
10005ee6:	2300      	movs	r3, #0
10005ee8:	9200      	str	r2, [sp, #0]
10005eea:	9302      	str	r3, [sp, #8]
10005eec:	4652      	mov	r2, sl
10005eee:	e9dd 1309 	ldrd	r1, r3, [sp, #36]	@ 0x24
10005ef2:	4640      	mov	r0, r8
10005ef4:	f7fe ff3e 	bl	10004d74 <_ntoa_format>
10005ef8:	9f0b      	ldr	r7, [sp, #44]	@ 0x2c
10005efa:	4682      	mov	sl, r0
10005efc:	e56e      	b.n	100059dc <_vsnprintf+0x40>
10005efe:	4655      	mov	r5, sl
10005f00:	455c      	cmp	r4, fp
10005f02:	f67f aed0 	bls.w	10005ca6 <_vsnprintf+0x30a>
10005f06:	461f      	mov	r7, r3
10005f08:	44a2      	add	sl, r4
10005f0a:	ebaa 0a0b 	sub.w	sl, sl, fp
10005f0e:	e9dd 4609 	ldrd	r4, r6, [sp, #36]	@ 0x24
10005f12:	462a      	mov	r2, r5
10005f14:	4633      	mov	r3, r6
10005f16:	4621      	mov	r1, r4
10005f18:	2020      	movs	r0, #32
10005f1a:	3501      	adds	r5, #1
10005f1c:	47c0      	blx	r8
10005f1e:	4555      	cmp	r5, sl
10005f20:	d1f7      	bne.n	10005f12 <_vsnprintf+0x576>
10005f22:	e55b      	b.n	100059dc <_vsnprintf+0x40>
10005f24:	f899 0002 	ldrb.w	r0, [r9, #2]
10005f28:	f042 02c0 	orr.w	r2, r2, #192	@ 0xc0
10005f2c:	f109 0303 	add.w	r3, r9, #3
10005f30:	e5ae      	b.n	10005a90 <_vsnprintf+0xf4>
10005f32:	4604      	mov	r4, r0
10005f34:	4682      	mov	sl, r0
10005f36:	e5d4      	b.n	10005ae2 <_vsnprintf+0x146>
10005f38:	f41e 7680 	ands.w	r6, lr, #256	@ 0x100
10005f3c:	f107 0b04 	add.w	fp, r7, #4
10005f40:	d163      	bne.n	1000600a <_vsnprintf+0x66e>
10005f42:	f01e 0f40 	tst.w	lr, #64	@ 0x40
10005f46:	f000 8188 	beq.w	1000625a <_vsnprintf+0x8be>
10005f4a:	783a      	ldrb	r2, [r7, #0]
10005f4c:	2a00      	cmp	r2, #0
10005f4e:	f000 8181 	beq.w	10006254 <_vsnprintf+0x8b8>
10005f52:	4613      	mov	r3, r2
10005f54:	2000      	movs	r0, #0
10005f56:	aa14      	add	r2, sp, #80	@ 0x50
10005f58:	4617      	mov	r7, r2
10005f5a:	f8df c130 	ldr.w	ip, [pc, #304]	@ 1000608c <_vsnprintf+0x6f0>
10005f5e:	f8cd a02c 	str.w	sl, [sp, #44]	@ 0x2c
10005f62:	e002      	b.n	10005f6a <_vsnprintf+0x5ce>
10005f64:	2e20      	cmp	r6, #32
10005f66:	4653      	mov	r3, sl
10005f68:	d00f      	beq.n	10005f8a <_vsnprintf+0x5ee>
10005f6a:	fbac 1a03 	umull	r1, sl, ip, r3
10005f6e:	ea4f 0ada 	mov.w	sl, sl, lsr #3
10005f72:	eb0a 018a 	add.w	r1, sl, sl, lsl #2
10005f76:	eba3 0141 	sub.w	r1, r3, r1, lsl #1
10005f7a:	3701      	adds	r7, #1
10005f7c:	3130      	adds	r1, #48	@ 0x30
10005f7e:	2b09      	cmp	r3, #9
10005f80:	f106 0601 	add.w	r6, r6, #1
10005f84:	f807 1c01 	strb.w	r1, [r7, #-1]
10005f88:	d8ec      	bhi.n	10005f64 <_vsnprintf+0x5c8>
10005f8a:	f8dd a02c 	ldr.w	sl, [sp, #44]	@ 0x2c
10005f8e:	e9cd 4e05 	strd	r4, lr, [sp, #20]
10005f92:	e9cd 6001 	strd	r6, r0, [sp, #4]
10005f96:	9504      	str	r5, [sp, #16]
10005f98:	230a      	movs	r3, #10
10005f9a:	9200      	str	r2, [sp, #0]
10005f9c:	9303      	str	r3, [sp, #12]
10005f9e:	4652      	mov	r2, sl
10005fa0:	e9dd 1309 	ldrd	r1, r3, [sp, #36]	@ 0x24
10005fa4:	4640      	mov	r0, r8
10005fa6:	f7fe fee5 	bl	10004d74 <_ntoa_format>
10005faa:	465f      	mov	r7, fp
10005fac:	4682      	mov	sl, r0
10005fae:	e515      	b.n	100059dc <_vsnprintf+0x40>
10005fb0:	2c01      	cmp	r4, #1
10005fb2:	d96d      	bls.n	10006090 <_vsnprintf+0x6f4>
10005fb4:	f10a 36ff 	add.w	r6, sl, #4294967295	@ 0xffffffff
10005fb8:	4426      	add	r6, r4
10005fba:	4655      	mov	r5, sl
10005fbc:	e9cd 7a0b 	strd	r7, sl, [sp, #44]	@ 0x2c
10005fc0:	e9dd 7a09 	ldrd	r7, sl, [sp, #36]	@ 0x24
10005fc4:	462a      	mov	r2, r5
10005fc6:	4653      	mov	r3, sl
10005fc8:	4639      	mov	r1, r7
10005fca:	2020      	movs	r0, #32
10005fcc:	3501      	adds	r5, #1
10005fce:	47c0      	blx	r8
10005fd0:	42b5      	cmp	r5, r6
10005fd2:	d1f7      	bne.n	10005fc4 <_vsnprintf+0x628>
10005fd4:	e9dd 7a0b 	ldrd	r7, sl, [sp, #44]	@ 0x2c
10005fd8:	e9dd 1309 	ldrd	r1, r3, [sp, #36]	@ 0x24
10005fdc:	7838      	ldrb	r0, [r7, #0]
10005fde:	462a      	mov	r2, r5
10005fe0:	47c0      	blx	r8
10005fe2:	465f      	mov	r7, fp
10005fe4:	44a2      	add	sl, r4
10005fe6:	e4f9      	b.n	100059dc <_vsnprintf+0x40>
10005fe8:	2878      	cmp	r0, #120	@ 0x78
10005fea:	d035      	beq.n	10006058 <_vsnprintf+0x6bc>
10005fec:	230a      	movs	r3, #10
10005fee:	f022 0210 	bic.w	r2, r2, #16
10005ff2:	930b      	str	r3, [sp, #44]	@ 0x2c
10005ff4:	e752      	b.n	10005e9c <_vsnprintf+0x500>
10005ff6:	2858      	cmp	r0, #88	@ 0x58
10005ff8:	d142      	bne.n	10006080 <_vsnprintf+0x6e4>
10005ffa:	2310      	movs	r3, #16
10005ffc:	f042 0220 	orr.w	r2, r2, #32
10006000:	930b      	str	r3, [sp, #44]	@ 0x2c
10006002:	e74b      	b.n	10005e9c <_vsnprintf+0x500>
10006004:	f022 0e0c 	bic.w	lr, r2, #12
10006008:	e74e      	b.n	10005ea8 <_vsnprintf+0x50c>
1000600a:	683e      	ldr	r6, [r7, #0]
1000600c:	2e00      	cmp	r6, #0
1000600e:	f340 8131 	ble.w	10006274 <_vsnprintf+0x8d8>
10006012:	4601      	mov	r1, r0
10006014:	aa14      	add	r2, sp, #80	@ 0x50
10006016:	4617      	mov	r7, r2
10006018:	f8df c070 	ldr.w	ip, [pc, #112]	@ 1000608c <_vsnprintf+0x6f0>
1000601c:	f8cd a02c 	str.w	sl, [sp, #44]	@ 0x2c
10006020:	e002      	b.n	10006028 <_vsnprintf+0x68c>
10006022:	2820      	cmp	r0, #32
10006024:	4656      	mov	r6, sl
10006026:	d00f      	beq.n	10006048 <_vsnprintf+0x6ac>
10006028:	fbac 3a06 	umull	r3, sl, ip, r6
1000602c:	ea4f 0ada 	mov.w	sl, sl, lsr #3
10006030:	eb0a 038a 	add.w	r3, sl, sl, lsl #2
10006034:	eba6 0343 	sub.w	r3, r6, r3, lsl #1
10006038:	3701      	adds	r7, #1
1000603a:	3330      	adds	r3, #48	@ 0x30
1000603c:	2e09      	cmp	r6, #9
1000603e:	f100 0001 	add.w	r0, r0, #1
10006042:	f807 3c01 	strb.w	r3, [r7, #-1]
10006046:	d8ec      	bhi.n	10006022 <_vsnprintf+0x686>
10006048:	f8dd a02c 	ldr.w	sl, [sp, #44]	@ 0x2c
1000604c:	e9cd 4e05 	strd	r4, lr, [sp, #20]
10006050:	e9cd 0101 	strd	r0, r1, [sp, #4]
10006054:	9504      	str	r5, [sp, #16]
10006056:	e79f      	b.n	10005f98 <_vsnprintf+0x5fc>
10006058:	2310      	movs	r3, #16
1000605a:	930b      	str	r3, [sp, #44]	@ 0x2c
1000605c:	e71e      	b.n	10005e9c <_vsnprintf+0x500>
1000605e:	ea51 0206 	orrs.w	r2, r1, r6
10006062:	f040 812d 	bne.w	100062c0 <_vsnprintf+0x924>
10006066:	2b00      	cmp	r3, #0
10006068:	f040 80f0 	bne.w	1000624c <_vsnprintf+0x8b0>
1000606c:	4619      	mov	r1, r3
1000606e:	461e      	mov	r6, r3
10006070:	4618      	mov	r0, r3
10006072:	e671      	b.n	10005d58 <_vsnprintf+0x3bc>
10006074:	f01e 0f80 	tst.w	lr, #128	@ 0x80
10006078:	bf14      	ite	ne
1000607a:	8839      	ldrhne	r1, [r7, #0]
1000607c:	6839      	ldreq	r1, [r7, #0]
1000607e:	e722      	b.n	10005ec6 <_vsnprintf+0x52a>
10006080:	2862      	cmp	r0, #98	@ 0x62
10006082:	f040 810a 	bne.w	1000629a <_vsnprintf+0x8fe>
10006086:	2302      	movs	r3, #2
10006088:	930b      	str	r3, [sp, #44]	@ 0x2c
1000608a:	e707      	b.n	10005e9c <_vsnprintf+0x500>
1000608c:	cccccccd 	.word	0xcccccccd
10006090:	4652      	mov	r2, sl
10006092:	e9dd 1309 	ldrd	r1, r3, [sp, #36]	@ 0x24
10006096:	7838      	ldrb	r0, [r7, #0]
10006098:	47c0      	blx	r8
1000609a:	465f      	mov	r7, fp
1000609c:	46aa      	mov	sl, r5
1000609e:	e49d      	b.n	100059dc <_vsnprintf+0x40>
100060a0:	aa14      	add	r2, sp, #80	@ 0x50
100060a2:	4616      	mov	r6, r2
100060a4:	f3ce 1b40 	ubfx	fp, lr, #5, #1
100060a8:	f8cd a030 	str.w	sl, [sp, #48]	@ 0x30
100060ac:	e00a      	b.n	100060c4 <_vsnprintf+0x728>
100060ae:	3730      	adds	r7, #48	@ 0x30
100060b0:	4299      	cmp	r1, r3
100060b2:	7037      	strb	r7, [r6, #0]
100060b4:	f100 0001 	add.w	r0, r0, #1
100060b8:	f106 0601 	add.w	r6, r6, #1
100060bc:	d311      	bcc.n	100060e2 <_vsnprintf+0x746>
100060be:	2820      	cmp	r0, #32
100060c0:	4661      	mov	r1, ip
100060c2:	d00e      	beq.n	100060e2 <_vsnprintf+0x746>
100060c4:	fbb1 fcf3 	udiv	ip, r1, r3
100060c8:	fb03 171c 	mls	r7, r3, ip, r1
100060cc:	2f09      	cmp	r7, #9
100060ce:	d9ee      	bls.n	100060ae <_vsnprintf+0x712>
100060d0:	f1bb 0f00 	cmp.w	fp, #0
100060d4:	bf14      	ite	ne
100060d6:	f04f 0a37 	movne.w	sl, #55	@ 0x37
100060da:	f04f 0a57 	moveq.w	sl, #87	@ 0x57
100060de:	4457      	add	r7, sl
100060e0:	e7e6      	b.n	100060b0 <_vsnprintf+0x714>
100060e2:	f8dd a030 	ldr.w	sl, [sp, #48]	@ 0x30
100060e6:	e6f9      	b.n	10005edc <_vsnprintf+0x540>
100060e8:	3707      	adds	r7, #7
100060ea:	f027 0707 	bic.w	r7, r7, #7
100060ee:	687e      	ldr	r6, [r7, #4]
100060f0:	f857 2b08 	ldr.w	r2, [r7], #8
100060f4:	f04f 0b00 	mov.w	fp, #0
100060f8:	920c      	str	r2, [sp, #48]	@ 0x30
100060fa:	4332      	orrs	r2, r6
100060fc:	d13d      	bne.n	1000617a <_vsnprintf+0x7de>
100060fe:	f02e 0e10 	bic.w	lr, lr, #16
10006102:	f1bc 0f00 	cmp.w	ip, #0
10006106:	d038      	beq.n	1000617a <_vsnprintf+0x7de>
10006108:	aa14      	add	r2, sp, #80	@ 0x50
1000610a:	e9cd 2b00 	strd	r2, fp, [sp]
1000610e:	e9cd 4e05 	strd	r4, lr, [sp, #20]
10006112:	4652      	mov	r2, sl
10006114:	e9cd 3503 	strd	r3, r5, [sp, #12]
10006118:	e51c      	b.n	10005b54 <_vsnprintf+0x1b8>
1000611a:	455c      	cmp	r4, fp
1000611c:	bf98      	it	ls
1000611e:	f10b 0b01 	addls.w	fp, fp, #1
10006122:	f67f ada5 	bls.w	10005c70 <_vsnprintf+0x2d4>
10006126:	f44f 6780 	mov.w	r7, #1024	@ 0x400
1000612a:	e9cd 640b 	strd	r6, r4, [sp, #44]	@ 0x2c
1000612e:	461e      	mov	r6, r3
10006130:	eb04 020a 	add.w	r2, r4, sl
10006134:	eba2 0b0b 	sub.w	fp, r2, fp
10006138:	950d      	str	r5, [sp, #52]	@ 0x34
1000613a:	e9dd 4509 	ldrd	r4, r5, [sp, #36]	@ 0x24
1000613e:	4652      	mov	r2, sl
10006140:	462b      	mov	r3, r5
10006142:	4621      	mov	r1, r4
10006144:	2020      	movs	r0, #32
10006146:	f10a 0a01 	add.w	sl, sl, #1
1000614a:	47c0      	blx	r8
1000614c:	45da      	cmp	sl, fp
1000614e:	d1f6      	bne.n	1000613e <_vsnprintf+0x7a2>
10006150:	e9dd 450c 	ldrd	r4, r5, [sp, #48]	@ 0x30
10006154:	4633      	mov	r3, r6
10006156:	9e0b      	ldr	r6, [sp, #44]	@ 0x2c
10006158:	7830      	ldrb	r0, [r6, #0]
1000615a:	2800      	cmp	r0, #0
1000615c:	f43f ada3 	beq.w	10005ca6 <_vsnprintf+0x30a>
10006160:	f104 0b01 	add.w	fp, r4, #1
10006164:	2f00      	cmp	r7, #0
10006166:	f43f ae7b 	beq.w	10005e60 <_vsnprintf+0x4c4>
1000616a:	2700      	movs	r7, #0
1000616c:	e580      	b.n	10005c70 <_vsnprintf+0x2d4>
1000616e:	455c      	cmp	r4, fp
10006170:	bf98      	it	ls
10006172:	f10b 0b01 	addls.w	fp, fp, #1
10006176:	d8d8      	bhi.n	1000612a <_vsnprintf+0x78e>
10006178:	e672      	b.n	10005e60 <_vsnprintf+0x4c4>
1000617a:	e9cd 7a0d 	strd	r7, sl, [sp, #52]	@ 0x34
1000617e:	e9cd e40f 	strd	lr, r4, [sp, #60]	@ 0x3c
10006182:	e9cd 3812 	strd	r3, r8, [sp, #72]	@ 0x48
10006186:	9511      	str	r5, [sp, #68]	@ 0x44
10006188:	ac14      	add	r4, sp, #80	@ 0x50
1000618a:	f3ce 1840 	ubfx	r8, lr, #5, #1
1000618e:	f10d 0a50 	add.w	sl, sp, #80	@ 0x50
10006192:	e9dd 750b 	ldrd	r7, r5, [sp, #44]	@ 0x2c
10006196:	e00e      	b.n	100061b6 <_vsnprintf+0x81a>
10006198:	3230      	adds	r2, #48	@ 0x30
1000619a:	42bd      	cmp	r5, r7
1000619c:	f176 0600 	sbcs.w	r6, r6, #0
100061a0:	7022      	strb	r2, [r4, #0]
100061a2:	f10b 0b01 	add.w	fp, fp, #1
100061a6:	f104 0401 	add.w	r4, r4, #1
100061aa:	d314      	bcc.n	100061d6 <_vsnprintf+0x83a>
100061ac:	f1bb 0f20 	cmp.w	fp, #32
100061b0:	4605      	mov	r5, r0
100061b2:	460e      	mov	r6, r1
100061b4:	d00f      	beq.n	100061d6 <_vsnprintf+0x83a>
100061b6:	463a      	mov	r2, r7
100061b8:	2300      	movs	r3, #0
100061ba:	4628      	mov	r0, r5
100061bc:	4631      	mov	r1, r6
100061be:	f003 fa2b 	bl	10009618 <____aeabi_uldivmod_veneer>
100061c2:	b2d2      	uxtb	r2, r2
100061c4:	2a09      	cmp	r2, #9
100061c6:	d9e7      	bls.n	10006198 <_vsnprintf+0x7fc>
100061c8:	f1b8 0f00 	cmp.w	r8, #0
100061cc:	bf14      	ite	ne
100061ce:	2337      	movne	r3, #55	@ 0x37
100061d0:	2357      	moveq	r3, #87	@ 0x57
100061d2:	441a      	add	r2, r3
100061d4:	e7e1      	b.n	1000619a <_vsnprintf+0x7fe>
100061d6:	4652      	mov	r2, sl
100061d8:	e9dd e40f 	ldrd	lr, r4, [sp, #60]	@ 0x3c
100061dc:	e9dd 5311 	ldrd	r5, r3, [sp, #68]	@ 0x44
100061e0:	9f0d      	ldr	r7, [sp, #52]	@ 0x34
100061e2:	f8dd 804c 	ldr.w	r8, [sp, #76]	@ 0x4c
100061e6:	f8dd a038 	ldr.w	sl, [sp, #56]	@ 0x38
100061ea:	e78e      	b.n	1000610a <_vsnprintf+0x76e>
100061ec:	6838      	ldr	r0, [r7, #0]
100061ee:	aa14      	add	r2, sp, #80	@ 0x50
100061f0:	b920      	cbnz	r0, 100061fc <_vsnprintf+0x860>
100061f2:	f02e 0e10 	bic.w	lr, lr, #16
100061f6:	f1bc 0f00 	cmp.w	ip, #0
100061fa:	d121      	bne.n	10006240 <_vsnprintf+0x8a4>
100061fc:	4616      	mov	r6, r2
100061fe:	f3ce 1b40 	ubfx	fp, lr, #5, #1
10006202:	f8cd a030 	str.w	sl, [sp, #48]	@ 0x30
10006206:	e00a      	b.n	1000621e <_vsnprintf+0x882>
10006208:	3730      	adds	r7, #48	@ 0x30
1000620a:	4298      	cmp	r0, r3
1000620c:	7037      	strb	r7, [r6, #0]
1000620e:	f101 0101 	add.w	r1, r1, #1
10006212:	f106 0601 	add.w	r6, r6, #1
10006216:	d311      	bcc.n	1000623c <_vsnprintf+0x8a0>
10006218:	2920      	cmp	r1, #32
1000621a:	4660      	mov	r0, ip
1000621c:	d00e      	beq.n	1000623c <_vsnprintf+0x8a0>
1000621e:	fbb0 fcf3 	udiv	ip, r0, r3
10006222:	fb03 071c 	mls	r7, r3, ip, r0
10006226:	2f09      	cmp	r7, #9
10006228:	d9ee      	bls.n	10006208 <_vsnprintf+0x86c>
1000622a:	f1bb 0f00 	cmp.w	fp, #0
1000622e:	bf14      	ite	ne
10006230:	f04f 0a37 	movne.w	sl, #55	@ 0x37
10006234:	f04f 0a57 	moveq.w	sl, #87	@ 0x57
10006238:	4457      	add	r7, sl
1000623a:	e7e6      	b.n	1000620a <_vsnprintf+0x86e>
1000623c:	f8dd a030 	ldr.w	sl, [sp, #48]	@ 0x30
10006240:	e9cd 4e05 	strd	r4, lr, [sp, #20]
10006244:	e9cd 3503 	strd	r3, r5, [sp, #12]
10006248:	9101      	str	r1, [sp, #4]
1000624a:	e64c      	b.n	10005ee6 <_vsnprintf+0x54a>
1000624c:	2000      	movs	r0, #0
1000624e:	aa14      	add	r2, sp, #80	@ 0x50
10006250:	4683      	mov	fp, r0
10006252:	e5c3      	b.n	10005ddc <_vsnprintf+0x440>
10006254:	b9db      	cbnz	r3, 1000628e <_vsnprintf+0x8f2>
10006256:	4618      	mov	r0, r3
10006258:	e67d      	b.n	10005f56 <_vsnprintf+0x5ba>
1000625a:	f01e 0f80 	tst.w	lr, #128	@ 0x80
1000625e:	bf14      	ite	ne
10006260:	f9b7 2000 	ldrshne.w	r2, [r7]
10006264:	683a      	ldreq	r2, [r7, #0]
10006266:	2a00      	cmp	r2, #0
10006268:	f73f ae73 	bgt.w	10005f52 <_vsnprintf+0x5b6>
1000626c:	d0f2      	beq.n	10006254 <_vsnprintf+0x8b8>
1000626e:	2001      	movs	r0, #1
10006270:	4253      	negs	r3, r2
10006272:	e670      	b.n	10005f56 <_vsnprintf+0x5ba>
10006274:	d12a      	bne.n	100062cc <_vsnprintf+0x930>
10006276:	b96b      	cbnz	r3, 10006294 <_vsnprintf+0x8f8>
10006278:	4631      	mov	r1, r6
1000627a:	e6cb      	b.n	10006014 <_vsnprintf+0x678>
1000627c:	f412 6b80 	ands.w	fp, r2, #1024	@ 0x400
10006280:	d014      	beq.n	100062ac <_vsnprintf+0x910>
10006282:	f012 0b02 	ands.w	fp, r2, #2
10006286:	d024      	beq.n	100062d2 <_vsnprintf+0x936>
10006288:	4683      	mov	fp, r0
1000628a:	4655      	mov	r5, sl
1000628c:	e638      	b.n	10005f00 <_vsnprintf+0x564>
1000628e:	2000      	movs	r0, #0
10006290:	aa14      	add	r2, sp, #80	@ 0x50
10006292:	e67c      	b.n	10005f8e <_vsnprintf+0x5f2>
10006294:	4601      	mov	r1, r0
10006296:	aa14      	add	r2, sp, #80	@ 0x50
10006298:	e6d8      	b.n	1000604c <_vsnprintf+0x6b0>
1000629a:	f022 0e10 	bic.w	lr, r2, #16
1000629e:	2864      	cmp	r0, #100	@ 0x64
100062a0:	f43f ad42 	beq.w	10005d28 <_vsnprintf+0x38c>
100062a4:	230a      	movs	r3, #10
100062a6:	4672      	mov	r2, lr
100062a8:	930b      	str	r3, [sp, #44]	@ 0x2c
100062aa:	e5f7      	b.n	10005e9c <_vsnprintf+0x500>
100062ac:	f012 0702 	ands.w	r7, r2, #2
100062b0:	f47f ae25 	bne.w	10005efe <_vsnprintf+0x562>
100062b4:	2c00      	cmp	r4, #0
100062b6:	f47f af38 	bne.w	1000612a <_vsnprintf+0x78e>
100062ba:	461f      	mov	r7, r3
100062bc:	f7ff bb8e 	b.w	100059dc <_vsnprintf+0x40>
100062c0:	4249      	negs	r1, r1
100062c2:	f04f 0001 	mov.w	r0, #1
100062c6:	eb66 0646 	sbc.w	r6, r6, r6, lsl #1
100062ca:	e545      	b.n	10005d58 <_vsnprintf+0x3bc>
100062cc:	2101      	movs	r1, #1
100062ce:	4276      	negs	r6, r6
100062d0:	e6a0      	b.n	10006014 <_vsnprintf+0x678>
100062d2:	2c00      	cmp	r4, #0
100062d4:	f47f af27 	bne.w	10006126 <_vsnprintf+0x78a>
100062d8:	461f      	mov	r7, r3
100062da:	f7ff bb7f 	b.w	100059dc <_vsnprintf+0x40>
100062de:	bf00      	nop

100062e0 <vfctprintf>:
100062e0:	468c      	mov	ip, r1
100062e2:	b510      	push	{r4, lr}
100062e4:	b084      	sub	sp, #16
100062e6:	9300      	str	r3, [sp, #0]
100062e8:	9002      	str	r0, [sp, #8]
100062ea:	4613      	mov	r3, r2
100062ec:	a902      	add	r1, sp, #8
100062ee:	f04f 32ff 	mov.w	r2, #4294967295	@ 0xffffffff
100062f2:	4803      	ldr	r0, [pc, #12]	@ (10006300 <vfctprintf+0x20>)
100062f4:	f8cd c00c 	str.w	ip, [sp, #12]
100062f8:	f7ff fb50 	bl	1000599c <_vsnprintf>
100062fc:	b004      	add	sp, #16
100062fe:	bd10      	pop	{r4, pc}
10006300:	10004f6d 	.word	0x10004f6d

10006304 <weak_raw_vprintf>:
10006304:	b510      	push	{r4, lr}
10006306:	4a09      	ldr	r2, [pc, #36]	@ (1000632c <weak_raw_vprintf+0x28>)
10006308:	b084      	sub	sp, #16
1000630a:	6814      	ldr	r4, [r2, #0]
1000630c:	b14c      	cbz	r4, 10006322 <weak_raw_vprintf+0x1e>
1000630e:	4603      	mov	r3, r0
10006310:	9100      	str	r1, [sp, #0]
10006312:	f04f 32ff 	mov.w	r2, #4294967295	@ 0xffffffff
10006316:	a903      	add	r1, sp, #12
10006318:	4805      	ldr	r0, [pc, #20]	@ (10006330 <weak_raw_vprintf+0x2c>)
1000631a:	47a0      	blx	r4
1000631c:	2001      	movs	r0, #1
1000631e:	b004      	add	sp, #16
10006320:	bd10      	pop	{r4, pc}
10006322:	f000 f983 	bl	1000662c <__wrap_puts>
10006326:	4620      	mov	r0, r4
10006328:	b004      	add	sp, #16
1000632a:	bd10      	pop	{r4, pc}
1000632c:	20002610 	.word	0x20002610
10006330:	10004f65 	.word	0x10004f65

10006334 <_exit>:
10006334:	be00      	bkpt	0x0000
10006336:	e7fd      	b.n	10006334 <_exit>

10006338 <exit>:
10006338:	b508      	push	{r3, lr}
1000633a:	f7ff fffb 	bl	10006334 <_exit>
1000633e:	bf00      	nop

10006340 <runtime_init>:
10006340:	b538      	push	{r3, r4, r5, lr}
10006342:	4c06      	ldr	r4, [pc, #24]	@ (1000635c <runtime_init+0x1c>)
10006344:	4d06      	ldr	r5, [pc, #24]	@ (10006360 <runtime_init+0x20>)
10006346:	f7fd ffbb 	bl	100042c0 <runtime_run_initializers>
1000634a:	42ac      	cmp	r4, r5
1000634c:	d204      	bcs.n	10006358 <runtime_init+0x18>
1000634e:	f854 3b04 	ldr.w	r3, [r4], #4
10006352:	4798      	blx	r3
10006354:	42ac      	cmp	r4, r5
10006356:	d3fa      	bcc.n	1000634e <runtime_init+0xe>
10006358:	bd38      	pop	{r3, r4, r5, pc}
1000635a:	bf00      	nop
1000635c:	10009680 	.word	0x10009680
10006360:	1000968c 	.word	0x1000968c

10006364 <stdio_out_chars_no_crlf>:
10006364:	6803      	ldr	r3, [r0, #0]
10006366:	4608      	mov	r0, r1
10006368:	4611      	mov	r1, r2
1000636a:	4718      	bx	r3

1000636c <stdio_out_chars_crlf>:
1000636c:	b570      	push	{r4, r5, r6, lr}
1000636e:	4606      	mov	r6, r0
10006370:	4608      	mov	r0, r1
10006372:	7d71      	ldrb	r1, [r6, #21]
10006374:	b082      	sub	sp, #8
10006376:	2900      	cmp	r1, #0
10006378:	d044      	beq.n	10006404 <stdio_out_chars_crlf+0x98>
1000637a:	2a00      	cmp	r2, #0
1000637c:	dd26      	ble.n	100063cc <stdio_out_chars_crlf+0x60>
1000637e:	7803      	ldrb	r3, [r0, #0]
10006380:	4604      	mov	r4, r0
10006382:	2b0a      	cmp	r3, #10
10006384:	d044      	beq.n	10006410 <stdio_out_chars_crlf+0xa4>
10006386:	2a01      	cmp	r2, #1
10006388:	f04f 0e00 	mov.w	lr, #0
1000638c:	d00d      	beq.n	100063aa <stdio_out_chars_crlf+0x3e>
1000638e:	4625      	mov	r5, r4
10006390:	2301      	movs	r3, #1
10006392:	f815 cf01 	ldrb.w	ip, [r5, #1]!
10006396:	4619      	mov	r1, r3
10006398:	f1bc 0f0a 	cmp.w	ip, #10
1000639c:	f103 0301 	add.w	r3, r3, #1
100063a0:	d016      	beq.n	100063d0 <stdio_out_chars_crlf+0x64>
100063a2:	429a      	cmp	r2, r3
100063a4:	dcf5      	bgt.n	10006392 <stdio_out_chars_crlf+0x26>
100063a6:	4572      	cmp	r2, lr
100063a8:	dd07      	ble.n	100063ba <stdio_out_chars_crlf+0x4e>
100063aa:	eba2 010e 	sub.w	r1, r2, lr
100063ae:	6833      	ldr	r3, [r6, #0]
100063b0:	eb04 000e 	add.w	r0, r4, lr
100063b4:	9200      	str	r2, [sp, #0]
100063b6:	4798      	blx	r3
100063b8:	9a00      	ldr	r2, [sp, #0]
100063ba:	4414      	add	r4, r2
100063bc:	f814 2c01 	ldrb.w	r2, [r4, #-1]
100063c0:	f1a2 020d 	sub.w	r2, r2, #13
100063c4:	fab2 f282 	clz	r2, r2
100063c8:	0952      	lsrs	r2, r2, #5
100063ca:	7532      	strb	r2, [r6, #20]
100063cc:	b002      	add	sp, #8
100063ce:	bd70      	pop	{r4, r5, r6, pc}
100063d0:	f815 0c01 	ldrb.w	r0, [r5, #-1]
100063d4:	280d      	cmp	r0, #13
100063d6:	d0e4      	beq.n	100063a2 <stdio_out_chars_crlf+0x36>
100063d8:	458e      	cmp	lr, r1
100063da:	eb04 000e 	add.w	r0, r4, lr
100063de:	eba1 010e 	sub.w	r1, r1, lr
100063e2:	da05      	bge.n	100063f0 <stdio_out_chars_crlf+0x84>
100063e4:	e9cd 3200 	strd	r3, r2, [sp]
100063e8:	6833      	ldr	r3, [r6, #0]
100063ea:	4798      	blx	r3
100063ec:	e9dd 3200 	ldrd	r3, r2, [sp]
100063f0:	e9cd 3200 	strd	r3, r2, [sp]
100063f4:	2102      	movs	r1, #2
100063f6:	6833      	ldr	r3, [r6, #0]
100063f8:	480c      	ldr	r0, [pc, #48]	@ (1000642c <stdio_out_chars_crlf+0xc0>)
100063fa:	4798      	blx	r3
100063fc:	9b00      	ldr	r3, [sp, #0]
100063fe:	9a01      	ldr	r2, [sp, #4]
10006400:	469e      	mov	lr, r3
10006402:	e7ce      	b.n	100063a2 <stdio_out_chars_crlf+0x36>
10006404:	4611      	mov	r1, r2
10006406:	6833      	ldr	r3, [r6, #0]
10006408:	b002      	add	sp, #8
1000640a:	e8bd 4070 	ldmia.w	sp!, {r4, r5, r6, lr}
1000640e:	4718      	bx	r3
10006410:	7d33      	ldrb	r3, [r6, #20]
10006412:	2b00      	cmp	r3, #0
10006414:	d1b7      	bne.n	10006386 <stdio_out_chars_crlf+0x1a>
10006416:	2102      	movs	r1, #2
10006418:	6833      	ldr	r3, [r6, #0]
1000641a:	4804      	ldr	r0, [pc, #16]	@ (1000642c <stdio_out_chars_crlf+0xc0>)
1000641c:	9200      	str	r2, [sp, #0]
1000641e:	4798      	blx	r3
10006420:	9a00      	ldr	r2, [sp, #0]
10006422:	2a01      	cmp	r2, #1
10006424:	d0c9      	beq.n	100063ba <stdio_out_chars_crlf+0x4e>
10006426:	f04f 0e01 	mov.w	lr, #1
1000642a:	e7b0      	b.n	1000638e <stdio_out_chars_crlf+0x22>
1000642c:	10009b80 	.word	0x10009b80

10006430 <stdio_buffered_printer>:
10006430:	b570      	push	{r4, r5, r6, lr}
10006432:	680b      	ldr	r3, [r1, #0]
10006434:	460c      	mov	r4, r1
10006436:	2b80      	cmp	r3, #128	@ 0x80
10006438:	4605      	mov	r5, r0
1000643a:	b082      	sub	sp, #8
1000643c:	d005      	beq.n	1000644a <stdio_buffered_printer+0x1a>
1000643e:	1c5a      	adds	r2, r3, #1
10006440:	4423      	add	r3, r4
10006442:	6022      	str	r2, [r4, #0]
10006444:	711d      	strb	r5, [r3, #4]
10006446:	b002      	add	sp, #8
10006448:	bd70      	pop	{r4, r5, r6, pc}
1000644a:	4b0e      	ldr	r3, [pc, #56]	@ (10006484 <stdio_buffered_printer+0x54>)
1000644c:	6818      	ldr	r0, [r3, #0]
1000644e:	b978      	cbnz	r0, 10006470 <stdio_buffered_printer+0x40>
10006450:	4603      	mov	r3, r0
10006452:	2201      	movs	r2, #1
10006454:	4423      	add	r3, r4
10006456:	6022      	str	r2, [r4, #0]
10006458:	711d      	strb	r5, [r3, #4]
1000645a:	b002      	add	sp, #8
1000645c:	bd70      	pop	{r4, r5, r6, pc}
1000645e:	6822      	ldr	r2, [r4, #0]
10006460:	1d21      	adds	r1, r4, #4
10006462:	9001      	str	r0, [sp, #4]
10006464:	f7ff ff82 	bl	1000636c <stdio_out_chars_crlf>
10006468:	9801      	ldr	r0, [sp, #4]
1000646a:	6900      	ldr	r0, [r0, #16]
1000646c:	2800      	cmp	r0, #0
1000646e:	d0ef      	beq.n	10006450 <stdio_buffered_printer+0x20>
10006470:	6803      	ldr	r3, [r0, #0]
10006472:	2b00      	cmp	r3, #0
10006474:	d0f9      	beq.n	1000646a <stdio_buffered_printer+0x3a>
10006476:	4b04      	ldr	r3, [pc, #16]	@ (10006488 <stdio_buffered_printer+0x58>)
10006478:	681b      	ldr	r3, [r3, #0]
1000647a:	2b00      	cmp	r3, #0
1000647c:	d0ef      	beq.n	1000645e <stdio_buffered_printer+0x2e>
1000647e:	4283      	cmp	r3, r0
10006480:	d1f3      	bne.n	1000646a <stdio_buffered_printer+0x3a>
10006482:	e7ec      	b.n	1000645e <stdio_buffered_printer+0x2e>
10006484:	20002204 	.word	0x20002204
10006488:	2000220c 	.word	0x2000220c

1000648c <stdio_put_string>:
1000648c:	e92d 47f0 	stmdb	sp!, {r4, r5, r6, r7, r8, r9, sl, lr}
10006490:	b082      	sub	sp, #8
10006492:	4691      	mov	r9, r2
10006494:	4698      	mov	r8, r3
10006496:	460d      	mov	r5, r1
10006498:	4607      	mov	r7, r0
1000649a:	f7fd fbe9 	bl	10003c70 <time_us_64>
1000649e:	f04f 36ff 	mov.w	r6, #4294967295	@ 0xffffffff
100064a2:	f06f 4400 	mvn.w	r4, #2147483648	@ 0x80000000
100064a6:	4a2f      	ldr	r2, [pc, #188]	@ (10006564 <stdio_put_string+0xd8>)
100064a8:	1882      	adds	r2, r0, r2
100064aa:	f141 0300 	adc.w	r3, r1, #0
100064ae:	4296      	cmp	r6, r2
100064b0:	eb74 0103 	sbcs.w	r1, r4, r3
100064b4:	bf3c      	itt	cc
100064b6:	4632      	movcc	r2, r6
100064b8:	4623      	movcc	r3, r4
100064ba:	482b      	ldr	r0, [pc, #172]	@ (10006568 <stdio_put_string+0xdc>)
100064bc:	f003 f890 	bl	100095e0 <__mutex_try_enter_block_until_veneer>
100064c0:	1c6b      	adds	r3, r5, #1
100064c2:	4682      	mov	sl, r0
100064c4:	d103      	bne.n	100064ce <stdio_put_string+0x42>
100064c6:	4638      	mov	r0, r7
100064c8:	f003 f806 	bl	100094d8 <strlen>
100064cc:	4605      	mov	r5, r0
100064ce:	4b27      	ldr	r3, [pc, #156]	@ (1000656c <stdio_put_string+0xe0>)
100064d0:	4e27      	ldr	r6, [pc, #156]	@ (10006570 <stdio_put_string+0xe4>)
100064d2:	681c      	ldr	r4, [r3, #0]
100064d4:	4b27      	ldr	r3, [pc, #156]	@ (10006574 <stdio_put_string+0xe8>)
100064d6:	f1b8 0f00 	cmp.w	r8, #0
100064da:	bf18      	it	ne
100064dc:	461e      	movne	r6, r3
100064de:	b1b4      	cbz	r4, 1000650e <stdio_put_string+0x82>
100064e0:	f1b9 0f00 	cmp.w	r9, #0
100064e4:	d11a      	bne.n	1000651c <stdio_put_string+0x90>
100064e6:	f8df 8090 	ldr.w	r8, [pc, #144]	@ 10006578 <stdio_put_string+0xec>
100064ea:	e001      	b.n	100064f0 <stdio_put_string+0x64>
100064ec:	6924      	ldr	r4, [r4, #16]
100064ee:	b174      	cbz	r4, 1000650e <stdio_put_string+0x82>
100064f0:	6823      	ldr	r3, [r4, #0]
100064f2:	2b00      	cmp	r3, #0
100064f4:	d0fa      	beq.n	100064ec <stdio_put_string+0x60>
100064f6:	f8d8 3000 	ldr.w	r3, [r8]
100064fa:	b10b      	cbz	r3, 10006500 <stdio_put_string+0x74>
100064fc:	429c      	cmp	r4, r3
100064fe:	d1f5      	bne.n	100064ec <stdio_put_string+0x60>
10006500:	4620      	mov	r0, r4
10006502:	462a      	mov	r2, r5
10006504:	4639      	mov	r1, r7
10006506:	47b0      	blx	r6
10006508:	6924      	ldr	r4, [r4, #16]
1000650a:	2c00      	cmp	r4, #0
1000650c:	d1f0      	bne.n	100064f0 <stdio_put_string+0x64>
1000650e:	f1ba 0f00 	cmp.w	sl, #0
10006512:	d11f      	bne.n	10006554 <stdio_put_string+0xc8>
10006514:	4628      	mov	r0, r5
10006516:	b002      	add	sp, #8
10006518:	e8bd 87f0 	ldmia.w	sp!, {r4, r5, r6, r7, r8, r9, sl, pc}
1000651c:	f04f 090a 	mov.w	r9, #10
10006520:	f8df 8054 	ldr.w	r8, [pc, #84]	@ 10006578 <stdio_put_string+0xec>
10006524:	e002      	b.n	1000652c <stdio_put_string+0xa0>
10006526:	6924      	ldr	r4, [r4, #16]
10006528:	2c00      	cmp	r4, #0
1000652a:	d0f0      	beq.n	1000650e <stdio_put_string+0x82>
1000652c:	6823      	ldr	r3, [r4, #0]
1000652e:	2b00      	cmp	r3, #0
10006530:	d0f9      	beq.n	10006526 <stdio_put_string+0x9a>
10006532:	f8d8 3000 	ldr.w	r3, [r8]
10006536:	b10b      	cbz	r3, 1000653c <stdio_put_string+0xb0>
10006538:	42a3      	cmp	r3, r4
1000653a:	d1f4      	bne.n	10006526 <stdio_put_string+0x9a>
1000653c:	462a      	mov	r2, r5
1000653e:	4639      	mov	r1, r7
10006540:	4620      	mov	r0, r4
10006542:	47b0      	blx	r6
10006544:	2201      	movs	r2, #1
10006546:	4620      	mov	r0, r4
10006548:	f10d 0107 	add.w	r1, sp, #7
1000654c:	f88d 9007 	strb.w	r9, [sp, #7]
10006550:	47b0      	blx	r6
10006552:	e7e8      	b.n	10006526 <stdio_put_string+0x9a>
10006554:	4804      	ldr	r0, [pc, #16]	@ (10006568 <stdio_put_string+0xdc>)
10006556:	f003 f85b 	bl	10009610 <__mutex_exit_veneer>
1000655a:	4628      	mov	r0, r5
1000655c:	b002      	add	sp, #8
1000655e:	e8bd 87f0 	ldmia.w	sp!, {r4, r5, r6, r7, r8, r9, sl, pc}
10006562:	bf00      	nop
10006564:	000f4240 	.word	0x000f4240
10006568:	2000176c 	.word	0x2000176c
1000656c:	20002204 	.word	0x20002204
10006570:	10006365 	.word	0x10006365
10006574:	1000636d 	.word	0x1000636d
10006578:	2000220c 	.word	0x2000220c

1000657c <stdio_set_driver_enabled>:
1000657c:	4a08      	ldr	r2, [pc, #32]	@ (100065a0 <stdio_set_driver_enabled+0x24>)
1000657e:	6813      	ldr	r3, [r2, #0]
10006580:	b923      	cbnz	r3, 1000658c <stdio_set_driver_enabled+0x10>
10006582:	e00a      	b.n	1000659a <stdio_set_driver_enabled+0x1e>
10006584:	f103 0210 	add.w	r2, r3, #16
10006588:	691b      	ldr	r3, [r3, #16]
1000658a:	b133      	cbz	r3, 1000659a <stdio_set_driver_enabled+0x1e>
1000658c:	4298      	cmp	r0, r3
1000658e:	d1f9      	bne.n	10006584 <stdio_set_driver_enabled+0x8>
10006590:	b929      	cbnz	r1, 1000659e <stdio_set_driver_enabled+0x22>
10006592:	6903      	ldr	r3, [r0, #16]
10006594:	6013      	str	r3, [r2, #0]
10006596:	6101      	str	r1, [r0, #16]
10006598:	4770      	bx	lr
1000659a:	b101      	cbz	r1, 1000659e <stdio_set_driver_enabled+0x22>
1000659c:	6010      	str	r0, [r2, #0]
1000659e:	4770      	bx	lr
100065a0:	20002204 	.word	0x20002204

100065a4 <stdio_init_all>:
100065a4:	f000 baea 	b.w	10006b7c <stdio_usb_init>

100065a8 <__wrap_putchar>:
100065a8:	b5f0      	push	{r4, r5, r6, r7, lr}
100065aa:	b083      	sub	sp, #12
100065ac:	4606      	mov	r6, r0
100065ae:	f88d 0007 	strb.w	r0, [sp, #7]
100065b2:	f7fd fb5d 	bl	10003c70 <time_us_64>
100065b6:	f04f 35ff 	mov.w	r5, #4294967295	@ 0xffffffff
100065ba:	f06f 4400 	mvn.w	r4, #2147483648	@ 0x80000000
100065be:	4a17      	ldr	r2, [pc, #92]	@ (1000661c <__wrap_putchar+0x74>)
100065c0:	1882      	adds	r2, r0, r2
100065c2:	f141 0300 	adc.w	r3, r1, #0
100065c6:	4295      	cmp	r5, r2
100065c8:	eb74 0103 	sbcs.w	r1, r4, r3
100065cc:	bf3c      	itt	cc
100065ce:	4623      	movcc	r3, r4
100065d0:	462a      	movcc	r2, r5
100065d2:	4813      	ldr	r0, [pc, #76]	@ (10006620 <__wrap_putchar+0x78>)
100065d4:	f003 f804 	bl	100095e0 <__mutex_try_enter_block_until_veneer>
100065d8:	4b12      	ldr	r3, [pc, #72]	@ (10006624 <__wrap_putchar+0x7c>)
100065da:	4607      	mov	r7, r0
100065dc:	681c      	ldr	r4, [r3, #0]
100065de:	b19c      	cbz	r4, 10006608 <__wrap_putchar+0x60>
100065e0:	4d11      	ldr	r5, [pc, #68]	@ (10006628 <__wrap_putchar+0x80>)
100065e2:	e001      	b.n	100065e8 <__wrap_putchar+0x40>
100065e4:	6924      	ldr	r4, [r4, #16]
100065e6:	b17c      	cbz	r4, 10006608 <__wrap_putchar+0x60>
100065e8:	6823      	ldr	r3, [r4, #0]
100065ea:	2b00      	cmp	r3, #0
100065ec:	d0fa      	beq.n	100065e4 <__wrap_putchar+0x3c>
100065ee:	682b      	ldr	r3, [r5, #0]
100065f0:	b10b      	cbz	r3, 100065f6 <__wrap_putchar+0x4e>
100065f2:	429c      	cmp	r4, r3
100065f4:	d1f6      	bne.n	100065e4 <__wrap_putchar+0x3c>
100065f6:	4620      	mov	r0, r4
100065f8:	2201      	movs	r2, #1
100065fa:	f10d 0107 	add.w	r1, sp, #7
100065fe:	f7ff feb5 	bl	1000636c <stdio_out_chars_crlf>
10006602:	6924      	ldr	r4, [r4, #16]
10006604:	2c00      	cmp	r4, #0
10006606:	d1ef      	bne.n	100065e8 <__wrap_putchar+0x40>
10006608:	b917      	cbnz	r7, 10006610 <__wrap_putchar+0x68>
1000660a:	4630      	mov	r0, r6
1000660c:	b003      	add	sp, #12
1000660e:	bdf0      	pop	{r4, r5, r6, r7, pc}
10006610:	4803      	ldr	r0, [pc, #12]	@ (10006620 <__wrap_putchar+0x78>)
10006612:	f002 fffd 	bl	10009610 <__mutex_exit_veneer>
10006616:	4630      	mov	r0, r6
10006618:	b003      	add	sp, #12
1000661a:	bdf0      	pop	{r4, r5, r6, r7, pc}
1000661c:	000f4240 	.word	0x000f4240
10006620:	2000176c 	.word	0x2000176c
10006624:	20002204 	.word	0x20002204
10006628:	2000220c 	.word	0x2000220c

1000662c <__wrap_puts>:
1000662c:	b538      	push	{r3, r4, r5, lr}
1000662e:	4604      	mov	r4, r0
10006630:	f002 ff52 	bl	100094d8 <strlen>
10006634:	2301      	movs	r3, #1
10006636:	4605      	mov	r5, r0
10006638:	461a      	mov	r2, r3
1000663a:	4620      	mov	r0, r4
1000663c:	4629      	mov	r1, r5
1000663e:	f7ff ff25 	bl	1000648c <stdio_put_string>
10006642:	4b08      	ldr	r3, [pc, #32]	@ (10006664 <__wrap_puts+0x38>)
10006644:	681c      	ldr	r4, [r3, #0]
10006646:	b12c      	cbz	r4, 10006654 <__wrap_puts+0x28>
10006648:	6863      	ldr	r3, [r4, #4]
1000664a:	b12b      	cbz	r3, 10006658 <__wrap_puts+0x2c>
1000664c:	4798      	blx	r3
1000664e:	6924      	ldr	r4, [r4, #16]
10006650:	2c00      	cmp	r4, #0
10006652:	d1f9      	bne.n	10006648 <__wrap_puts+0x1c>
10006654:	4628      	mov	r0, r5
10006656:	bd38      	pop	{r3, r4, r5, pc}
10006658:	6924      	ldr	r4, [r4, #16]
1000665a:	2c00      	cmp	r4, #0
1000665c:	d1f4      	bne.n	10006648 <__wrap_puts+0x1c>
1000665e:	4628      	mov	r0, r5
10006660:	bd38      	pop	{r3, r4, r5, pc}
10006662:	bf00      	nop
10006664:	20002204 	.word	0x20002204

10006668 <__wrap_vprintf>:
10006668:	e92d 41f0 	stmdb	sp!, {r4, r5, r6, r7, r8, lr}
1000666c:	b0a2      	sub	sp, #136	@ 0x88
1000666e:	460e      	mov	r6, r1
10006670:	4605      	mov	r5, r0
10006672:	f7fd fafd 	bl	10003c70 <time_us_64>
10006676:	f04f 3cff 	mov.w	ip, #4294967295	@ 0xffffffff
1000667a:	f06f 4400 	mvn.w	r4, #2147483648	@ 0x80000000
1000667e:	4a25      	ldr	r2, [pc, #148]	@ (10006714 <__wrap_vprintf+0xac>)
10006680:	1882      	adds	r2, r0, r2
10006682:	f141 0300 	adc.w	r3, r1, #0
10006686:	4594      	cmp	ip, r2
10006688:	eb74 0103 	sbcs.w	r1, r4, r3
1000668c:	bf3c      	itt	cc
1000668e:	4623      	movcc	r3, r4
10006690:	4662      	movcc	r2, ip
10006692:	4821      	ldr	r0, [pc, #132]	@ (10006718 <__wrap_vprintf+0xb0>)
10006694:	f002 ffa4 	bl	100095e0 <__mutex_try_enter_block_until_veneer>
10006698:	2400      	movs	r4, #0
1000669a:	4633      	mov	r3, r6
1000669c:	4607      	mov	r7, r0
1000669e:	462a      	mov	r2, r5
100066a0:	481e      	ldr	r0, [pc, #120]	@ (1000671c <__wrap_vprintf+0xb4>)
100066a2:	a901      	add	r1, sp, #4
100066a4:	9401      	str	r4, [sp, #4]
100066a6:	f7ff fe1b 	bl	100062e0 <vfctprintf>
100066aa:	4e1d      	ldr	r6, [pc, #116]	@ (10006720 <__wrap_vprintf+0xb8>)
100066ac:	9b01      	ldr	r3, [sp, #4]
100066ae:	4680      	mov	r8, r0
100066b0:	6834      	ldr	r4, [r6, #0]
100066b2:	b1bb      	cbz	r3, 100066e4 <__wrap_vprintf+0x7c>
100066b4:	2c00      	cmp	r4, #0
100066b6:	d02a      	beq.n	1000670e <__wrap_vprintf+0xa6>
100066b8:	4d1a      	ldr	r5, [pc, #104]	@ (10006724 <__wrap_vprintf+0xbc>)
100066ba:	e001      	b.n	100066c0 <__wrap_vprintf+0x58>
100066bc:	6924      	ldr	r4, [r4, #16]
100066be:	b174      	cbz	r4, 100066de <__wrap_vprintf+0x76>
100066c0:	6823      	ldr	r3, [r4, #0]
100066c2:	2b00      	cmp	r3, #0
100066c4:	d0fa      	beq.n	100066bc <__wrap_vprintf+0x54>
100066c6:	682b      	ldr	r3, [r5, #0]
100066c8:	b10b      	cbz	r3, 100066ce <__wrap_vprintf+0x66>
100066ca:	42a3      	cmp	r3, r4
100066cc:	d1f6      	bne.n	100066bc <__wrap_vprintf+0x54>
100066ce:	4620      	mov	r0, r4
100066d0:	9a01      	ldr	r2, [sp, #4]
100066d2:	a902      	add	r1, sp, #8
100066d4:	f7ff fe4a 	bl	1000636c <stdio_out_chars_crlf>
100066d8:	6924      	ldr	r4, [r4, #16]
100066da:	2c00      	cmp	r4, #0
100066dc:	d1f0      	bne.n	100066c0 <__wrap_vprintf+0x58>
100066de:	4623      	mov	r3, r4
100066e0:	6834      	ldr	r4, [r6, #0]
100066e2:	9301      	str	r3, [sp, #4]
100066e4:	b12c      	cbz	r4, 100066f2 <__wrap_vprintf+0x8a>
100066e6:	6863      	ldr	r3, [r4, #4]
100066e8:	b143      	cbz	r3, 100066fc <__wrap_vprintf+0x94>
100066ea:	4798      	blx	r3
100066ec:	6924      	ldr	r4, [r4, #16]
100066ee:	2c00      	cmp	r4, #0
100066f0:	d1f9      	bne.n	100066e6 <__wrap_vprintf+0x7e>
100066f2:	b92f      	cbnz	r7, 10006700 <__wrap_vprintf+0x98>
100066f4:	4640      	mov	r0, r8
100066f6:	b022      	add	sp, #136	@ 0x88
100066f8:	e8bd 81f0 	ldmia.w	sp!, {r4, r5, r6, r7, r8, pc}
100066fc:	6924      	ldr	r4, [r4, #16]
100066fe:	e7f1      	b.n	100066e4 <__wrap_vprintf+0x7c>
10006700:	4805      	ldr	r0, [pc, #20]	@ (10006718 <__wrap_vprintf+0xb0>)
10006702:	f002 ff85 	bl	10009610 <__mutex_exit_veneer>
10006706:	4640      	mov	r0, r8
10006708:	b022      	add	sp, #136	@ 0x88
1000670a:	e8bd 81f0 	ldmia.w	sp!, {r4, r5, r6, r7, r8, pc}
1000670e:	9401      	str	r4, [sp, #4]
10006710:	e7ef      	b.n	100066f2 <__wrap_vprintf+0x8a>
10006712:	bf00      	nop
10006714:	000f4240 	.word	0x000f4240
10006718:	2000176c 	.word	0x2000176c
1000671c:	10006431 	.word	0x10006431
10006720:	20002204 	.word	0x20002204
10006724:	2000220c 	.word	0x2000220c

10006728 <__wrap_printf>:
10006728:	b40f      	push	{r0, r1, r2, r3}
1000672a:	b500      	push	{lr}
1000672c:	b083      	sub	sp, #12
1000672e:	a904      	add	r1, sp, #16
10006730:	f851 0b04 	ldr.w	r0, [r1], #4
10006734:	9101      	str	r1, [sp, #4]
10006736:	f7ff ff97 	bl	10006668 <__wrap_vprintf>
1000673a:	b003      	add	sp, #12
1000673c:	f85d eb04 	ldr.w	lr, [sp], #4
10006740:	b004      	add	sp, #16
10006742:	4770      	bx	lr

10006744 <resetd_init>:
10006744:	4770      	bx	lr
10006746:	bf00      	nop

10006748 <resetd_reset>:
10006748:	2200      	movs	r2, #0
1000674a:	4b01      	ldr	r3, [pc, #4]	@ (10006750 <resetd_reset+0x8>)
1000674c:	701a      	strb	r2, [r3, #0]
1000674e:	4770      	bx	lr
10006750:	200026b8 	.word	0x200026b8

10006754 <resetd_open>:
10006754:	794b      	ldrb	r3, [r1, #5]
10006756:	2bff      	cmp	r3, #255	@ 0xff
10006758:	d10b      	bne.n	10006772 <resetd_open+0x1e>
1000675a:	798b      	ldrb	r3, [r1, #6]
1000675c:	b94b      	cbnz	r3, 10006772 <resetd_open+0x1e>
1000675e:	79cb      	ldrb	r3, [r1, #7]
10006760:	2b01      	cmp	r3, #1
10006762:	d106      	bne.n	10006772 <resetd_open+0x1e>
10006764:	2a08      	cmp	r2, #8
10006766:	d904      	bls.n	10006772 <resetd_open+0x1e>
10006768:	4b03      	ldr	r3, [pc, #12]	@ (10006778 <resetd_open+0x24>)
1000676a:	788a      	ldrb	r2, [r1, #2]
1000676c:	2009      	movs	r0, #9
1000676e:	701a      	strb	r2, [r3, #0]
10006770:	4770      	bx	lr
10006772:	2000      	movs	r0, #0
10006774:	4770      	bx	lr
10006776:	bf00      	nop
10006778:	200026b8 	.word	0x200026b8

1000677c <resetd_xfer_cb>:
1000677c:	2001      	movs	r0, #1
1000677e:	4770      	bx	lr

10006780 <resetd_control_xfer_cb>:
10006780:	2901      	cmp	r1, #1
10006782:	d107      	bne.n	10006794 <resetd_control_xfer_cb+0x14>
10006784:	b508      	push	{r3, lr}
10006786:	4b11      	ldr	r3, [pc, #68]	@ (100067cc <resetd_control_xfer_cb+0x4c>)
10006788:	8891      	ldrh	r1, [r2, #4]
1000678a:	781b      	ldrb	r3, [r3, #0]
1000678c:	4299      	cmp	r1, r3
1000678e:	d003      	beq.n	10006798 <resetd_control_xfer_cb+0x18>
10006790:	2000      	movs	r0, #0
10006792:	bd08      	pop	{r3, pc}
10006794:	2001      	movs	r0, #1
10006796:	4770      	bx	lr
10006798:	7853      	ldrb	r3, [r2, #1]
1000679a:	2b01      	cmp	r3, #1
1000679c:	d008      	beq.n	100067b0 <resetd_control_xfer_cb+0x30>
1000679e:	2b02      	cmp	r3, #2
100067a0:	d1f6      	bne.n	10006790 <resetd_control_xfer_cb+0x10>
100067a2:	2100      	movs	r1, #0
100067a4:	2264      	movs	r2, #100	@ 0x64
100067a6:	4608      	mov	r0, r1
100067a8:	f7fd fcbc 	bl	10004124 <watchdog_reboot>
100067ac:	2001      	movs	r0, #1
100067ae:	bd08      	pop	{r3, pc}
100067b0:	8851      	ldrh	r1, [r2, #2]
100067b2:	05cb      	lsls	r3, r1, #23
100067b4:	bf48      	it	mi
100067b6:	0a48      	lsrmi	r0, r1, #9
100067b8:	f3c1 2240 	ubfx	r2, r1, #9, #1
100067bc:	bf58      	it	pl
100067be:	f04f 30ff 	movpl.w	r0, #4294967295	@ 0xffffffff
100067c2:	f001 017f 	and.w	r1, r1, #127	@ 0x7f
100067c6:	f7fd fd37 	bl	10004238 <rom_reset_usb_boot_extra>
100067ca:	bf00      	nop
100067cc:	200026b8 	.word	0x200026b8

100067d0 <tud_descriptor_bos_cb>:
100067d0:	4800      	ldr	r0, [pc, #0]	@ (100067d4 <tud_descriptor_bos_cb+0x4>)
100067d2:	4770      	bx	lr
100067d4:	10009c4c 	.word	0x10009c4c

100067d8 <tud_vendor_control_xfer_cb>:
100067d8:	2901      	cmp	r1, #1
100067da:	d107      	bne.n	100067ec <tud_vendor_control_xfer_cb+0x14>
100067dc:	7853      	ldrb	r3, [r2, #1]
100067de:	2b01      	cmp	r3, #1
100067e0:	d102      	bne.n	100067e8 <tud_vendor_control_xfer_cb+0x10>
100067e2:	8893      	ldrh	r3, [r2, #4]
100067e4:	2b07      	cmp	r3, #7
100067e6:	d003      	beq.n	100067f0 <tud_vendor_control_xfer_cb+0x18>
100067e8:	2000      	movs	r0, #0
100067ea:	4770      	bx	lr
100067ec:	2001      	movs	r0, #1
100067ee:	4770      	bx	lr
100067f0:	4611      	mov	r1, r2
100067f2:	23a6      	movs	r3, #166	@ 0xa6
100067f4:	4a01      	ldr	r2, [pc, #4]	@ (100067fc <tud_vendor_control_xfer_cb+0x24>)
100067f6:	f001 ba9f 	b.w	10007d38 <tud_control_xfer>
100067fa:	bf00      	nop
100067fc:	10009ba4 	.word	0x10009ba4

10006800 <usbd_app_driver_get_cb>:
10006800:	4603      	mov	r3, r0
10006802:	2201      	movs	r2, #1
10006804:	4801      	ldr	r0, [pc, #4]	@ (1000680c <usbd_app_driver_get_cb+0xc>)
10006806:	701a      	strb	r2, [r3, #0]
10006808:	4770      	bx	lr
1000680a:	bf00      	nop
1000680c:	10009b84 	.word	0x10009b84

10006810 <tud_cdc_line_coding_cb>:
10006810:	b508      	push	{r3, lr}
10006812:	680b      	ldr	r3, [r1, #0]
10006814:	f5b3 6f96 	cmp.w	r3, #1200	@ 0x4b0
10006818:	d000      	beq.n	1000681c <tud_cdc_line_coding_cb+0xc>
1000681a:	bd08      	pop	{r3, pc}
1000681c:	2200      	movs	r2, #0
1000681e:	f04f 30ff 	mov.w	r0, #4294967295	@ 0xffffffff
10006822:	4611      	mov	r1, r2
10006824:	f7fd fd08 	bl	10004238 <rom_reset_usb_boot_extra>

10006828 <stdio_usb_set_chars_available_callback>:
10006828:	4a02      	ldr	r2, [pc, #8]	@ (10006834 <stdio_usb_set_chars_available_callback+0xc>)
1000682a:	4b03      	ldr	r3, [pc, #12]	@ (10006838 <stdio_usb_set_chars_available_callback+0x10>)
1000682c:	6010      	str	r0, [r2, #0]
1000682e:	6019      	str	r1, [r3, #0]
10006830:	4770      	bx	lr
10006832:	bf00      	nop
10006834:	200021a4 	.word	0x200021a4
10006838:	200021a8 	.word	0x200021a8

1000683c <timer_task>:
1000683c:	4b18      	ldr	r3, [pc, #96]	@ (100068a0 <timer_task+0x64>)
1000683e:	b570      	push	{r4, r5, r6, lr}
10006840:	681a      	ldr	r2, [r3, #0]
10006842:	2a00      	cmp	r2, #0
10006844:	d028      	beq.n	10006898 <timer_task+0x5c>
10006846:	f3ef 8110 	mrs	r1, PRIMASK
1000684a:	b672      	cpsid	i
1000684c:	e8d2 4fcf 	ldaexb	r4, [r2]
10006850:	2001      	movs	r0, #1
10006852:	2c00      	cmp	r4, #0
10006854:	d1fa      	bne.n	1000684c <timer_task+0x10>
10006856:	e8c2 0f44 	strexb	r4, r0, [r2]
1000685a:	2c00      	cmp	r4, #0
1000685c:	d1f6      	bne.n	1000684c <timer_task+0x10>
1000685e:	f3bf 8f5f 	dmb	sy
10006862:	2200      	movs	r2, #0
10006864:	4c0f      	ldr	r4, [pc, #60]	@ (100068a4 <timer_task+0x68>)
10006866:	6818      	ldr	r0, [r3, #0]
10006868:	6059      	str	r1, [r3, #4]
1000686a:	7022      	strb	r2, [r4, #0]
1000686c:	e8c0 2f8f 	stlb	r2, [r0]
10006870:	f381 8810 	msr	PRIMASK, r1
10006874:	2400      	movs	r4, #0
10006876:	2500      	movs	r5, #0
10006878:	4e0b      	ldr	r6, [pc, #44]	@ (100068a8 <timer_task+0x6c>)
1000687a:	7830      	ldrb	r0, [r6, #0]
1000687c:	f7fc fa96 	bl	10002dac <irq_is_enabled>
10006880:	b920      	cbnz	r0, 1000688c <timer_task+0x50>
10006882:	2400      	movs	r4, #0
10006884:	2500      	movs	r5, #0
10006886:	4620      	mov	r0, r4
10006888:	4629      	mov	r1, r5
1000688a:	bd70      	pop	{r4, r5, r6, pc}
1000688c:	7830      	ldrb	r0, [r6, #0]
1000688e:	f7fc fa9d 	bl	10002dcc <irq_set_pending>
10006892:	4620      	mov	r0, r4
10006894:	4629      	mov	r1, r5
10006896:	bd70      	pop	{r4, r5, r6, pc}
10006898:	f44f 747a 	mov.w	r4, #1000	@ 0x3e8
1000689c:	2500      	movs	r5, #0
1000689e:	e7eb      	b.n	10006878 <timer_task+0x3c>
100068a0:	20002634 	.word	0x20002634
100068a4:	200026bb 	.word	0x200026bb
100068a8:	200026b9 	.word	0x200026b9

100068ac <usb_irq>:
100068ac:	4b01      	ldr	r3, [pc, #4]	@ (100068b4 <usb_irq+0x8>)
100068ae:	7818      	ldrb	r0, [r3, #0]
100068b0:	f7fc ba8c 	b.w	10002dcc <irq_set_pending>
100068b4:	200026b9 	.word	0x200026b9

100068b8 <stdio_usb_in_chars>:
100068b8:	b530      	push	{r4, r5, lr}
100068ba:	4604      	mov	r4, r0
100068bc:	b083      	sub	sp, #12
100068be:	2000      	movs	r0, #0
100068c0:	460d      	mov	r5, r1
100068c2:	f001 fb7f 	bl	10007fc4 <tud_cdc_n_connected>
100068c6:	2800      	cmp	r0, #0
100068c8:	d039      	beq.n	1000693e <stdio_usb_in_chars+0x86>
100068ca:	2000      	movs	r0, #0
100068cc:	f001 fb90 	bl	10007ff0 <tud_cdc_n_available>
100068d0:	b3a8      	cbz	r0, 1000693e <stdio_usb_in_chars+0x86>
100068d2:	f7fd f9cd 	bl	10003c70 <time_us_64>
100068d6:	f04f 3eff 	mov.w	lr, #4294967295	@ 0xffffffff
100068da:	f06f 4c00 	mvn.w	ip, #2147483648	@ 0x80000000
100068de:	4a19      	ldr	r2, [pc, #100]	@ (10006944 <stdio_usb_in_chars+0x8c>)
100068e0:	1882      	adds	r2, r0, r2
100068e2:	f141 0300 	adc.w	r3, r1, #0
100068e6:	4596      	cmp	lr, r2
100068e8:	eb7c 0103 	sbcs.w	r1, ip, r3
100068ec:	bf3c      	itt	cc
100068ee:	4672      	movcc	r2, lr
100068f0:	4663      	movcc	r3, ip
100068f2:	4815      	ldr	r0, [pc, #84]	@ (10006948 <stdio_usb_in_chars+0x90>)
100068f4:	f002 fe74 	bl	100095e0 <__mutex_try_enter_block_until_veneer>
100068f8:	b308      	cbz	r0, 1000693e <stdio_usb_in_chars+0x86>
100068fa:	2000      	movs	r0, #0
100068fc:	f001 fb62 	bl	10007fc4 <tud_cdc_n_connected>
10006900:	b970      	cbnz	r0, 10006920 <stdio_usb_in_chars+0x68>
10006902:	4601      	mov	r1, r0
10006904:	f04f 30ff 	mov.w	r0, #4294967295	@ 0xffffffff
10006908:	f000 fd44 	bl	10007394 <tud_task_ext>
1000690c:	f06f 0302 	mvn.w	r3, #2
10006910:	480d      	ldr	r0, [pc, #52]	@ (10006948 <stdio_usb_in_chars+0x90>)
10006912:	9301      	str	r3, [sp, #4]
10006914:	f002 fe7c 	bl	10009610 <__mutex_exit_veneer>
10006918:	9b01      	ldr	r3, [sp, #4]
1000691a:	4618      	mov	r0, r3
1000691c:	b003      	add	sp, #12
1000691e:	bd30      	pop	{r4, r5, pc}
10006920:	2000      	movs	r0, #0
10006922:	f001 fb65 	bl	10007ff0 <tud_cdc_n_available>
10006926:	2800      	cmp	r0, #0
10006928:	d0eb      	beq.n	10006902 <stdio_usb_in_chars+0x4a>
1000692a:	462a      	mov	r2, r5
1000692c:	4621      	mov	r1, r4
1000692e:	2000      	movs	r0, #0
10006930:	f001 fb68 	bl	10008004 <tud_cdc_n_read>
10006934:	1e03      	subs	r3, r0, #0
10006936:	bf08      	it	eq
10006938:	f06f 0302 	mvneq.w	r3, #2
1000693c:	e7e8      	b.n	10006910 <stdio_usb_in_chars+0x58>
1000693e:	f06f 0302 	mvn.w	r3, #2
10006942:	e7ea      	b.n	1000691a <stdio_usb_in_chars+0x62>
10006944:	000f4240 	.word	0x000f4240
10006948:	20002690 	.word	0x20002690

1000694c <stdio_usb_out_flush>:
1000694c:	b508      	push	{r3, lr}
1000694e:	f7fd f98f 	bl	10003c70 <time_us_64>
10006952:	f04f 3eff 	mov.w	lr, #4294967295	@ 0xffffffff
10006956:	f06f 4c00 	mvn.w	ip, #2147483648	@ 0x80000000
1000695a:	4a0f      	ldr	r2, [pc, #60]	@ (10006998 <stdio_usb_out_flush+0x4c>)
1000695c:	1882      	adds	r2, r0, r2
1000695e:	f141 0300 	adc.w	r3, r1, #0
10006962:	4596      	cmp	lr, r2
10006964:	eb7c 0103 	sbcs.w	r1, ip, r3
10006968:	bf3c      	itt	cc
1000696a:	4672      	movcc	r2, lr
1000696c:	4663      	movcc	r3, ip
1000696e:	480b      	ldr	r0, [pc, #44]	@ (1000699c <stdio_usb_out_flush+0x50>)
10006970:	f002 fe36 	bl	100095e0 <__mutex_try_enter_block_until_veneer>
10006974:	b170      	cbz	r0, 10006994 <stdio_usb_out_flush+0x48>
10006976:	f04f 30ff 	mov.w	r0, #4294967295	@ 0xffffffff
1000697a:	2100      	movs	r1, #0
1000697c:	f000 fd0a 	bl	10007394 <tud_task_ext>
10006980:	2000      	movs	r0, #0
10006982:	f001 fb85 	bl	10008090 <tud_cdc_n_write_flush>
10006986:	2800      	cmp	r0, #0
10006988:	d1f5      	bne.n	10006976 <stdio_usb_out_flush+0x2a>
1000698a:	e8bd 4008 	ldmia.w	sp!, {r3, lr}
1000698e:	4803      	ldr	r0, [pc, #12]	@ (1000699c <stdio_usb_out_flush+0x50>)
10006990:	f002 be3e 	b.w	10009610 <__mutex_exit_veneer>
10006994:	bd08      	pop	{r3, pc}
10006996:	bf00      	nop
10006998:	000f4240 	.word	0x000f4240
1000699c:	20002690 	.word	0x20002690

100069a0 <stdio_usb_out_chars>:
100069a0:	e92d 41f0 	stmdb	sp!, {r4, r5, r6, r7, r8, lr}
100069a4:	4607      	mov	r7, r0
100069a6:	460e      	mov	r6, r1
100069a8:	f7fd f962 	bl	10003c70 <time_us_64>
100069ac:	f04f 35ff 	mov.w	r5, #4294967295	@ 0xffffffff
100069b0:	f06f 4400 	mvn.w	r4, #2147483648	@ 0x80000000
100069b4:	4a32      	ldr	r2, [pc, #200]	@ (10006a80 <stdio_usb_out_chars+0xe0>)
100069b6:	1882      	adds	r2, r0, r2
100069b8:	f141 0300 	adc.w	r3, r1, #0
100069bc:	4295      	cmp	r5, r2
100069be:	eb74 0103 	sbcs.w	r1, r4, r3
100069c2:	bf3c      	itt	cc
100069c4:	462a      	movcc	r2, r5
100069c6:	4623      	movcc	r3, r4
100069c8:	482e      	ldr	r0, [pc, #184]	@ (10006a84 <stdio_usb_out_chars+0xe4>)
100069ca:	f002 fe09 	bl	100095e0 <__mutex_try_enter_block_until_veneer>
100069ce:	b908      	cbnz	r0, 100069d4 <stdio_usb_out_chars+0x34>
100069d0:	e8bd 81f0 	ldmia.w	sp!, {r4, r5, r6, r7, r8, pc}
100069d4:	2000      	movs	r0, #0
100069d6:	f001 faf5 	bl	10007fc4 <tud_cdc_n_connected>
100069da:	2800      	cmp	r0, #0
100069dc:	d045      	beq.n	10006a6a <stdio_usb_out_chars+0xca>
100069de:	2e00      	cmp	r6, #0
100069e0:	dd3e      	ble.n	10006a60 <stdio_usb_out_chars+0xc0>
100069e2:	2500      	movs	r5, #0
100069e4:	f8df 80a4 	ldr.w	r8, [pc, #164]	@ 10006a8c <stdio_usb_out_chars+0xec>
100069e8:	e012      	b.n	10006a10 <stdio_usb_out_chars+0x70>
100069ea:	4622      	mov	r2, r4
100069ec:	2000      	movs	r0, #0
100069ee:	f001 fb99 	bl	10008124 <tud_cdc_n_write>
100069f2:	2100      	movs	r1, #0
100069f4:	4405      	add	r5, r0
100069f6:	f04f 30ff 	mov.w	r0, #4294967295	@ 0xffffffff
100069fa:	f000 fccb 	bl	10007394 <tud_task_ext>
100069fe:	2000      	movs	r0, #0
10006a00:	f001 fb46 	bl	10008090 <tud_cdc_n_write_flush>
10006a04:	f7fd f934 	bl	10003c70 <time_us_64>
10006a08:	e9c8 0100 	strd	r0, r1, [r8]
10006a0c:	42ae      	cmp	r6, r5
10006a0e:	dd27      	ble.n	10006a60 <stdio_usb_out_chars+0xc0>
10006a10:	2000      	movs	r0, #0
10006a12:	f001 fba5 	bl	10008160 <tud_cdc_n_write_available>
10006a16:	1b74      	subs	r4, r6, r5
10006a18:	4284      	cmp	r4, r0
10006a1a:	bfa8      	it	ge
10006a1c:	4604      	movge	r4, r0
10006a1e:	1979      	adds	r1, r7, r5
10006a20:	2c00      	cmp	r4, #0
10006a22:	d1e2      	bne.n	100069ea <stdio_usb_out_chars+0x4a>
10006a24:	4621      	mov	r1, r4
10006a26:	f04f 30ff 	mov.w	r0, #4294967295	@ 0xffffffff
10006a2a:	f000 fcb3 	bl	10007394 <tud_task_ext>
10006a2e:	4620      	mov	r0, r4
10006a30:	f001 fb2e 	bl	10008090 <tud_cdc_n_write_flush>
10006a34:	4620      	mov	r0, r4
10006a36:	f001 fac5 	bl	10007fc4 <tud_cdc_n_connected>
10006a3a:	b188      	cbz	r0, 10006a60 <stdio_usb_out_chars+0xc0>
10006a3c:	4620      	mov	r0, r4
10006a3e:	f001 fb8f 	bl	10008160 <tud_cdc_n_write_available>
10006a42:	2800      	cmp	r0, #0
10006a44:	d1e2      	bne.n	10006a0c <stdio_usb_out_chars+0x6c>
10006a46:	f7fd f913 	bl	10003c70 <time_us_64>
10006a4a:	4a0f      	ldr	r2, [pc, #60]	@ (10006a88 <stdio_usb_out_chars+0xe8>)
10006a4c:	f8d8 3000 	ldr.w	r3, [r8]
10006a50:	189b      	adds	r3, r3, r2
10006a52:	f8d8 2004 	ldr.w	r2, [r8, #4]
10006a56:	f142 0200 	adc.w	r2, r2, #0
10006a5a:	4283      	cmp	r3, r0
10006a5c:	418a      	sbcs	r2, r1
10006a5e:	d2d5      	bcs.n	10006a0c <stdio_usb_out_chars+0x6c>
10006a60:	4808      	ldr	r0, [pc, #32]	@ (10006a84 <stdio_usb_out_chars+0xe4>)
10006a62:	e8bd 41f0 	ldmia.w	sp!, {r4, r5, r6, r7, r8, lr}
10006a66:	f002 bdd3 	b.w	10009610 <__mutex_exit_veneer>
10006a6a:	2000      	movs	r0, #0
10006a6c:	e8bd 41f0 	ldmia.w	sp!, {r4, r5, r6, r7, r8, lr}
10006a70:	2100      	movs	r1, #0
10006a72:	4b06      	ldr	r3, [pc, #24]	@ (10006a8c <stdio_usb_out_chars+0xec>)
10006a74:	e9c3 0100 	strd	r0, r1, [r3]
10006a78:	4802      	ldr	r0, [pc, #8]	@ (10006a84 <stdio_usb_out_chars+0xe4>)
10006a7a:	f002 bdc9 	b.w	10009610 <__mutex_exit_veneer>
10006a7e:	bf00      	nop
10006a80:	000f4240 	.word	0x000f4240
10006a84:	20002690 	.word	0x20002690
10006a88:	0007a120 	.word	0x0007a120
10006a8c:	200019c8 	.word	0x200019c8

10006a90 <low_priority_worker_irq>:
10006a90:	b510      	push	{r4, lr}
10006a92:	2100      	movs	r1, #0
10006a94:	b084      	sub	sp, #16
10006a96:	4833      	ldr	r0, [pc, #204]	@ (10006b64 <low_priority_worker_irq+0xd4>)
10006a98:	f002 fd9a 	bl	100095d0 <__mutex_try_enter_veneer>
10006a9c:	2800      	cmp	r0, #0
10006a9e:	d125      	bne.n	10006aec <low_priority_worker_irq+0x5c>
10006aa0:	4b31      	ldr	r3, [pc, #196]	@ (10006b68 <low_priority_worker_irq+0xd8>)
10006aa2:	681a      	ldr	r2, [r3, #0]
10006aa4:	b302      	cbz	r2, 10006ae8 <low_priority_worker_irq+0x58>
10006aa6:	f3ef 8110 	mrs	r1, PRIMASK
10006aaa:	b672      	cpsid	i
10006aac:	e8d2 efcf 	ldaexb	lr, [r2]
10006ab0:	f05f 0c01 	movs.w	ip, #1
10006ab4:	f1be 0f00 	cmp.w	lr, #0
10006ab8:	d1f8      	bne.n	10006aac <low_priority_worker_irq+0x1c>
10006aba:	e8c2 cf4e 	strexb	lr, ip, [r2]
10006abe:	f1be 0f00 	cmp.w	lr, #0
10006ac2:	d1f3      	bne.n	10006aac <low_priority_worker_irq+0x1c>
10006ac4:	f3bf 8f5f 	dmb	sy
10006ac8:	f04f 0e01 	mov.w	lr, #1
10006acc:	4a27      	ldr	r2, [pc, #156]	@ (10006b6c <low_priority_worker_irq+0xdc>)
10006ace:	6059      	str	r1, [r3, #4]
10006ad0:	f892 c000 	ldrb.w	ip, [r2]
10006ad4:	681b      	ldr	r3, [r3, #0]
10006ad6:	f882 e000 	strb.w	lr, [r2]
10006ada:	e8c3 0f8f 	stlb	r0, [r3]
10006ade:	f381 8810 	msr	PRIMASK, r1
10006ae2:	f1bc 0f00 	cmp.w	ip, #0
10006ae6:	d019      	beq.n	10006b1c <low_priority_worker_irq+0x8c>
10006ae8:	b004      	add	sp, #16
10006aea:	bd10      	pop	{r4, pc}
10006aec:	2100      	movs	r1, #0
10006aee:	f04f 30ff 	mov.w	r0, #4294967295	@ 0xffffffff
10006af2:	f000 fc4f 	bl	10007394 <tud_task_ext>
10006af6:	2000      	movs	r0, #0
10006af8:	f001 fa7a 	bl	10007ff0 <tud_cdc_n_available>
10006afc:	4604      	mov	r4, r0
10006afe:	4819      	ldr	r0, [pc, #100]	@ (10006b64 <low_priority_worker_irq+0xd4>)
10006b00:	f002 fd86 	bl	10009610 <__mutex_exit_veneer>
10006b04:	2c00      	cmp	r4, #0
10006b06:	d0ef      	beq.n	10006ae8 <low_priority_worker_irq+0x58>
10006b08:	4b19      	ldr	r3, [pc, #100]	@ (10006b70 <low_priority_worker_irq+0xe0>)
10006b0a:	681b      	ldr	r3, [r3, #0]
10006b0c:	2b00      	cmp	r3, #0
10006b0e:	d0eb      	beq.n	10006ae8 <low_priority_worker_irq+0x58>
10006b10:	4a18      	ldr	r2, [pc, #96]	@ (10006b74 <low_priority_worker_irq+0xe4>)
10006b12:	6810      	ldr	r0, [r2, #0]
10006b14:	b004      	add	sp, #16
10006b16:	e8bd 4010 	ldmia.w	sp!, {r4, lr}
10006b1a:	4718      	bx	r3
10006b1c:	f7fc fe94 	bl	10003848 <alarm_pool_get_default>
10006b20:	4604      	mov	r4, r0
10006b22:	f7fd f8a5 	bl	10003c70 <time_us_64>
10006b26:	f04f 3eff 	mov.w	lr, #4294967295	@ 0xffffffff
10006b2a:	f06f 4c00 	mvn.w	ip, #2147483648	@ 0x80000000
10006b2e:	f510 727a 	adds.w	r2, r0, #1000	@ 0x3e8
10006b32:	f141 0300 	adc.w	r3, r1, #0
10006b36:	4596      	cmp	lr, r2
10006b38:	eb7c 0103 	sbcs.w	r1, ip, r3
10006b3c:	bf38      	it	cc
10006b3e:	4663      	movcc	r3, ip
10006b40:	f04f 0100 	mov.w	r1, #0
10006b44:	f04f 0c01 	mov.w	ip, #1
10006b48:	bf38      	it	cc
10006b4a:	4672      	movcc	r2, lr
10006b4c:	f8df e028 	ldr.w	lr, [pc, #40]	@ 10006b78 <low_priority_worker_irq+0xe8>
10006b50:	4620      	mov	r0, r4
10006b52:	e9cd 1c01 	strd	r1, ip, [sp, #4]
10006b56:	f8cd e000 	str.w	lr, [sp]
10006b5a:	f7fc fe79 	bl	10003850 <alarm_pool_add_alarm_at>
10006b5e:	b004      	add	sp, #16
10006b60:	bd10      	pop	{r4, pc}
10006b62:	bf00      	nop
10006b64:	20002690 	.word	0x20002690
10006b68:	20002634 	.word	0x20002634
10006b6c:	200026bb 	.word	0x200026bb
10006b70:	200021a4 	.word	0x200021a4
10006b74:	200021a8 	.word	0x200021a8
10006b78:	1000683d 	.word	0x1000683d

10006b7c <stdio_usb_init>:
10006b7c:	f04f 4350 	mov.w	r3, #3489660928	@ 0xd0000000
10006b80:	b530      	push	{r4, r5, lr}
10006b82:	b085      	sub	sp, #20
10006b84:	681c      	ldr	r4, [r3, #0]
10006b86:	f7fc fe5f 	bl	10003848 <alarm_pool_get_default>
10006b8a:	f7fc ff7d 	bl	10003a88 <alarm_pool_core_num>
10006b8e:	42a0      	cmp	r0, r4
10006b90:	d003      	beq.n	10006b9a <stdio_usb_init+0x1e>
10006b92:	2400      	movs	r4, #0
10006b94:	4620      	mov	r0, r4
10006b96:	b005      	add	sp, #20
10006b98:	bd30      	pop	{r4, r5, pc}
10006b9a:	2100      	movs	r1, #0
10006b9c:	4b2b      	ldr	r3, [pc, #172]	@ (10006c4c <stdio_usb_init+0xd0>)
10006b9e:	4608      	mov	r0, r1
10006ba0:	781b      	ldrb	r3, [r3, #0]
10006ba2:	f001 fdbf 	bl	10008724 <tusb_rhport_init>
10006ba6:	482a      	ldr	r0, [pc, #168]	@ (10006c50 <stdio_usb_init+0xd4>)
10006ba8:	6803      	ldr	r3, [r0, #0]
10006baa:	2b00      	cmp	r3, #0
10006bac:	d04b      	beq.n	10006c46 <stdio_usb_init+0xca>
10006bae:	2001      	movs	r0, #1
10006bb0:	f7fc fbc6 	bl	10003340 <user_irq_claim_unused>
10006bb4:	4603      	mov	r3, r0
10006bb6:	4c27      	ldr	r4, [pc, #156]	@ (10006c54 <stdio_usb_init+0xd8>)
10006bb8:	4927      	ldr	r1, [pc, #156]	@ (10006c58 <stdio_usb_init+0xdc>)
10006bba:	b2c0      	uxtb	r0, r0
10006bbc:	7023      	strb	r3, [r4, #0]
10006bbe:	f7fc f921 	bl	10002e04 <irq_set_exclusive_handler>
10006bc2:	7820      	ldrb	r0, [r4, #0]
10006bc4:	2101      	movs	r1, #1
10006bc6:	f7fc f8db 	bl	10002d80 <irq_set_enabled>
10006bca:	200e      	movs	r0, #14
10006bcc:	f7fc f90a 	bl	10002de4 <irq_has_shared_handler>
10006bd0:	4604      	mov	r4, r0
10006bd2:	bb58      	cbnz	r0, 10006c2c <stdio_usb_init+0xb0>
10006bd4:	4b21      	ldr	r3, [pc, #132]	@ (10006c5c <stdio_usb_init+0xe0>)
10006bd6:	e9c3 0000 	strd	r0, r0, [r3]
10006bda:	f7fc fe35 	bl	10003848 <alarm_pool_get_default>
10006bde:	4605      	mov	r5, r0
10006be0:	f7fd f846 	bl	10003c70 <time_us_64>
10006be4:	f04f 3eff 	mov.w	lr, #4294967295	@ 0xffffffff
10006be8:	f06f 4c00 	mvn.w	ip, #2147483648	@ 0x80000000
10006bec:	f510 727a 	adds.w	r2, r0, #1000	@ 0x3e8
10006bf0:	f141 0300 	adc.w	r3, r1, #0
10006bf4:	4596      	cmp	lr, r2
10006bf6:	eb7c 0103 	sbcs.w	r1, ip, r3
10006bfa:	bf38      	it	cc
10006bfc:	4663      	movcc	r3, ip
10006bfe:	f04f 0101 	mov.w	r1, #1
10006c02:	f04f 0c00 	mov.w	ip, #0
10006c06:	e9cd c101 	strd	ip, r1, [sp, #4]
10006c0a:	4915      	ldr	r1, [pc, #84]	@ (10006c60 <stdio_usb_init+0xe4>)
10006c0c:	bf38      	it	cc
10006c0e:	4672      	movcc	r2, lr
10006c10:	4628      	mov	r0, r5
10006c12:	9100      	str	r1, [sp, #0]
10006c14:	f7fc fe1c 	bl	10003850 <alarm_pool_add_alarm_at>
10006c18:	2800      	cmp	r0, #0
10006c1a:	dbbb      	blt.n	10006b94 <stdio_usb_init+0x18>
10006c1c:	2401      	movs	r4, #1
10006c1e:	2101      	movs	r1, #1
10006c20:	4810      	ldr	r0, [pc, #64]	@ (10006c64 <stdio_usb_init+0xe8>)
10006c22:	f7ff fcab 	bl	1000657c <stdio_set_driver_enabled>
10006c26:	4620      	mov	r0, r4
10006c28:	b005      	add	sp, #20
10006c2a:	bd30      	pop	{r4, r5, pc}
10006c2c:	2001      	movs	r0, #1
10006c2e:	f7fc f861 	bl	10002cf4 <spin_lock_claim_unused>
10006c32:	4601      	mov	r1, r0
10006c34:	4809      	ldr	r0, [pc, #36]	@ (10006c5c <stdio_usb_init+0xe0>)
10006c36:	f7fc fbe5 	bl	10003404 <critical_section_init_with_lock_num>
10006c3a:	2200      	movs	r2, #0
10006c3c:	200e      	movs	r0, #14
10006c3e:	490a      	ldr	r1, [pc, #40]	@ (10006c68 <stdio_usb_init+0xec>)
10006c40:	f7fc f918 	bl	10002e74 <irq_add_shared_handler>
10006c44:	e7ea      	b.n	10006c1c <stdio_usb_init+0xa0>
10006c46:	f7fc fbc1 	bl	100033cc <mutex_init>
10006c4a:	e7b0      	b.n	10006bae <stdio_usb_init+0x32>
10006c4c:	10009d64 	.word	0x10009d64
10006c50:	20002690 	.word	0x20002690
10006c54:	200026b9 	.word	0x200026b9
10006c58:	10006a91 	.word	0x10006a91
10006c5c:	20002634 	.word	0x20002634
10006c60:	1000683d 	.word	0x1000683d
10006c64:	20001600 	.word	0x20001600
10006c68:	100068ad 	.word	0x100068ad

10006c6c <tud_descriptor_device_cb>:
10006c6c:	4800      	ldr	r0, [pc, #0]	@ (10006c70 <tud_descriptor_device_cb+0x4>)
10006c6e:	4770      	bx	lr
10006c70:	10009ce8 	.word	0x10009ce8

10006c74 <tud_descriptor_configuration_cb>:
10006c74:	4800      	ldr	r0, [pc, #0]	@ (10006c78 <tud_descriptor_configuration_cb+0x4>)
10006c76:	4770      	bx	lr
10006c78:	10009c94 	.word	0x10009c94

10006c7c <tud_descriptor_string_cb>:
10006c7c:	b500      	push	{lr}
10006c7e:	4a1c      	ldr	r2, [pc, #112]	@ (10006cf0 <tud_descriptor_string_cb+0x74>)
10006c80:	4603      	mov	r3, r0
10006c82:	7811      	ldrb	r1, [r2, #0]
10006c84:	b083      	sub	sp, #12
10006c86:	b331      	cbz	r1, 10006cd6 <tud_descriptor_string_cb+0x5a>
10006c88:	b963      	cbnz	r3, 10006ca4 <tud_descriptor_string_cb+0x28>
10006c8a:	f240 4209 	movw	r2, #1033	@ 0x409
10006c8e:	f44f 7341 	mov.w	r3, #772	@ 0x304
10006c92:	f8df c060 	ldr.w	ip, [pc, #96]	@ 10006cf4 <tud_descriptor_string_cb+0x78>
10006c96:	f8ac 2002 	strh.w	r2, [ip, #2]
10006c9a:	4816      	ldr	r0, [pc, #88]	@ (10006cf4 <tud_descriptor_string_cb+0x78>)
10006c9c:	f8ac 3000 	strh.w	r3, [ip]
10006ca0:	b003      	add	sp, #12
10006ca2:	bd00      	pop	{pc}
10006ca4:	2b05      	cmp	r3, #5
10006ca6:	d820      	bhi.n	10006cea <tud_descriptor_string_cb+0x6e>
10006ca8:	4a13      	ldr	r2, [pc, #76]	@ (10006cf8 <tud_descriptor_string_cb+0x7c>)
10006caa:	f8df c048 	ldr.w	ip, [pc, #72]	@ 10006cf4 <tud_descriptor_string_cb+0x78>
10006cae:	f852 1023 	ldr.w	r1, [r2, r3, lsl #2]
10006cb2:	4660      	mov	r0, ip
10006cb4:	2300      	movs	r3, #0
10006cb6:	3901      	subs	r1, #1
10006cb8:	e003      	b.n	10006cc2 <tud_descriptor_string_cb+0x46>
10006cba:	2b13      	cmp	r3, #19
10006cbc:	f820 2f02 	strh.w	r2, [r0, #2]!
10006cc0:	d010      	beq.n	10006ce4 <tud_descriptor_string_cb+0x68>
10006cc2:	f811 2f01 	ldrb.w	r2, [r1, #1]!
10006cc6:	3301      	adds	r3, #1
10006cc8:	b2db      	uxtb	r3, r3
10006cca:	2a00      	cmp	r2, #0
10006ccc:	d1f5      	bne.n	10006cba <tud_descriptor_string_cb+0x3e>
10006cce:	005b      	lsls	r3, r3, #1
10006cd0:	f443 7340 	orr.w	r3, r3, #768	@ 0x300
10006cd4:	e7e1      	b.n	10006c9a <tud_descriptor_string_cb+0x1e>
10006cd6:	9001      	str	r0, [sp, #4]
10006cd8:	2111      	movs	r1, #17
10006cda:	4610      	mov	r0, r2
10006cdc:	f000 f824 	bl	10006d28 <pico_get_unique_board_id_string>
10006ce0:	9b01      	ldr	r3, [sp, #4]
10006ce2:	e7d1      	b.n	10006c88 <tud_descriptor_string_cb+0xc>
10006ce4:	f44f 734a 	mov.w	r3, #808	@ 0x328
10006ce8:	e7d7      	b.n	10006c9a <tud_descriptor_string_cb+0x1e>
10006cea:	2000      	movs	r0, #0
10006cec:	e7d8      	b.n	10006ca0 <tud_descriptor_string_cb+0x24>
10006cee:	bf00      	nop
10006cf0:	20002698 	.word	0x20002698
10006cf4:	200021dc 	.word	0x200021dc
10006cf8:	10009c7c 	.word	0x10009c7c

10006cfc <_retrieve_unique_id_on_boot>:
10006cfc:	b500      	push	{lr}
10006cfe:	f245 3047 	movw	r0, #21319	@ 0x5347
10006d02:	b08b      	sub	sp, #44	@ 0x2c
10006d04:	f7fd fa8c 	bl	10004220 <rom_func_lookup>
10006d08:	2201      	movs	r2, #1
10006d0a:	4603      	mov	r3, r0
10006d0c:	2109      	movs	r1, #9
10006d0e:	a801      	add	r0, sp, #4
10006d10:	4798      	blx	r3
10006d12:	e9dd 3203 	ldrd	r3, r2, [sp, #12]
10006d16:	4903      	ldr	r1, [pc, #12]	@ (10006d24 <_retrieve_unique_id_on_boot+0x28>)
10006d18:	ba12      	rev	r2, r2
10006d1a:	ba1b      	rev	r3, r3
10006d1c:	e9c1 2300 	strd	r2, r3, [r1]
10006d20:	b00b      	add	sp, #44	@ 0x2c
10006d22:	bd00      	pop	{pc}
10006d24:	2000267c 	.word	0x2000267c

10006d28 <pico_get_unique_board_id_string>:
10006d28:	2901      	cmp	r1, #1
10006d2a:	f000 80bb 	beq.w	10006ea4 <pico_get_unique_board_id_string+0x17c>
10006d2e:	4a61      	ldr	r2, [pc, #388]	@ (10006eb4 <pico_get_unique_board_id_string+0x18c>)
10006d30:	3901      	subs	r1, #1
10006d32:	7813      	ldrb	r3, [r2, #0]
10006d34:	ea4f 1c23 	mov.w	ip, r3, asr #4
10006d38:	f1bc 0f09 	cmp.w	ip, #9
10006d3c:	bfcc      	ite	gt
10006d3e:	f10c 0c37 	addgt.w	ip, ip, #55	@ 0x37
10006d42:	f10c 0c30 	addle.w	ip, ip, #48	@ 0x30
10006d46:	2901      	cmp	r1, #1
10006d48:	f880 c000 	strb.w	ip, [r0]
10006d4c:	f000 80ad 	beq.w	10006eaa <pico_get_unique_board_id_string+0x182>
10006d50:	f003 030f 	and.w	r3, r3, #15
10006d54:	2b09      	cmp	r3, #9
10006d56:	bf8c      	ite	hi
10006d58:	3337      	addhi	r3, #55	@ 0x37
10006d5a:	3330      	addls	r3, #48	@ 0x30
10006d5c:	2902      	cmp	r1, #2
10006d5e:	7043      	strb	r3, [r0, #1]
10006d60:	f000 80a3 	beq.w	10006eaa <pico_get_unique_board_id_string+0x182>
10006d64:	7853      	ldrb	r3, [r2, #1]
10006d66:	ea4f 1c23 	mov.w	ip, r3, asr #4
10006d6a:	f1bc 0f09 	cmp.w	ip, #9
10006d6e:	bfcc      	ite	gt
10006d70:	f10c 0c37 	addgt.w	ip, ip, #55	@ 0x37
10006d74:	f10c 0c30 	addle.w	ip, ip, #48	@ 0x30
10006d78:	2903      	cmp	r1, #3
10006d7a:	f880 c002 	strb.w	ip, [r0, #2]
10006d7e:	f000 8094 	beq.w	10006eaa <pico_get_unique_board_id_string+0x182>
10006d82:	f003 030f 	and.w	r3, r3, #15
10006d86:	2b09      	cmp	r3, #9
10006d88:	bf8c      	ite	hi
10006d8a:	3337      	addhi	r3, #55	@ 0x37
10006d8c:	3330      	addls	r3, #48	@ 0x30
10006d8e:	2904      	cmp	r1, #4
10006d90:	70c3      	strb	r3, [r0, #3]
10006d92:	f000 808a 	beq.w	10006eaa <pico_get_unique_board_id_string+0x182>
10006d96:	7893      	ldrb	r3, [r2, #2]
10006d98:	ea4f 1c23 	mov.w	ip, r3, asr #4
10006d9c:	f1bc 0f09 	cmp.w	ip, #9
10006da0:	bfcc      	ite	gt
10006da2:	f10c 0c37 	addgt.w	ip, ip, #55	@ 0x37
10006da6:	f10c 0c30 	addle.w	ip, ip, #48	@ 0x30
10006daa:	2905      	cmp	r1, #5
10006dac:	f880 c004 	strb.w	ip, [r0, #4]
10006db0:	d07b      	beq.n	10006eaa <pico_get_unique_board_id_string+0x182>
10006db2:	f003 030f 	and.w	r3, r3, #15
10006db6:	2b09      	cmp	r3, #9
10006db8:	bf8c      	ite	hi
10006dba:	3337      	addhi	r3, #55	@ 0x37
10006dbc:	3330      	addls	r3, #48	@ 0x30
10006dbe:	2906      	cmp	r1, #6
10006dc0:	7143      	strb	r3, [r0, #5]
10006dc2:	d072      	beq.n	10006eaa <pico_get_unique_board_id_string+0x182>
10006dc4:	78d3      	ldrb	r3, [r2, #3]
10006dc6:	ea4f 1c23 	mov.w	ip, r3, asr #4
10006dca:	f1bc 0f09 	cmp.w	ip, #9
10006dce:	bfcc      	ite	gt
10006dd0:	f10c 0c37 	addgt.w	ip, ip, #55	@ 0x37
10006dd4:	f10c 0c30 	addle.w	ip, ip, #48	@ 0x30
10006dd8:	2907      	cmp	r1, #7
10006dda:	f880 c006 	strb.w	ip, [r0, #6]
10006dde:	d064      	beq.n	10006eaa <pico_get_unique_board_id_string+0x182>
10006de0:	f003 030f 	and.w	r3, r3, #15
10006de4:	2b09      	cmp	r3, #9
10006de6:	bf8c      	ite	hi
10006de8:	3337      	addhi	r3, #55	@ 0x37
10006dea:	3330      	addls	r3, #48	@ 0x30
10006dec:	2908      	cmp	r1, #8
10006dee:	71c3      	strb	r3, [r0, #7]
10006df0:	d05b      	beq.n	10006eaa <pico_get_unique_board_id_string+0x182>
10006df2:	7913      	ldrb	r3, [r2, #4]
10006df4:	ea4f 1c23 	mov.w	ip, r3, asr #4
10006df8:	f1bc 0f09 	cmp.w	ip, #9
10006dfc:	bfcc      	ite	gt
10006dfe:	f10c 0c37 	addgt.w	ip, ip, #55	@ 0x37
10006e02:	f10c 0c30 	addle.w	ip, ip, #48	@ 0x30
10006e06:	2909      	cmp	r1, #9
10006e08:	f880 c008 	strb.w	ip, [r0, #8]
10006e0c:	d04d      	beq.n	10006eaa <pico_get_unique_board_id_string+0x182>
10006e0e:	f003 030f 	and.w	r3, r3, #15
10006e12:	2b09      	cmp	r3, #9
10006e14:	bf8c      	ite	hi
10006e16:	3337      	addhi	r3, #55	@ 0x37
10006e18:	3330      	addls	r3, #48	@ 0x30
10006e1a:	290a      	cmp	r1, #10
10006e1c:	7243      	strb	r3, [r0, #9]
10006e1e:	d044      	beq.n	10006eaa <pico_get_unique_board_id_string+0x182>
10006e20:	7953      	ldrb	r3, [r2, #5]
10006e22:	ea4f 1c23 	mov.w	ip, r3, asr #4
10006e26:	f1bc 0f09 	cmp.w	ip, #9
10006e2a:	bfcc      	ite	gt
10006e2c:	f10c 0c37 	addgt.w	ip, ip, #55	@ 0x37
10006e30:	f10c 0c30 	addle.w	ip, ip, #48	@ 0x30
10006e34:	290b      	cmp	r1, #11
10006e36:	f880 c00a 	strb.w	ip, [r0, #10]
10006e3a:	d036      	beq.n	10006eaa <pico_get_unique_board_id_string+0x182>
10006e3c:	f003 030f 	and.w	r3, r3, #15
10006e40:	2b09      	cmp	r3, #9
10006e42:	bf8c      	ite	hi
10006e44:	3337      	addhi	r3, #55	@ 0x37
10006e46:	3330      	addls	r3, #48	@ 0x30
10006e48:	290c      	cmp	r1, #12
10006e4a:	72c3      	strb	r3, [r0, #11]
10006e4c:	d02d      	beq.n	10006eaa <pico_get_unique_board_id_string+0x182>
10006e4e:	7993      	ldrb	r3, [r2, #6]
10006e50:	ea4f 1c23 	mov.w	ip, r3, asr #4
10006e54:	f1bc 0f09 	cmp.w	ip, #9
10006e58:	bfcc      	ite	gt
10006e5a:	f10c 0c37 	addgt.w	ip, ip, #55	@ 0x37
10006e5e:	f10c 0c30 	addle.w	ip, ip, #48	@ 0x30
10006e62:	290d      	cmp	r1, #13
10006e64:	f880 c00c 	strb.w	ip, [r0, #12]
10006e68:	d01f      	beq.n	10006eaa <pico_get_unique_board_id_string+0x182>
10006e6a:	f003 030f 	and.w	r3, r3, #15
10006e6e:	2b09      	cmp	r3, #9
10006e70:	bf8c      	ite	hi
10006e72:	3337      	addhi	r3, #55	@ 0x37
10006e74:	3330      	addls	r3, #48	@ 0x30
10006e76:	290e      	cmp	r1, #14
10006e78:	7343      	strb	r3, [r0, #13]
10006e7a:	d016      	beq.n	10006eaa <pico_get_unique_board_id_string+0x182>
10006e7c:	79d3      	ldrb	r3, [r2, #7]
10006e7e:	111a      	asrs	r2, r3, #4
10006e80:	2a09      	cmp	r2, #9
10006e82:	bfcc      	ite	gt
10006e84:	3237      	addgt	r2, #55	@ 0x37
10006e86:	3230      	addle	r2, #48	@ 0x30
10006e88:	290f      	cmp	r1, #15
10006e8a:	7382      	strb	r2, [r0, #14]
10006e8c:	d00d      	beq.n	10006eaa <pico_get_unique_board_id_string+0x182>
10006e8e:	f003 030f 	and.w	r3, r3, #15
10006e92:	2b09      	cmp	r3, #9
10006e94:	bf94      	ite	ls
10006e96:	3330      	addls	r3, #48	@ 0x30
10006e98:	3337      	addhi	r3, #55	@ 0x37
10006e9a:	2910      	cmp	r1, #16
10006e9c:	73c3      	strb	r3, [r0, #15]
10006e9e:	bf18      	it	ne
10006ea0:	3010      	addne	r0, #16
10006ea2:	d002      	beq.n	10006eaa <pico_get_unique_board_id_string+0x182>
10006ea4:	2300      	movs	r3, #0
10006ea6:	7003      	strb	r3, [r0, #0]
10006ea8:	4770      	bx	lr
10006eaa:	2300      	movs	r3, #0
10006eac:	4408      	add	r0, r1
10006eae:	7003      	strb	r3, [r0, #0]
10006eb0:	4770      	bx	lr
10006eb2:	bf00      	nop
10006eb4:	2000267c 	.word	0x2000267c

10006eb8 <dcd_init>:
10006eb8:	b510      	push	{r4, lr}
10006eba:	f000 f943 	bl	10007144 <rp2040_usb_init>
10006ebe:	230c      	movs	r3, #12
10006ec0:	4c1c      	ldr	r4, [pc, #112]	@ (10006f34 <dcd_init+0x7c>)
10006ec2:	22ff      	movs	r2, #255	@ 0xff
10006ec4:	67a3      	str	r3, [r4, #120]	@ 0x78
10006ec6:	200e      	movs	r0, #14
10006ec8:	491b      	ldr	r1, [pc, #108]	@ (10006f38 <dcd_init+0x80>)
10006eca:	f7fb ffd3 	bl	10002e74 <irq_add_shared_handler>
10006ece:	2240      	movs	r2, #64	@ 0x40
10006ed0:	2100      	movs	r1, #0
10006ed2:	481a      	ldr	r0, [pc, #104]	@ (10006f3c <dcd_init+0x84>)
10006ed4:	f002 fa28 	bl	10009328 <memset>
10006ed8:	f04f 0c80 	mov.w	ip, #128	@ 0x80
10006edc:	2001      	movs	r0, #1
10006ede:	4a17      	ldr	r2, [pc, #92]	@ (10006f3c <dcd_init+0x84>)
10006ee0:	2300      	movs	r3, #0
10006ee2:	f8a2 c022 	strh.w	ip, [r2, #34]	@ 0x22
10006ee6:	7050      	strb	r0, [r2, #1]
10006ee8:	4610      	mov	r0, r2
10006eea:	2240      	movs	r2, #64	@ 0x40
10006eec:	4914      	ldr	r1, [pc, #80]	@ (10006f40 <dcd_init+0x88>)
10006eee:	8302      	strh	r2, [r0, #24]
10006ef0:	8702      	strh	r2, [r0, #56]	@ 0x38
10006ef2:	4a14      	ldr	r2, [pc, #80]	@ (10006f44 <dcd_init+0x8c>)
10006ef4:	6081      	str	r1, [r0, #8]
10006ef6:	6043      	str	r3, [r0, #4]
10006ef8:	f8c2 3084 	str.w	r3, [r2, #132]	@ 0x84
10006efc:	f8c2 3080 	str.w	r3, [r2, #128]	@ 0x80
10006f00:	f880 3021 	strb.w	r3, [r0, #33]	@ 0x21
10006f04:	f880 303b 	strb.w	r3, [r0, #59]	@ 0x3b
10006f08:	6243      	str	r3, [r0, #36]	@ 0x24
10006f0a:	4b0f      	ldr	r3, [pc, #60]	@ (10006f48 <dcd_init+0x90>)
10006f0c:	60c3      	str	r3, [r0, #12]
10006f0e:	62c3      	str	r3, [r0, #44]	@ 0x2c
10006f10:	3b80      	subs	r3, #128	@ 0x80
10006f12:	6283      	str	r3, [r0, #40]	@ 0x28
10006f14:	f002 fb84 	bl	10009620 <__reset_non_control_endpoints_veneer>
10006f18:	f04f 5c00 	mov.w	ip, #536870912	@ 0x20000000
10006f1c:	f44f 3280 	mov.w	r2, #65536	@ 0x10000
10006f20:	2001      	movs	r0, #1
10006f22:	490a      	ldr	r1, [pc, #40]	@ (10006f4c <dcd_init+0x94>)
10006f24:	4b0a      	ldr	r3, [pc, #40]	@ (10006f50 <dcd_init+0x98>)
10006f26:	6420      	str	r0, [r4, #64]	@ 0x40
10006f28:	f8c4 c04c 	str.w	ip, [r4, #76]	@ 0x4c
10006f2c:	f8c4 1090 	str.w	r1, [r4, #144]	@ 0x90
10006f30:	64da      	str	r2, [r3, #76]	@ 0x4c
10006f32:	bd10      	pop	{r4, pc}
10006f34:	50110000 	.word	0x50110000
10006f38:	20000399 	.word	0x20000399
10006f3c:	20002210 	.word	0x20002210
10006f40:	50100084 	.word	0x50100084
10006f44:	50100000 	.word	0x50100000
10006f48:	50100100 	.word	0x50100100
10006f4c:	0001d010 	.word	0x0001d010
10006f50:	50112000 	.word	0x50112000

10006f54 <dcd_int_enable>:
10006f54:	2101      	movs	r1, #1
10006f56:	200e      	movs	r0, #14
10006f58:	f7fb bf12 	b.w	10002d80 <irq_set_enabled>

10006f5c <dcd_set_address>:
10006f5c:	2200      	movs	r2, #0
10006f5e:	4802      	ldr	r0, [pc, #8]	@ (10006f68 <dcd_set_address+0xc>)
10006f60:	4611      	mov	r1, r2
10006f62:	f000 b90f 	b.w	10007184 <hw_endpoint_xfer_start>
10006f66:	bf00      	nop
10006f68:	20002230 	.word	0x20002230

10006f6c <dcd_sof_enable>:
10006f6c:	4b04      	ldr	r3, [pc, #16]	@ (10006f80 <dcd_sof_enable+0x14>)
10006f6e:	7019      	strb	r1, [r3, #0]
10006f70:	b121      	cbz	r1, 10006f7c <dcd_sof_enable+0x10>
10006f72:	f44f 3200 	mov.w	r2, #131072	@ 0x20000
10006f76:	4b03      	ldr	r3, [pc, #12]	@ (10006f84 <dcd_sof_enable+0x18>)
10006f78:	f8c3 2090 	str.w	r2, [r3, #144]	@ 0x90
10006f7c:	4770      	bx	lr
10006f7e:	bf00      	nop
10006f80:	200026b5 	.word	0x200026b5
10006f84:	50112000 	.word	0x50112000

10006f88 <dcd_edpt0_status_complete>:
10006f88:	780b      	ldrb	r3, [r1, #0]
10006f8a:	065b      	lsls	r3, r3, #25
10006f8c:	d000      	beq.n	10006f90 <dcd_edpt0_status_complete+0x8>
10006f8e:	4770      	bx	lr
10006f90:	784b      	ldrb	r3, [r1, #1]
10006f92:	2b05      	cmp	r3, #5
10006f94:	d1fb      	bne.n	10006f8e <dcd_edpt0_status_complete+0x6>
10006f96:	884b      	ldrh	r3, [r1, #2]
10006f98:	4a01      	ldr	r2, [pc, #4]	@ (10006fa0 <dcd_edpt0_status_complete+0x18>)
10006f9a:	b2db      	uxtb	r3, r3
10006f9c:	6013      	str	r3, [r2, #0]
10006f9e:	e7f6      	b.n	10006f8e <dcd_edpt0_status_complete+0x6>
10006fa0:	50110000 	.word	0x50110000

10006fa4 <dcd_edpt_open>:
10006fa4:	e92d 41f0 	stmdb	sp!, {r4, r5, r6, r7, r8, lr}
10006fa8:	78cb      	ldrb	r3, [r1, #3]
10006faa:	b082      	sub	sp, #8
10006fac:	f003 0e03 	and.w	lr, r3, #3
10006fb0:	f1be 0f01 	cmp.w	lr, #1
10006fb4:	f3c3 0001 	ubfx	r0, r3, #0, #2
10006fb8:	d066      	beq.n	10007088 <dcd_edpt_open+0xe4>
10006fba:	2500      	movs	r5, #0
10006fbc:	f891 c002 	ldrb.w	ip, [r1, #2]
10006fc0:	4c3a      	ldr	r4, [pc, #232]	@ (100070ac <dcd_edpt_open+0x108>)
10006fc2:	f00c 027f 	and.w	r2, ip, #127	@ 0x7f
10006fc6:	0053      	lsls	r3, r2, #1
10006fc8:	4698      	mov	r8, r3
10006fca:	eb03 13dc 	add.w	r3, r3, ip, lsr #7
10006fce:	8889      	ldrh	r1, [r1, #4]
10006fd0:	eb04 1343 	add.w	r3, r4, r3, lsl #5
10006fd4:	76d8      	strb	r0, [r3, #27]
10006fd6:	f08c 00ff 	eor.w	r0, ip, #255	@ 0xff
10006fda:	09c0      	lsrs	r0, r0, #7
10006fdc:	f3c1 010a 	ubfx	r1, r1, #0, #11
10006fe0:	7058      	strb	r0, [r3, #1]
10006fe2:	f883 c002 	strb.w	ip, [r3, #2]
10006fe6:	8319      	strh	r1, [r3, #24]
10006fe8:	70dd      	strb	r5, [r3, #3]
10006fea:	ea5f 13dc 	movs.w	r3, ip, lsr #7
10006fee:	ea4f 00c2 	mov.w	r0, r2, lsl #3
10006ff2:	d134      	bne.n	1000705e <dcd_edpt_open+0xba>
10006ff4:	f100 0c04 	add.w	ip, r0, #4
10006ff8:	482d      	ldr	r0, [pc, #180]	@ (100070b0 <dcd_edpt_open+0x10c>)
10006ffa:	eb04 1682 	add.w	r6, r4, r2, lsl #6
10006ffe:	eb0c 0700 	add.w	r7, ip, r0
10007002:	60b7      	str	r7, [r6, #8]
10007004:	f84c 5000 	str.w	r5, [ip, r0]
10007008:	2a00      	cmp	r2, #0
1000700a:	d035      	beq.n	10007078 <dcd_edpt_open+0xd4>
1000700c:	4829      	ldr	r0, [pc, #164]	@ (100070b4 <dcd_edpt_open+0x110>)
1000700e:	eb00 00c2 	add.w	r0, r0, r2, lsl #3
10007012:	6070      	str	r0, [r6, #4]
10007014:	4828      	ldr	r0, [pc, #160]	@ (100070b8 <dcd_edpt_open+0x114>)
10007016:	313f      	adds	r1, #63	@ 0x3f
10007018:	0989      	lsrs	r1, r1, #6
1000701a:	f1be 0f02 	cmp.w	lr, #2
1000701e:	bf14      	ite	ne
10007020:	018a      	lslne	r2, r1, #6
10007022:	01ca      	lsleq	r2, r1, #7
10007024:	6801      	ldr	r1, [r0, #0]
10007026:	eb08 0503 	add.w	r5, r8, r3
1000702a:	440a      	add	r2, r1
1000702c:	6002      	str	r2, [r0, #0]
1000702e:	4823      	ldr	r0, [pc, #140]	@ (100070bc <dcd_edpt_open+0x118>)
10007030:	eb04 1545 	add.w	r5, r4, r5, lsl #5
10007034:	4282      	cmp	r2, r0
10007036:	60e9      	str	r1, [r5, #12]
10007038:	d832      	bhi.n	100070a0 <dcd_edpt_open+0xfc>
1000703a:	4443      	add	r3, r8
1000703c:	eb04 1443 	add.w	r4, r4, r3, lsl #5
10007040:	7ee2      	ldrb	r2, [r4, #27]
10007042:	f081 41a0 	eor.w	r1, r1, #1342177280	@ 0x50000000
10007046:	f481 1180 	eor.w	r1, r1, #1048576	@ 0x100000
1000704a:	6863      	ldr	r3, [r4, #4]
1000704c:	ea41 6182 	orr.w	r1, r1, r2, lsl #26
10007050:	f041 4100 	orr.w	r1, r1, #2147483648	@ 0x80000000
10007054:	6019      	str	r1, [r3, #0]
10007056:	2001      	movs	r0, #1
10007058:	b002      	add	sp, #8
1000705a:	e8bd 81f0 	ldmia.w	sp!, {r4, r5, r6, r7, r8, pc}
1000705e:	f100 40a0 	add.w	r0, r0, #1342177280	@ 0x50000000
10007062:	f500 1080 	add.w	r0, r0, #1048576	@ 0x100000
10007066:	3080      	adds	r0, #128	@ 0x80
10007068:	eb04 1c82 	add.w	ip, r4, r2, lsl #6
1000706c:	f8cc 0028 	str.w	r0, [ip, #40]	@ 0x28
10007070:	480f      	ldr	r0, [pc, #60]	@ (100070b0 <dcd_edpt_open+0x10c>)
10007072:	f840 5032 	str.w	r5, [r0, r2, lsl #3]
10007076:	b95a      	cbnz	r2, 10007090 <dcd_edpt_open+0xec>
10007078:	4911      	ldr	r1, [pc, #68]	@ (100070c0 <dcd_edpt_open+0x11c>)
1000707a:	eb04 1c43 	add.w	ip, r4, r3, lsl #5
1000707e:	f8cc 100c 	str.w	r1, [ip, #12]
10007082:	f8cc 2004 	str.w	r2, [ip, #4]
10007086:	e7e6      	b.n	10007056 <dcd_edpt_open+0xb2>
10007088:	2000      	movs	r0, #0
1000708a:	b002      	add	sp, #8
1000708c:	e8bd 81f0 	ldmia.w	sp!, {r4, r5, r6, r7, r8, pc}
10007090:	00d2      	lsls	r2, r2, #3
10007092:	f102 42a0 	add.w	r2, r2, #1342177280	@ 0x50000000
10007096:	f502 1280 	add.w	r2, r2, #1048576	@ 0x100000
1000709a:	f8cc 2024 	str.w	r2, [ip, #36]	@ 0x24
1000709e:	e7b9      	b.n	10007014 <dcd_edpt_open+0x70>
100070a0:	9301      	str	r3, [sp, #4]
100070a2:	f7fd f907 	bl	100042b4 <hard_assertion_failure>
100070a6:	68e9      	ldr	r1, [r5, #12]
100070a8:	9b01      	ldr	r3, [sp, #4]
100070aa:	e7c6      	b.n	1000703a <dcd_edpt_open+0x96>
100070ac:	20002210 	.word	0x20002210
100070b0:	50100080 	.word	0x50100080
100070b4:	50100004 	.word	0x50100004
100070b8:	20002618 	.word	0x20002618
100070bc:	50100fff 	.word	0x50100fff
100070c0:	50100100 	.word	0x50100100

100070c4 <dcd_edpt_close_all>:
100070c4:	f002 baac 	b.w	10009620 <__reset_non_control_endpoints_veneer>

100070c8 <dcd_edpt_xfer>:
100070c8:	b508      	push	{r3, lr}
100070ca:	4696      	mov	lr, r2
100070cc:	f8df c01c 	ldr.w	ip, [pc, #28]	@ 100070ec <dcd_edpt_xfer+0x24>
100070d0:	f001 027f 	and.w	r2, r1, #127	@ 0x7f
100070d4:	09c8      	lsrs	r0, r1, #7
100070d6:	eb00 0042 	add.w	r0, r0, r2, lsl #1
100070da:	eb0c 1040 	add.w	r0, ip, r0, lsl #5
100070de:	461a      	mov	r2, r3
100070e0:	4671      	mov	r1, lr
100070e2:	f000 f84f 	bl	10007184 <hw_endpoint_xfer_start>
100070e6:	2001      	movs	r0, #1
100070e8:	bd08      	pop	{r3, pc}
100070ea:	bf00      	nop
100070ec:	20002210 	.word	0x20002210

100070f0 <dcd_edpt_stall>:
100070f0:	f011 027f 	ands.w	r2, r1, #127	@ 0x7f
100070f4:	d105      	bne.n	10007102 <dcd_edpt_stall+0x12>
100070f6:	2900      	cmp	r1, #0
100070f8:	bf0c      	ite	eq
100070fa:	2002      	moveq	r0, #2
100070fc:	2001      	movne	r0, #1
100070fe:	4b06      	ldr	r3, [pc, #24]	@ (10007118 <dcd_edpt_stall+0x28>)
10007100:	6698      	str	r0, [r3, #104]	@ 0x68
10007102:	09c9      	lsrs	r1, r1, #7
10007104:	4b05      	ldr	r3, [pc, #20]	@ (1000711c <dcd_edpt_stall+0x2c>)
10007106:	eb01 0042 	add.w	r0, r1, r2, lsl #1
1000710a:	eb03 1040 	add.w	r0, r3, r0, lsl #5
1000710e:	f44f 6200 	mov.w	r2, #2048	@ 0x800
10007112:	2100      	movs	r1, #0
10007114:	f002 ba90 	b.w	10009638 <___hw_endpoint_buffer_control_update32_veneer>
10007118:	50112000 	.word	0x50112000
1000711c:	20002210 	.word	0x20002210

10007120 <dcd_edpt_clear_stall>:
10007120:	f011 037f 	ands.w	r3, r1, #127	@ 0x7f
10007124:	d100      	bne.n	10007128 <dcd_edpt_clear_stall+0x8>
10007126:	4770      	bx	lr
10007128:	2200      	movs	r2, #0
1000712a:	4805      	ldr	r0, [pc, #20]	@ (10007140 <dcd_edpt_clear_stall+0x20>)
1000712c:	005b      	lsls	r3, r3, #1
1000712e:	eb03 13d1 	add.w	r3, r3, r1, lsr #7
10007132:	eb00 1043 	add.w	r0, r0, r3, lsl #5
10007136:	f46f 6100 	mvn.w	r1, #2048	@ 0x800
1000713a:	70c2      	strb	r2, [r0, #3]
1000713c:	f002 ba7c 	b.w	10009638 <___hw_endpoint_buffer_control_update32_veneer>
10007140:	20002210 	.word	0x20002210

10007144 <rp2040_usb_init>:
10007144:	f04f 5280 	mov.w	r2, #268435456	@ 0x10000000
10007148:	4809      	ldr	r0, [pc, #36]	@ (10007170 <rp2040_usb_init+0x2c>)
1000714a:	490a      	ldr	r1, [pc, #40]	@ (10007174 <rp2040_usb_init+0x30>)
1000714c:	b508      	push	{r3, lr}
1000714e:	4b0a      	ldr	r3, [pc, #40]	@ (10007178 <rp2040_usb_init+0x34>)
10007150:	6002      	str	r2, [r0, #0]
10007152:	600a      	str	r2, [r1, #0]
10007154:	6899      	ldr	r1, [r3, #8]
10007156:	43c9      	mvns	r1, r1
10007158:	f011 5180 	ands.w	r1, r1, #268435456	@ 0x10000000
1000715c:	d1fa      	bne.n	10007154 <rp2040_usb_init+0x10>
1000715e:	f44f 5280 	mov.w	r2, #4096	@ 0x1000
10007162:	4806      	ldr	r0, [pc, #24]	@ (1000717c <rp2040_usb_init+0x38>)
10007164:	f002 f8e0 	bl	10009328 <memset>
10007168:	2209      	movs	r2, #9
1000716a:	4b05      	ldr	r3, [pc, #20]	@ (10007180 <rp2040_usb_init+0x3c>)
1000716c:	675a      	str	r2, [r3, #116]	@ 0x74
1000716e:	bd08      	pop	{r3, pc}
10007170:	40022000 	.word	0x40022000
10007174:	40023000 	.word	0x40023000
10007178:	40020000 	.word	0x40020000
1000717c:	50100000 	.word	0x50100000
10007180:	50110000 	.word	0x50110000

10007184 <hw_endpoint_xfer_start>:
10007184:	2300      	movs	r3, #0
10007186:	f04f 0c01 	mov.w	ip, #1
1000718a:	b510      	push	{r4, lr}
1000718c:	6101      	str	r1, [r0, #16]
1000718e:	f880 c01a 	strb.w	ip, [r0, #26]
10007192:	8282      	strh	r2, [r0, #20]
10007194:	82c3      	strh	r3, [r0, #22]
10007196:	4604      	mov	r4, r0
10007198:	f002 fa1e 	bl	100095d8 <__e15_is_bulkin_ep_veneer>
1000719c:	b120      	cbz	r0, 100071a8 <hw_endpoint_xfer_start+0x24>
1000719e:	f44f 3200 	mov.w	r2, #131072	@ 0x20000
100071a2:	4b07      	ldr	r3, [pc, #28]	@ (100071c0 <hw_endpoint_xfer_start+0x3c>)
100071a4:	f8c3 2090 	str.w	r2, [r3, #144]	@ 0x90
100071a8:	4620      	mov	r0, r4
100071aa:	f002 fa1d 	bl	100095e8 <__e15_is_critical_frame_period_veneer>
100071ae:	b110      	cbz	r0, 100071b6 <hw_endpoint_xfer_start+0x32>
100071b0:	2301      	movs	r3, #1
100071b2:	7723      	strb	r3, [r4, #28]
100071b4:	bd10      	pop	{r4, pc}
100071b6:	4620      	mov	r0, r4
100071b8:	e8bd 4010 	ldmia.w	sp!, {r4, lr}
100071bc:	f002 ba24 	b.w	10009608 <__hw_endpoint_start_next_buffer_veneer>
100071c0:	50112000 	.word	0x50112000

100071c4 <configuration_reset>:
100071c4:	e92d 41f0 	stmdb	sp!, {r4, r5, r6, r7, r8, lr}
100071c8:	2400      	movs	r4, #0
100071ca:	4d1c      	ldr	r5, [pc, #112]	@ (1000723c <configuration_reset+0x78>)
100071cc:	4606      	mov	r6, r0
100071ce:	4623      	mov	r3, r4
100071d0:	782a      	ldrb	r2, [r5, #0]
100071d2:	f8df 8078 	ldr.w	r8, [pc, #120]	@ 1000724c <configuration_reset+0x88>
100071d6:	4f1a      	ldr	r7, [pc, #104]	@ (10007240 <configuration_reset+0x7c>)
100071d8:	e00d      	b.n	100071f6 <configuration_reset+0x32>
100071da:	683b      	ldr	r3, [r7, #0]
100071dc:	eb13 1344 	adds.w	r3, r3, r4, lsl #5
100071e0:	d023      	beq.n	1000722a <configuration_reset+0x66>
100071e2:	68db      	ldr	r3, [r3, #12]
100071e4:	4630      	mov	r0, r6
100071e6:	4798      	blx	r3
100071e8:	782a      	ldrb	r2, [r5, #0]
100071ea:	3401      	adds	r4, #1
100071ec:	b2e4      	uxtb	r4, r4
100071ee:	1c51      	adds	r1, r2, #1
100071f0:	42a1      	cmp	r1, r4
100071f2:	4623      	mov	r3, r4
100071f4:	db06      	blt.n	10007204 <configuration_reset+0x40>
100071f6:	42a2      	cmp	r2, r4
100071f8:	eba3 0302 	sub.w	r3, r3, r2
100071fc:	d8ed      	bhi.n	100071da <configuration_reset+0x16>
100071fe:	eb08 1343 	add.w	r3, r8, r3, lsl #5
10007202:	e7ee      	b.n	100071e2 <configuration_reset+0x1e>
10007204:	2254      	movs	r2, #84	@ 0x54
10007206:	2100      	movs	r1, #0
10007208:	480e      	ldr	r0, [pc, #56]	@ (10007244 <configuration_reset+0x80>)
1000720a:	f002 f88d 	bl	10009328 <memset>
1000720e:	f04f 33ff 	mov.w	r3, #4294967295	@ 0xffffffff
10007212:	4c0c      	ldr	r4, [pc, #48]	@ (10007244 <configuration_reset+0x80>)
10007214:	2220      	movs	r2, #32
10007216:	e9c4 3301 	strd	r3, r3, [r4, #4]
1000721a:	e9c4 3303 	strd	r3, r3, [r4, #12]
1000721e:	21ff      	movs	r1, #255	@ 0xff
10007220:	e8bd 41f0 	ldmia.w	sp!, {r4, r5, r6, r7, r8, lr}
10007224:	4808      	ldr	r0, [pc, #32]	@ (10007248 <configuration_reset+0x84>)
10007226:	f002 b87f 	b.w	10009328 <memset>
1000722a:	f04f 23e0 	mov.w	r3, #3758153728	@ 0xe000e000
1000722e:	f8d3 3df0 	ldr.w	r3, [r3, #3568]	@ 0xdf0
10007232:	07db      	lsls	r3, r3, #31
10007234:	d500      	bpl.n	10007238 <configuration_reset+0x74>
10007236:	be00      	bkpt	0x0000
10007238:	e8bd 81f0 	ldmia.w	sp!, {r4, r5, r6, r7, r8, pc}
1000723c:	200026b4 	.word	0x200026b4
10007240:	20001ca0 	.word	0x20001ca0
10007244:	20001da8 	.word	0x20001da8
10007248:	20001dbc 	.word	0x20001dbc
1000724c:	10009cfc 	.word	0x10009cfc

10007250 <tud_event_hook_cb>:
10007250:	4770      	bx	lr
10007252:	bf00      	nop

10007254 <tud_sof_cb>:
10007254:	4770      	bx	lr
10007256:	bf00      	nop

10007258 <tud_descriptor_device_qualifier_cb>:
10007258:	2000      	movs	r0, #0
1000725a:	4770      	bx	lr

1000725c <tud_descriptor_other_speed_configuration_cb>:
1000725c:	2000      	movs	r0, #0
1000725e:	4770      	bx	lr

10007260 <tud_mount_cb>:
10007260:	4770      	bx	lr
10007262:	bf00      	nop

10007264 <tud_umount_cb>:
10007264:	4770      	bx	lr
10007266:	bf00      	nop

10007268 <tud_suspend_cb>:
10007268:	4770      	bx	lr
1000726a:	bf00      	nop

1000726c <tud_resume_cb>:
1000726c:	4770      	bx	lr
1000726e:	bf00      	nop

10007270 <tud_mounted>:
10007270:	4b02      	ldr	r3, [pc, #8]	@ (1000727c <tud_mounted+0xc>)
10007272:	7858      	ldrb	r0, [r3, #1]
10007274:	3800      	subs	r0, #0
10007276:	bf18      	it	ne
10007278:	2001      	movne	r0, #1
1000727a:	4770      	bx	lr
1000727c:	20001da8 	.word	0x20001da8

10007280 <tud_suspended>:
10007280:	4b02      	ldr	r3, [pc, #8]	@ (1000728c <tud_suspended+0xc>)
10007282:	7818      	ldrb	r0, [r3, #0]
10007284:	f3c0 0080 	ubfx	r0, r0, #2, #1
10007288:	4770      	bx	lr
1000728a:	bf00      	nop
1000728c:	20001da8 	.word	0x20001da8

10007290 <tud_rhport_init>:
10007290:	e92d 47f0 	stmdb	sp!, {r4, r5, r6, r7, r8, r9, sl, lr}
10007294:	f8df 80f8 	ldr.w	r8, [pc, #248]	@ 10007390 <tud_rhport_init+0x100>
10007298:	f898 3000 	ldrb.w	r3, [r8]
1000729c:	2bff      	cmp	r3, #255	@ 0xff
1000729e:	d149      	bne.n	10007334 <tud_rhport_init+0xa4>
100072a0:	2900      	cmp	r1, #0
100072a2:	d03c      	beq.n	1000731e <tud_rhport_init+0x8e>
100072a4:	2254      	movs	r2, #84	@ 0x54
100072a6:	468a      	mov	sl, r1
100072a8:	4681      	mov	r9, r0
100072aa:	2100      	movs	r1, #0
100072ac:	482d      	ldr	r0, [pc, #180]	@ (10007364 <tud_rhport_init+0xd4>)
100072ae:	f002 f83b 	bl	10009328 <memset>
100072b2:	2200      	movs	r2, #0
100072b4:	4c2c      	ldr	r4, [pc, #176]	@ (10007368 <tud_rhport_init+0xd8>)
100072b6:	4b2d      	ldr	r3, [pc, #180]	@ (1000736c <tud_rhport_init+0xdc>)
100072b8:	4620      	mov	r0, r4
100072ba:	701a      	strb	r2, [r3, #0]
100072bc:	f7fc f886 	bl	100033cc <mutex_init>
100072c0:	4b2b      	ldr	r3, [pc, #172]	@ (10007370 <tud_rhport_init+0xe0>)
100072c2:	482c      	ldr	r0, [pc, #176]	@ (10007374 <tud_rhport_init+0xe4>)
100072c4:	601c      	str	r4, [r3, #0]
100072c6:	4c2c      	ldr	r4, [pc, #176]	@ (10007378 <tud_rhport_init+0xe8>)
100072c8:	f7fc f88e 	bl	100033e8 <critical_section_init>
100072cc:	4620      	mov	r0, r4
100072ce:	f001 fe05 	bl	10008edc <tu_fifo_clear>
100072d2:	4a2a      	ldr	r2, [pc, #168]	@ (1000737c <tud_rhport_init+0xec>)
100072d4:	4b2a      	ldr	r3, [pc, #168]	@ (10007380 <tud_rhport_init+0xf0>)
100072d6:	6014      	str	r4, [r2, #0]
100072d8:	b123      	cbz	r3, 100072e4 <tud_rhport_init+0x54>
100072da:	482a      	ldr	r0, [pc, #168]	@ (10007384 <tud_rhport_init+0xf4>)
100072dc:	f7ff fa90 	bl	10006800 <usbd_app_driver_get_cb>
100072e0:	4b29      	ldr	r3, [pc, #164]	@ (10007388 <tud_rhport_init+0xf8>)
100072e2:	6018      	str	r0, [r3, #0]
100072e4:	2400      	movs	r4, #0
100072e6:	4d27      	ldr	r5, [pc, #156]	@ (10007384 <tud_rhport_init+0xf4>)
100072e8:	4623      	mov	r3, r4
100072ea:	782a      	ldrb	r2, [r5, #0]
100072ec:	4f27      	ldr	r7, [pc, #156]	@ (1000738c <tud_rhport_init+0xfc>)
100072ee:	4e26      	ldr	r6, [pc, #152]	@ (10007388 <tud_rhport_init+0xf8>)
100072f0:	e00d      	b.n	1000730e <tud_rhport_init+0x7e>
100072f2:	6833      	ldr	r3, [r6, #0]
100072f4:	eb13 1344 	adds.w	r3, r3, r4, lsl #5
100072f8:	d011      	beq.n	1000731e <tud_rhport_init+0x8e>
100072fa:	685b      	ldr	r3, [r3, #4]
100072fc:	b17b      	cbz	r3, 1000731e <tud_rhport_init+0x8e>
100072fe:	4798      	blx	r3
10007300:	782a      	ldrb	r2, [r5, #0]
10007302:	3401      	adds	r4, #1
10007304:	b2e4      	uxtb	r4, r4
10007306:	1c51      	adds	r1, r2, #1
10007308:	42a1      	cmp	r1, r4
1000730a:	4623      	mov	r3, r4
1000730c:	db16      	blt.n	1000733c <tud_rhport_init+0xac>
1000730e:	42a2      	cmp	r2, r4
10007310:	d8ef      	bhi.n	100072f2 <tud_rhport_init+0x62>
10007312:	1a9b      	subs	r3, r3, r2
10007314:	eb07 1343 	add.w	r3, r7, r3, lsl #5
10007318:	685b      	ldr	r3, [r3, #4]
1000731a:	2b00      	cmp	r3, #0
1000731c:	d1ef      	bne.n	100072fe <tud_rhport_init+0x6e>
1000731e:	f04f 23e0 	mov.w	r3, #3758153728	@ 0xe000e000
10007322:	f8d3 3df0 	ldr.w	r3, [r3, #3568]	@ 0xdf0
10007326:	07da      	lsls	r2, r3, #31
10007328:	d500      	bpl.n	1000732c <tud_rhport_init+0x9c>
1000732a:	be00      	bkpt	0x0000
1000732c:	2400      	movs	r4, #0
1000732e:	4620      	mov	r0, r4
10007330:	e8bd 87f0 	ldmia.w	sp!, {r4, r5, r6, r7, r8, r9, sl, pc}
10007334:	2401      	movs	r4, #1
10007336:	4620      	mov	r0, r4
10007338:	e8bd 87f0 	ldmia.w	sp!, {r4, r5, r6, r7, r8, r9, sl, pc}
1000733c:	4651      	mov	r1, sl
1000733e:	4648      	mov	r0, r9
10007340:	f888 9000 	strb.w	r9, [r8]
10007344:	f7ff fdb8 	bl	10006eb8 <dcd_init>
10007348:	4604      	mov	r4, r0
1000734a:	b938      	cbnz	r0, 1000735c <tud_rhport_init+0xcc>
1000734c:	f04f 23e0 	mov.w	r3, #3758153728	@ 0xe000e000
10007350:	f8d3 3df0 	ldr.w	r3, [r3, #3568]	@ 0xdf0
10007354:	07db      	lsls	r3, r3, #31
10007356:	d5ee      	bpl.n	10007336 <tud_rhport_init+0xa6>
10007358:	be00      	bkpt	0x0000
1000735a:	e7ec      	b.n	10007336 <tud_rhport_init+0xa6>
1000735c:	4648      	mov	r0, r9
1000735e:	f7ff fdf9 	bl	10006f54 <dcd_int_enable>
10007362:	e7e8      	b.n	10007336 <tud_rhport_init+0xa6>
10007364:	20001da8 	.word	0x20001da8
10007368:	20001da0 	.word	0x20001da0
1000736c:	200026b6 	.word	0x200026b6
10007370:	20001dfc 	.word	0x20001dfc
10007374:	2000162c 	.word	0x2000162c
10007378:	20001618 	.word	0x20001618
1000737c:	20001e00 	.word	0x20001e00
10007380:	10006801 	.word	0x10006801
10007384:	200026b4 	.word	0x200026b4
10007388:	20001ca0 	.word	0x20001ca0
1000738c:	10009cfc 	.word	0x10009cfc
10007390:	20001634 	.word	0x20001634

10007394 <tud_task_ext>:
10007394:	4b92      	ldr	r3, [pc, #584]	@ (100075e0 <tud_task_ext+0x24c>)
10007396:	781b      	ldrb	r3, [r3, #0]
10007398:	2bff      	cmp	r3, #255	@ 0xff
1000739a:	f000 8114 	beq.w	100075c6 <tud_task_ext+0x232>
1000739e:	e92d 4ff0 	stmdb	sp!, {r4, r5, r6, r7, r8, r9, sl, fp, lr}
100073a2:	4c90      	ldr	r4, [pc, #576]	@ (100075e4 <tud_task_ext+0x250>)
100073a4:	4d90      	ldr	r5, [pc, #576]	@ (100075e8 <tud_task_ext+0x254>)
100073a6:	f8df 8254 	ldr.w	r8, [pc, #596]	@ 100075fc <tud_task_ext+0x268>
100073aa:	4f90      	ldr	r7, [pc, #576]	@ (100075ec <tud_task_ext+0x258>)
100073ac:	b08b      	sub	sp, #44	@ 0x2c
100073ae:	6826      	ldr	r6, [r4, #0]
100073b0:	6973      	ldr	r3, [r6, #20]
100073b2:	f3ef 8210 	mrs	r2, PRIMASK
100073b6:	b672      	cpsid	i
100073b8:	e8d3 0fcf 	ldaexb	r0, [r3]
100073bc:	2101      	movs	r1, #1
100073be:	2800      	cmp	r0, #0
100073c0:	d1fa      	bne.n	100073b8 <tud_task_ext+0x24>
100073c2:	e8c3 1f40 	strexb	r0, r1, [r3]
100073c6:	2800      	cmp	r0, #0
100073c8:	d1f6      	bne.n	100073b8 <tud_task_ext+0x24>
100073ca:	f3bf 8f5f 	dmb	sy
100073ce:	61b2      	str	r2, [r6, #24]
100073d0:	4630      	mov	r0, r6
100073d2:	a907      	add	r1, sp, #28
100073d4:	f001 fbe2 	bl	10008b9c <tu_fifo_read>
100073d8:	2300      	movs	r3, #0
100073da:	6972      	ldr	r2, [r6, #20]
100073dc:	e8c2 3f8f 	stlb	r3, [r2]
100073e0:	69b3      	ldr	r3, [r6, #24]
100073e2:	f383 8810 	msr	PRIMASK, r3
100073e6:	2800      	cmp	r0, #0
100073e8:	f000 80c5 	beq.w	10007576 <tud_task_ext+0x1e2>
100073ec:	f89d 301d 	ldrb.w	r3, [sp, #29]
100073f0:	3b01      	subs	r3, #1
100073f2:	2b07      	cmp	r3, #7
100073f4:	f200 8392 	bhi.w	10007b1c <tud_task_ext+0x788>
100073f8:	e8df f003 	tbb	[pc, r3]
100073fc:	968eaaa0 	.word	0x968eaaa0
10007400:	040a3587 	.word	0x040a3587
10007404:	9b08      	ldr	r3, [sp, #32]
10007406:	2b00      	cmp	r3, #0
10007408:	d0d1      	beq.n	100073ae <tud_task_ext+0x1a>
1000740a:	9809      	ldr	r0, [sp, #36]	@ 0x24
1000740c:	4798      	blx	r3
1000740e:	e7ce      	b.n	100073ae <tud_task_ext+0x1a>
10007410:	f89d 1020 	ldrb.w	r1, [sp, #32]
10007414:	f001 007f 	and.w	r0, r1, #127	@ 0x7f
10007418:	eb05 0340 	add.w	r3, r5, r0, lsl #1
1000741c:	eb03 13d1 	add.w	r3, r3, r1, lsr #7
10007420:	f893 2034 	ldrb.w	r2, [r3, #52]	@ 0x34
10007424:	f022 0201 	bic.w	r2, r2, #1
10007428:	f883 2034 	strb.w	r2, [r3, #52]	@ 0x34
1000742c:	f893 2034 	ldrb.w	r2, [r3, #52]	@ 0x34
10007430:	f022 0204 	bic.w	r2, r2, #4
10007434:	f883 2034 	strb.w	r2, [r3, #52]	@ 0x34
10007438:	2800      	cmp	r0, #0
1000743a:	f000 809f 	beq.w	1000757c <tud_task_ext+0x1e8>
1000743e:	7d1b      	ldrb	r3, [r3, #20]
10007440:	f898 2000 	ldrb.w	r2, [r8]
10007444:	4293      	cmp	r3, r2
10007446:	f080 808c 	bcs.w	10007562 <tud_task_ext+0x1ce>
1000744a:	4a69      	ldr	r2, [pc, #420]	@ (100075f0 <tud_task_ext+0x25c>)
1000744c:	6812      	ldr	r2, [r2, #0]
1000744e:	eb12 1343 	adds.w	r3, r2, r3, lsl #5
10007452:	f000 8089 	beq.w	10007568 <tud_task_ext+0x1d4>
10007456:	699e      	ldr	r6, [r3, #24]
10007458:	f89d 2021 	ldrb.w	r2, [sp, #33]	@ 0x21
1000745c:	9b09      	ldr	r3, [sp, #36]	@ 0x24
1000745e:	f89d 001c 	ldrb.w	r0, [sp, #28]
10007462:	47b0      	blx	r6
10007464:	e7a3      	b.n	100073ae <tud_task_ext+0x1a>
10007466:	783b      	ldrb	r3, [r7, #0]
10007468:	2b00      	cmp	r3, #0
1000746a:	d07d      	beq.n	10007568 <tud_task_ext+0x1d4>
1000746c:	783b      	ldrb	r3, [r7, #0]
1000746e:	3b01      	subs	r3, #1
10007470:	703b      	strb	r3, [r7, #0]
10007472:	7838      	ldrb	r0, [r7, #0]
10007474:	2800      	cmp	r0, #0
10007476:	d19a      	bne.n	100073ae <tud_task_ext+0x1a>
10007478:	f8df 916c 	ldr.w	r9, [pc, #364]	@ 100075e8 <tud_task_ext+0x254>
1000747c:	f89d b01c 	ldrb.w	fp, [sp, #28]
10007480:	f899 3000 	ldrb.w	r3, [r9]
10007484:	f043 0301 	orr.w	r3, r3, #1
10007488:	f889 3000 	strb.w	r3, [r9]
1000748c:	f899 3034 	ldrb.w	r3, [r9, #52]	@ 0x34
10007490:	f360 0300 	bfi	r3, r0, #0, #1
10007494:	f889 3034 	strb.w	r3, [r9, #52]	@ 0x34
10007498:	f899 3034 	ldrb.w	r3, [r9, #52]	@ 0x34
1000749c:	f360 0382 	bfi	r3, r0, #2, #1
100074a0:	f889 3034 	strb.w	r3, [r9, #52]	@ 0x34
100074a4:	f899 3035 	ldrb.w	r3, [r9, #53]	@ 0x35
100074a8:	f360 0300 	bfi	r3, r0, #0, #1
100074ac:	f889 3035 	strb.w	r3, [r9, #53]	@ 0x35
100074b0:	f899 3035 	ldrb.w	r3, [r9, #53]	@ 0x35
100074b4:	f360 0382 	bfi	r3, r0, #2, #1
100074b8:	f889 3035 	strb.w	r3, [r9, #53]	@ 0x35
100074bc:	f000 fca8 	bl	10007e10 <usbd_control_set_complete_callback>
100074c0:	f89d 3020 	ldrb.w	r3, [sp, #32]
100074c4:	f003 0260 	and.w	r2, r3, #96	@ 0x60
100074c8:	2a60      	cmp	r2, #96	@ 0x60
100074ca:	d06a      	beq.n	100075a2 <tud_task_ext+0x20e>
100074cc:	2a40      	cmp	r2, #64	@ 0x40
100074ce:	d07b      	beq.n	100075c8 <tud_task_ext+0x234>
100074d0:	f003 031f 	and.w	r3, r3, #31
100074d4:	2b01      	cmp	r3, #1
100074d6:	f000 80c9 	beq.w	1000766c <tud_task_ext+0x2d8>
100074da:	2b02      	cmp	r3, #2
100074dc:	f000 8090 	beq.w	10007600 <tud_task_ext+0x26c>
100074e0:	2b00      	cmp	r3, #0
100074e2:	d15e      	bne.n	100075a2 <tud_task_ext+0x20e>
100074e4:	2a20      	cmp	r2, #32
100074e6:	f000 8207 	beq.w	100078f8 <tud_task_ext+0x564>
100074ea:	f89d 3021 	ldrb.w	r3, [sp, #33]	@ 0x21
100074ee:	2b09      	cmp	r3, #9
100074f0:	d857      	bhi.n	100075a2 <tud_task_ext+0x20e>
100074f2:	e8df f013 	tbh	[pc, r3, lsl #1]
100074f6:	01ce      	.short	0x01ce
100074f8:	005601be 	.word	0x005601be
100074fc:	005601d8 	.word	0x005601d8
10007500:	018501af 	.word	0x018501af
10007504:	01790056 	.word	0x01790056
10007508:	010c      	.short	0x010c
1000750a:	782b      	ldrb	r3, [r5, #0]
1000750c:	07d9      	lsls	r1, r3, #31
1000750e:	f57f af4e 	bpl.w	100073ae <tud_task_ext+0x1a>
10007512:	f7ff feab 	bl	1000726c <tud_resume_cb>
10007516:	e74a      	b.n	100073ae <tud_task_ext+0x1a>
10007518:	78eb      	ldrb	r3, [r5, #3]
1000751a:	07da      	lsls	r2, r3, #31
1000751c:	f57f af47 	bpl.w	100073ae <tud_task_ext+0x1a>
10007520:	9808      	ldr	r0, [sp, #32]
10007522:	f7ff fe97 	bl	10007254 <tud_sof_cb>
10007526:	e742      	b.n	100073ae <tud_task_ext+0x1a>
10007528:	782b      	ldrb	r3, [r5, #0]
1000752a:	07d8      	lsls	r0, r3, #31
1000752c:	f57f af3f 	bpl.w	100073ae <tud_task_ext+0x1a>
10007530:	7828      	ldrb	r0, [r5, #0]
10007532:	f3c0 00c0 	ubfx	r0, r0, #3, #1
10007536:	f7ff fe97 	bl	10007268 <tud_suspend_cb>
1000753a:	e738      	b.n	100073ae <tud_task_ext+0x1a>
1000753c:	f89d 001c 	ldrb.w	r0, [sp, #28]
10007540:	f7ff fe40 	bl	100071c4 <configuration_reset>
10007544:	f000 fc5a 	bl	10007dfc <usbd_control_reset>
10007548:	f89d 3020 	ldrb.w	r3, [sp, #32]
1000754c:	70ab      	strb	r3, [r5, #2]
1000754e:	e72e      	b.n	100073ae <tud_task_ext+0x1a>
10007550:	f89d 001c 	ldrb.w	r0, [sp, #28]
10007554:	f7ff fe36 	bl	100071c4 <configuration_reset>
10007558:	f000 fc50 	bl	10007dfc <usbd_control_reset>
1000755c:	f7ff fe82 	bl	10007264 <tud_umount_cb>
10007560:	e725      	b.n	100073ae <tud_task_ext+0x1a>
10007562:	1c50      	adds	r0, r2, #1
10007564:	4298      	cmp	r0, r3
10007566:	da11      	bge.n	1000758c <tud_task_ext+0x1f8>
10007568:	f04f 23e0 	mov.w	r3, #3758153728	@ 0xe000e000
1000756c:	f8d3 3df0 	ldr.w	r3, [r3, #3568]	@ 0xdf0
10007570:	07dc      	lsls	r4, r3, #31
10007572:	d500      	bpl.n	10007576 <tud_task_ext+0x1e2>
10007574:	be00      	bkpt	0x0000
10007576:	b00b      	add	sp, #44	@ 0x2c
10007578:	e8bd 8ff0 	ldmia.w	sp!, {r4, r5, r6, r7, r8, r9, sl, fp, pc}
1000757c:	9b09      	ldr	r3, [sp, #36]	@ 0x24
1000757e:	f89d 2021 	ldrb.w	r2, [sp, #33]	@ 0x21
10007582:	f89d 001c 	ldrb.w	r0, [sp, #28]
10007586:	f000 fc57 	bl	10007e38 <usbd_control_xfer_cb>
1000758a:	e710      	b.n	100073ae <tud_task_ext+0x1a>
1000758c:	1a9b      	subs	r3, r3, r2
1000758e:	4a19      	ldr	r2, [pc, #100]	@ (100075f4 <tud_task_ext+0x260>)
10007590:	eb02 1343 	add.w	r3, r2, r3, lsl #5
10007594:	e75f      	b.n	10007456 <tud_task_ext+0xc2>
10007596:	f7ff fb6d 	bl	10006c74 <tud_descriptor_configuration_cb>
1000759a:	4602      	mov	r2, r0
1000759c:	2800      	cmp	r0, #0
1000759e:	f040 819b 	bne.w	100078d8 <tud_task_ext+0x544>
100075a2:	f04f 23e0 	mov.w	r3, #3758153728	@ 0xe000e000
100075a6:	f8d3 3df0 	ldr.w	r3, [r3, #3568]	@ 0xdf0
100075aa:	07de      	lsls	r6, r3, #31
100075ac:	d500      	bpl.n	100075b0 <tud_task_ext+0x21c>
100075ae:	be00      	bkpt	0x0000
100075b0:	f89d 001c 	ldrb.w	r0, [sp, #28]
100075b4:	2100      	movs	r1, #0
100075b6:	f7ff fd9b 	bl	100070f0 <dcd_edpt_stall>
100075ba:	2180      	movs	r1, #128	@ 0x80
100075bc:	f89d 001c 	ldrb.w	r0, [sp, #28]
100075c0:	f7ff fd96 	bl	100070f0 <dcd_edpt_stall>
100075c4:	e6f3      	b.n	100073ae <tud_task_ext+0x1a>
100075c6:	4770      	bx	lr
100075c8:	480b      	ldr	r0, [pc, #44]	@ (100075f8 <tud_task_ext+0x264>)
100075ca:	f000 fc21 	bl	10007e10 <usbd_control_set_complete_callback>
100075ce:	2101      	movs	r1, #1
100075d0:	4658      	mov	r0, fp
100075d2:	aa08      	add	r2, sp, #32
100075d4:	f7ff f900 	bl	100067d8 <tud_vendor_control_xfer_cb>
100075d8:	2800      	cmp	r0, #0
100075da:	f47f aee8 	bne.w	100073ae <tud_task_ext+0x1a>
100075de:	e7e7      	b.n	100075b0 <tud_task_ext+0x21c>
100075e0:	20001634 	.word	0x20001634
100075e4:	20001e00 	.word	0x20001e00
100075e8:	20001da8 	.word	0x20001da8
100075ec:	200026b6 	.word	0x200026b6
100075f0:	20001ca0 	.word	0x20001ca0
100075f4:	10009cfc 	.word	0x10009cfc
100075f8:	100067d9 	.word	0x100067d9
100075fc:	200026b4 	.word	0x200026b4
10007600:	f89d 1024 	ldrb.w	r1, [sp, #36]	@ 0x24
10007604:	f011 0f70 	tst.w	r1, #112	@ 0x70
10007608:	d1cb      	bne.n	100075a2 <tud_task_ext+0x20e>
1000760a:	4bb8      	ldr	r3, [pc, #736]	@ (100078ec <tud_task_ext+0x558>)
1000760c:	f001 067f 	and.w	r6, r1, #127	@ 0x7f
10007610:	7818      	ldrb	r0, [r3, #0]
10007612:	eb09 0346 	add.w	r3, r9, r6, lsl #1
10007616:	eb03 13d1 	add.w	r3, r3, r1, lsr #7
1000761a:	7d1b      	ldrb	r3, [r3, #20]
1000761c:	4283      	cmp	r3, r0
1000761e:	d35e      	bcc.n	100076de <tud_task_ext+0x34a>
10007620:	f100 0c01 	add.w	ip, r0, #1
10007624:	459c      	cmp	ip, r3
10007626:	f2c0 81bf 	blt.w	100079a8 <tud_task_ext+0x614>
1000762a:	1a1b      	subs	r3, r3, r0
1000762c:	48b0      	ldr	r0, [pc, #704]	@ (100078f0 <tud_task_ext+0x55c>)
1000762e:	eb00 1a43 	add.w	sl, r0, r3, lsl #5
10007632:	2a00      	cmp	r2, #0
10007634:	d15d      	bne.n	100076f2 <tud_task_ext+0x35e>
10007636:	f89d 2021 	ldrb.w	r2, [sp, #33]	@ 0x21
1000763a:	f002 03fd 	and.w	r3, r2, #253	@ 0xfd
1000763e:	2b01      	cmp	r3, #1
10007640:	f000 8177 	beq.w	10007932 <tud_task_ext+0x59e>
10007644:	2a00      	cmp	r2, #0
10007646:	d1ac      	bne.n	100075a2 <tud_task_ext+0x20e>
10007648:	4658      	mov	r0, fp
1000764a:	eb09 0646 	add.w	r6, r9, r6, lsl #1
1000764e:	eb06 16d1 	add.w	r6, r6, r1, lsr #7
10007652:	f896 3034 	ldrb.w	r3, [r6, #52]	@ 0x34
10007656:	f3c3 0340 	ubfx	r3, r3, #1, #1
1000765a:	f8ad 301a 	strh.w	r3, [sp, #26]
1000765e:	f10d 021a 	add.w	r2, sp, #26
10007662:	2302      	movs	r3, #2
10007664:	a908      	add	r1, sp, #32
10007666:	f000 fb67 	bl	10007d38 <tud_control_xfer>
1000766a:	e6a0      	b.n	100073ae <tud_task_ext+0x1a>
1000766c:	f89d 3024 	ldrb.w	r3, [sp, #36]	@ 0x24
10007670:	2b0f      	cmp	r3, #15
10007672:	d89d      	bhi.n	100075b0 <tud_task_ext+0x21c>
10007674:	4a9d      	ldr	r2, [pc, #628]	@ (100078ec <tud_task_ext+0x558>)
10007676:	444b      	add	r3, r9
10007678:	791b      	ldrb	r3, [r3, #4]
1000767a:	7812      	ldrb	r2, [r2, #0]
1000767c:	4293      	cmp	r3, r2
1000767e:	d328      	bcc.n	100076d2 <tud_task_ext+0x33e>
10007680:	1c51      	adds	r1, r2, #1
10007682:	4299      	cmp	r1, r3
10007684:	db94      	blt.n	100075b0 <tud_task_ext+0x21c>
10007686:	4e9a      	ldr	r6, [pc, #616]	@ (100078f0 <tud_task_ext+0x55c>)
10007688:	1a9b      	subs	r3, r3, r2
1000768a:	eb06 1643 	add.w	r6, r6, r3, lsl #5
1000768e:	6970      	ldr	r0, [r6, #20]
10007690:	f000 fbbe 	bl	10007e10 <usbd_control_set_complete_callback>
10007694:	2101      	movs	r1, #1
10007696:	4658      	mov	r0, fp
10007698:	6973      	ldr	r3, [r6, #20]
1000769a:	aa08      	add	r2, sp, #32
1000769c:	4798      	blx	r3
1000769e:	2800      	cmp	r0, #0
100076a0:	f47f ae85 	bne.w	100073ae <tud_task_ext+0x1a>
100076a4:	f89d 3020 	ldrb.w	r3, [sp, #32]
100076a8:	f013 0660 	ands.w	r6, r3, #96	@ 0x60
100076ac:	d180      	bne.n	100075b0 <tud_task_ext+0x21c>
100076ae:	f89d 3021 	ldrb.w	r3, [sp, #33]	@ 0x21
100076b2:	3b0a      	subs	r3, #10
100076b4:	2b01      	cmp	r3, #1
100076b6:	f63f af7b 	bhi.w	100075b0 <tud_task_ext+0x21c>
100076ba:	f000 fba9 	bl	10007e10 <usbd_control_set_complete_callback>
100076be:	f89d 3021 	ldrb.w	r3, [sp, #33]	@ 0x21
100076c2:	2b0a      	cmp	r3, #10
100076c4:	f000 81c2 	beq.w	10007a4c <tud_task_ext+0x6b8>
100076c8:	4658      	mov	r0, fp
100076ca:	a908      	add	r1, sp, #32
100076cc:	f000 fb18 	bl	10007d00 <tud_control_status>
100076d0:	e66d      	b.n	100073ae <tud_task_ext+0x1a>
100076d2:	4a88      	ldr	r2, [pc, #544]	@ (100078f4 <tud_task_ext+0x560>)
100076d4:	6816      	ldr	r6, [r2, #0]
100076d6:	eb16 1643 	adds.w	r6, r6, r3, lsl #5
100076da:	d1d8      	bne.n	1000768e <tud_task_ext+0x2fa>
100076dc:	e768      	b.n	100075b0 <tud_task_ext+0x21c>
100076de:	4885      	ldr	r0, [pc, #532]	@ (100078f4 <tud_task_ext+0x560>)
100076e0:	6800      	ldr	r0, [r0, #0]
100076e2:	eb00 1a43 	add.w	sl, r0, r3, lsl #5
100076e6:	2a00      	cmp	r2, #0
100076e8:	d0a5      	beq.n	10007636 <tud_task_ext+0x2a2>
100076ea:	f1ba 0f00 	cmp.w	sl, #0
100076ee:	f43f af5f 	beq.w	100075b0 <tud_task_ext+0x21c>
100076f2:	f8da 0014 	ldr.w	r0, [sl, #20]
100076f6:	f000 fb8b 	bl	10007e10 <usbd_control_set_complete_callback>
100076fa:	2101      	movs	r1, #1
100076fc:	4658      	mov	r0, fp
100076fe:	f8da 3014 	ldr.w	r3, [sl, #20]
10007702:	aa08      	add	r2, sp, #32
10007704:	4798      	blx	r3
10007706:	2800      	cmp	r0, #0
10007708:	f47f ae51 	bne.w	100073ae <tud_task_ext+0x1a>
1000770c:	e750      	b.n	100075b0 <tud_task_ext+0x21c>
1000770e:	f899 3001 	ldrb.w	r3, [r9, #1]
10007712:	f89d 6022 	ldrb.w	r6, [sp, #34]	@ 0x22
10007716:	429e      	cmp	r6, r3
10007718:	f000 814d 	beq.w	100079b6 <tud_task_ext+0x622>
1000771c:	f899 3001 	ldrb.w	r3, [r9, #1]
10007720:	2b00      	cmp	r3, #0
10007722:	f040 819d 	bne.w	10007a60 <tud_task_ext+0x6cc>
10007726:	f889 6001 	strb.w	r6, [r9, #1]
1000772a:	2e00      	cmp	r6, #0
1000772c:	f000 8141 	beq.w	100079b2 <tud_task_ext+0x61e>
10007730:	1e70      	subs	r0, r6, #1
10007732:	b2c0      	uxtb	r0, r0
10007734:	f7ff fa9e 	bl	10006c74 <tud_descriptor_configuration_cb>
10007738:	2800      	cmp	r0, #0
1000773a:	f000 815e 	beq.w	100079fa <tud_task_ext+0x666>
1000773e:	7843      	ldrb	r3, [r0, #1]
10007740:	2b02      	cmp	r3, #2
10007742:	f040 815a 	bne.w	100079fa <tud_task_ext+0x666>
10007746:	79c2      	ldrb	r2, [r0, #7]
10007748:	f899 1000 	ldrb.w	r1, [r9]
1000774c:	f3c2 1340 	ubfx	r3, r2, #5, #1
10007750:	011b      	lsls	r3, r3, #4
10007752:	f3c2 1280 	ubfx	r2, r2, #6, #1
10007756:	f021 0130 	bic.w	r1, r1, #48	@ 0x30
1000775a:	ea43 1342 	orr.w	r3, r3, r2, lsl #5
1000775e:	430b      	orrs	r3, r1
10007760:	f889 3000 	strb.w	r3, [r9]
10007764:	8843      	ldrh	r3, [r0, #2]
10007766:	f100 0109 	add.w	r1, r0, #9
1000776a:	18c3      	adds	r3, r0, r3
1000776c:	9304      	str	r3, [sp, #16]
1000776e:	9b04      	ldr	r3, [sp, #16]
10007770:	428b      	cmp	r3, r1
10007772:	f240 81b8 	bls.w	10007ae6 <tud_task_ext+0x752>
10007776:	784b      	ldrb	r3, [r1, #1]
10007778:	2b0b      	cmp	r3, #11
1000777a:	f000 81af 	beq.w	10007adc <tud_task_ext+0x748>
1000777e:	2001      	movs	r0, #1
10007780:	2b04      	cmp	r3, #4
10007782:	f040 813a 	bne.w	100079fa <tud_task_ext+0x666>
10007786:	2300      	movs	r3, #0
10007788:	9a04      	ldr	r2, [sp, #16]
1000778a:	9301      	str	r3, [sp, #4]
1000778c:	1a52      	subs	r2, r2, r1
1000778e:	fa1f fa82 	uxth.w	sl, r2
10007792:	4a56      	ldr	r2, [pc, #344]	@ (100078ec <tud_task_ext+0x558>)
10007794:	9005      	str	r0, [sp, #20]
10007796:	7812      	ldrb	r2, [r2, #0]
10007798:	e01d      	b.n	100077d6 <tud_task_ext+0x442>
1000779a:	4a56      	ldr	r2, [pc, #344]	@ (100078f4 <tud_task_ext+0x560>)
1000779c:	6816      	ldr	r6, [r2, #0]
1000779e:	eb16 1643 	adds.w	r6, r6, r3, lsl #5
100077a2:	f000 812a 	beq.w	100079fa <tud_task_ext+0x666>
100077a6:	9303      	str	r3, [sp, #12]
100077a8:	4652      	mov	r2, sl
100077aa:	6933      	ldr	r3, [r6, #16]
100077ac:	4658      	mov	r0, fp
100077ae:	9102      	str	r1, [sp, #8]
100077b0:	4798      	blx	r3
100077b2:	9b03      	ldr	r3, [sp, #12]
100077b4:	2808      	cmp	r0, #8
100077b6:	9902      	ldr	r1, [sp, #8]
100077b8:	f103 0c01 	add.w	ip, r3, #1
100077bc:	d902      	bls.n	100077c4 <tud_task_ext+0x430>
100077be:	4582      	cmp	sl, r0
100077c0:	f080 80fe 	bcs.w	100079c0 <tud_task_ext+0x62c>
100077c4:	4a49      	ldr	r2, [pc, #292]	@ (100078ec <tud_task_ext+0x558>)
100077c6:	fa5f f38c 	uxtb.w	r3, ip
100077ca:	7812      	ldrb	r2, [r2, #0]
100077cc:	9301      	str	r3, [sp, #4]
100077ce:	1c50      	adds	r0, r2, #1
100077d0:	4283      	cmp	r3, r0
100077d2:	f300 8112 	bgt.w	100079fa <tud_task_ext+0x666>
100077d6:	9801      	ldr	r0, [sp, #4]
100077d8:	429a      	cmp	r2, r3
100077da:	eba0 0202 	sub.w	r2, r0, r2
100077de:	d8dc      	bhi.n	1000779a <tud_task_ext+0x406>
100077e0:	4843      	ldr	r0, [pc, #268]	@ (100078f0 <tud_task_ext+0x55c>)
100077e2:	eb00 1642 	add.w	r6, r0, r2, lsl #5
100077e6:	e7de      	b.n	100077a6 <tud_task_ext+0x412>
100077e8:	f899 3001 	ldrb.w	r3, [r9, #1]
100077ec:	4658      	mov	r0, fp
100077ee:	f88d 301a 	strb.w	r3, [sp, #26]
100077f2:	f10d 021a 	add.w	r2, sp, #26
100077f6:	2301      	movs	r3, #1
100077f8:	a908      	add	r1, sp, #32
100077fa:	f000 fa9d 	bl	10007d38 <tud_control_xfer>
100077fe:	e5d6      	b.n	100073ae <tud_task_ext+0x1a>
10007800:	f8bd 0022 	ldrh.w	r0, [sp, #34]	@ 0x22
10007804:	0a03      	lsrs	r3, r0, #8
10007806:	1e5a      	subs	r2, r3, #1
10007808:	b2c0      	uxtb	r0, r0
1000780a:	2a0e      	cmp	r2, #14
1000780c:	f63f aed0 	bhi.w	100075b0 <tud_task_ext+0x21c>
10007810:	a101      	add	r1, pc, #4	@ (adr r1, 10007818 <tud_task_ext+0x484>)
10007812:	f851 f022 	ldr.w	pc, [r1, r2, lsl #2]
10007816:	bf00      	nop
10007818:	10007a91 	.word	0x10007a91
1000781c:	100078c7 	.word	0x100078c7
10007820:	10007acd 	.word	0x10007acd
10007824:	100075b1 	.word	0x100075b1
10007828:	100075b1 	.word	0x100075b1
1000782c:	10007aaf 	.word	0x10007aaf
10007830:	100078c7 	.word	0x100078c7
10007834:	100075b1 	.word	0x100075b1
10007838:	100075b1 	.word	0x100075b1
1000783c:	100075b1 	.word	0x100075b1
10007840:	100075b1 	.word	0x100075b1
10007844:	100075b1 	.word	0x100075b1
10007848:	100075b1 	.word	0x100075b1
1000784c:	100075b1 	.word	0x100075b1
10007850:	10007a83 	.word	0x10007a83
10007854:	a808      	add	r0, sp, #32
10007856:	f000 fae1 	bl	10007e1c <usbd_control_set_request>
1000785a:	4658      	mov	r0, fp
1000785c:	f89d 1022 	ldrb.w	r1, [sp, #34]	@ 0x22
10007860:	f7ff fb7c 	bl	10006f5c <dcd_set_address>
10007864:	f899 3000 	ldrb.w	r3, [r9]
10007868:	f043 0302 	orr.w	r3, r3, #2
1000786c:	f889 3000 	strb.w	r3, [r9]
10007870:	e59d      	b.n	100073ae <tud_task_ext+0x1a>
10007872:	f8bd 3022 	ldrh.w	r3, [sp, #34]	@ 0x22
10007876:	2b01      	cmp	r3, #1
10007878:	f47f ae9a 	bne.w	100075b0 <tud_task_ext+0x21c>
1000787c:	f899 3000 	ldrb.w	r3, [r9]
10007880:	4658      	mov	r0, fp
10007882:	f023 0308 	bic.w	r3, r3, #8
10007886:	a908      	add	r1, sp, #32
10007888:	f889 3000 	strb.w	r3, [r9]
1000788c:	f000 fa38 	bl	10007d00 <tud_control_status>
10007890:	e58d      	b.n	100073ae <tud_task_ext+0x1a>
10007892:	f899 3000 	ldrb.w	r3, [r9]
10007896:	4658      	mov	r0, fp
10007898:	089a      	lsrs	r2, r3, #2
1000789a:	f002 0202 	and.w	r2, r2, #2
1000789e:	f3c3 1340 	ubfx	r3, r3, #5, #1
100078a2:	4313      	orrs	r3, r2
100078a4:	e6d9      	b.n	1000765a <tud_task_ext+0x2c6>
100078a6:	f8bd 3022 	ldrh.w	r3, [sp, #34]	@ 0x22
100078aa:	2b01      	cmp	r3, #1
100078ac:	f47f ae80 	bne.w	100075b0 <tud_task_ext+0x21c>
100078b0:	f899 3000 	ldrb.w	r3, [r9]
100078b4:	4658      	mov	r0, fp
100078b6:	f043 0308 	orr.w	r3, r3, #8
100078ba:	a908      	add	r1, sp, #32
100078bc:	f889 3000 	strb.w	r3, [r9]
100078c0:	f000 fa1e 	bl	10007d00 <tud_control_status>
100078c4:	e573      	b.n	100073ae <tud_task_ext+0x1a>
100078c6:	2b02      	cmp	r3, #2
100078c8:	f43f ae65 	beq.w	10007596 <tud_task_ext+0x202>
100078cc:	f7ff fcc6 	bl	1000725c <tud_descriptor_other_speed_configuration_cb>
100078d0:	4602      	mov	r2, r0
100078d2:	2800      	cmp	r0, #0
100078d4:	f43f ae6c 	beq.w	100075b0 <tud_task_ext+0x21c>
100078d8:	4658      	mov	r0, fp
100078da:	8853      	ldrh	r3, [r2, #2]
100078dc:	a908      	add	r1, sp, #32
100078de:	f000 fa2b 	bl	10007d38 <tud_control_xfer>
100078e2:	2800      	cmp	r0, #0
100078e4:	f47f ad63 	bne.w	100073ae <tud_task_ext+0x1a>
100078e8:	e662      	b.n	100075b0 <tud_task_ext+0x21c>
100078ea:	bf00      	nop
100078ec:	200026b4 	.word	0x200026b4
100078f0:	10009cfc 	.word	0x10009cfc
100078f4:	20001ca0 	.word	0x20001ca0
100078f8:	f89d 3024 	ldrb.w	r3, [sp, #36]	@ 0x24
100078fc:	2b0f      	cmp	r3, #15
100078fe:	f63f ae57 	bhi.w	100075b0 <tud_task_ext+0x21c>
10007902:	4a8b      	ldr	r2, [pc, #556]	@ (10007b30 <tud_task_ext+0x79c>)
10007904:	444b      	add	r3, r9
10007906:	791b      	ldrb	r3, [r3, #4]
10007908:	7812      	ldrb	r2, [r2, #0]
1000790a:	4293      	cmp	r3, r2
1000790c:	d243      	bcs.n	10007996 <tud_task_ext+0x602>
1000790e:	4a89      	ldr	r2, [pc, #548]	@ (10007b34 <tud_task_ext+0x7a0>)
10007910:	6816      	ldr	r6, [r2, #0]
10007912:	eb16 1643 	adds.w	r6, r6, r3, lsl #5
10007916:	f43f ae4b 	beq.w	100075b0 <tud_task_ext+0x21c>
1000791a:	6970      	ldr	r0, [r6, #20]
1000791c:	f000 fa78 	bl	10007e10 <usbd_control_set_complete_callback>
10007920:	2101      	movs	r1, #1
10007922:	4658      	mov	r0, fp
10007924:	6973      	ldr	r3, [r6, #20]
10007926:	aa08      	add	r2, sp, #32
10007928:	4798      	blx	r3
1000792a:	2800      	cmp	r0, #0
1000792c:	f47f ad3f 	bne.w	100073ae <tud_task_ext+0x1a>
10007930:	e63e      	b.n	100075b0 <tud_task_ext+0x21c>
10007932:	f8bd 3022 	ldrh.w	r3, [sp, #34]	@ 0x22
10007936:	b9bb      	cbnz	r3, 10007968 <tud_task_ext+0x5d4>
10007938:	487f      	ldr	r0, [pc, #508]	@ (10007b38 <tud_task_ext+0x7a4>)
1000793a:	2a01      	cmp	r2, #1
1000793c:	7800      	ldrb	r0, [r0, #0]
1000793e:	d06e      	beq.n	10007a1e <tud_task_ext+0x68a>
10007940:	9101      	str	r1, [sp, #4]
10007942:	f7ff fbd5 	bl	100070f0 <dcd_edpt_stall>
10007946:	9901      	ldr	r1, [sp, #4]
10007948:	eb09 0346 	add.w	r3, r9, r6, lsl #1
1000794c:	eb03 13d1 	add.w	r3, r3, r1, lsr #7
10007950:	f893 2034 	ldrb.w	r2, [r3, #52]	@ 0x34
10007954:	f042 0202 	orr.w	r2, r2, #2
10007958:	f883 2034 	strb.w	r2, [r3, #52]	@ 0x34
1000795c:	f893 2034 	ldrb.w	r2, [r3, #52]	@ 0x34
10007960:	f042 0201 	orr.w	r2, r2, #1
10007964:	f883 2034 	strb.w	r2, [r3, #52]	@ 0x34
10007968:	f1ba 0f00 	cmp.w	sl, #0
1000796c:	f43f ad1f 	beq.w	100073ae <tud_task_ext+0x1a>
10007970:	f8da 0014 	ldr.w	r0, [sl, #20]
10007974:	f000 fa4c 	bl	10007e10 <usbd_control_set_complete_callback>
10007978:	f8da 3014 	ldr.w	r3, [sl, #20]
1000797c:	2101      	movs	r1, #1
1000797e:	aa08      	add	r2, sp, #32
10007980:	4658      	mov	r0, fp
10007982:	4798      	blx	r3
10007984:	2000      	movs	r0, #0
10007986:	f000 fa43 	bl	10007e10 <usbd_control_set_complete_callback>
1000798a:	f899 3035 	ldrb.w	r3, [r9, #53]	@ 0x35
1000798e:	07db      	lsls	r3, r3, #31
10007990:	f53f ad0d 	bmi.w	100073ae <tud_task_ext+0x1a>
10007994:	e698      	b.n	100076c8 <tud_task_ext+0x334>
10007996:	1c51      	adds	r1, r2, #1
10007998:	4299      	cmp	r1, r3
1000799a:	f6ff ae09 	blt.w	100075b0 <tud_task_ext+0x21c>
1000799e:	4e67      	ldr	r6, [pc, #412]	@ (10007b3c <tud_task_ext+0x7a8>)
100079a0:	1a9b      	subs	r3, r3, r2
100079a2:	eb06 1643 	add.w	r6, r6, r3, lsl #5
100079a6:	e7b8      	b.n	1000791a <tud_task_ext+0x586>
100079a8:	2a00      	cmp	r2, #0
100079aa:	f47f ae01 	bne.w	100075b0 <tud_task_ext+0x21c>
100079ae:	4692      	mov	sl, r2
100079b0:	e641      	b.n	10007636 <tud_task_ext+0x2a2>
100079b2:	f7ff fc57 	bl	10007264 <tud_umount_cb>
100079b6:	4658      	mov	r0, fp
100079b8:	a908      	add	r1, sp, #32
100079ba:	f000 f9a1 	bl	10007d00 <tud_control_status>
100079be:	e4f6      	b.n	100073ae <tud_task_ext+0x1a>
100079c0:	4602      	mov	r2, r0
100079c2:	9805      	ldr	r0, [sp, #20]
100079c4:	2801      	cmp	r0, #1
100079c6:	f000 80a2 	beq.w	10007b0e <tud_task_ext+0x77a>
100079ca:	2800      	cmp	r0, #0
100079cc:	f000 808f 	beq.w	10007aee <tud_task_ext+0x75a>
100079d0:	2600      	movs	r6, #0
100079d2:	4692      	mov	sl, r2
100079d4:	f891 e002 	ldrb.w	lr, [r1, #2]
100079d8:	e006      	b.n	100079e8 <tud_task_ext+0x654>
100079da:	f88c 3004 	strb.w	r3, [ip, #4]
100079de:	fa5f fc86 	uxtb.w	ip, r6
100079e2:	4560      	cmp	r0, ip
100079e4:	f240 8082 	bls.w	10007aec <tud_task_ext+0x758>
100079e8:	eb0e 0c06 	add.w	ip, lr, r6
100079ec:	fa59 fc8c 	uxtab	ip, r9, ip
100079f0:	f89c 2004 	ldrb.w	r2, [ip, #4]
100079f4:	3601      	adds	r6, #1
100079f6:	2aff      	cmp	r2, #255	@ 0xff
100079f8:	d0ef      	beq.n	100079da <tud_task_ext+0x646>
100079fa:	f04f 23e0 	mov.w	r3, #3758153728	@ 0xe000e000
100079fe:	f8d3 3df0 	ldr.w	r3, [r3, #3568]	@ 0xdf0
10007a02:	07d9      	lsls	r1, r3, #31
10007a04:	d500      	bpl.n	10007a08 <tud_task_ext+0x674>
10007a06:	be00      	bkpt	0x0000
10007a08:	f04f 23e0 	mov.w	r3, #3758153728	@ 0xe000e000
10007a0c:	f8d3 3df0 	ldr.w	r3, [r3, #3568]	@ 0xdf0
10007a10:	07da      	lsls	r2, r3, #31
10007a12:	d500      	bpl.n	10007a16 <tud_task_ext+0x682>
10007a14:	be00      	bkpt	0x0000
10007a16:	2300      	movs	r3, #0
10007a18:	f889 3001 	strb.w	r3, [r9, #1]
10007a1c:	e5c8      	b.n	100075b0 <tud_task_ext+0x21c>
10007a1e:	e9cd 1301 	strd	r1, r3, [sp, #4]
10007a22:	f7ff fb7d 	bl	10007120 <dcd_edpt_clear_stall>
10007a26:	9901      	ldr	r1, [sp, #4]
10007a28:	eb09 0246 	add.w	r2, r9, r6, lsl #1
10007a2c:	eb02 12d1 	add.w	r2, r2, r1, lsr #7
10007a30:	f892 1034 	ldrb.w	r1, [r2, #52]	@ 0x34
10007a34:	9b02      	ldr	r3, [sp, #8]
10007a36:	f363 0141 	bfi	r1, r3, #1, #1
10007a3a:	f882 1034 	strb.w	r1, [r2, #52]	@ 0x34
10007a3e:	f892 1034 	ldrb.w	r1, [r2, #52]	@ 0x34
10007a42:	f363 0100 	bfi	r1, r3, #0, #1
10007a46:	f882 1034 	strb.w	r1, [r2, #52]	@ 0x34
10007a4a:	e78d      	b.n	10007968 <tud_task_ext+0x5d4>
10007a4c:	4658      	mov	r0, fp
10007a4e:	2301      	movs	r3, #1
10007a50:	a908      	add	r1, sp, #32
10007a52:	f10d 021a 	add.w	r2, sp, #26
10007a56:	f88d 601a 	strb.w	r6, [sp, #26]
10007a5a:	f000 f96d 	bl	10007d38 <tud_control_xfer>
10007a5e:	e4a6      	b.n	100073ae <tud_task_ext+0x1a>
10007a60:	2100      	movs	r1, #0
10007a62:	4658      	mov	r0, fp
10007a64:	f7ff fa82 	bl	10006f6c <dcd_sof_enable>
10007a68:	4658      	mov	r0, fp
10007a6a:	f7ff fb2b 	bl	100070c4 <dcd_edpt_close_all>
10007a6e:	f899 3002 	ldrb.w	r3, [r9, #2]
10007a72:	4658      	mov	r0, fp
10007a74:	9301      	str	r3, [sp, #4]
10007a76:	f7ff fba5 	bl	100071c4 <configuration_reset>
10007a7a:	9b01      	ldr	r3, [sp, #4]
10007a7c:	f889 3002 	strb.w	r3, [r9, #2]
10007a80:	e651      	b.n	10007726 <tud_task_ext+0x392>
10007a82:	f7fe fea5 	bl	100067d0 <tud_descriptor_bos_cb>
10007a86:	4602      	mov	r2, r0
10007a88:	2800      	cmp	r0, #0
10007a8a:	f47f af25 	bne.w	100078d8 <tud_task_ext+0x544>
10007a8e:	e58f      	b.n	100075b0 <tud_task_ext+0x21c>
10007a90:	f7ff f8ec 	bl	10006c6c <tud_descriptor_device_cb>
10007a94:	4602      	mov	r2, r0
10007a96:	2800      	cmp	r0, #0
10007a98:	f43f ad83 	beq.w	100075a2 <tud_task_ext+0x20e>
10007a9c:	4658      	mov	r0, fp
10007a9e:	2312      	movs	r3, #18
10007aa0:	a908      	add	r1, sp, #32
10007aa2:	f000 f949 	bl	10007d38 <tud_control_xfer>
10007aa6:	2800      	cmp	r0, #0
10007aa8:	f47f ac81 	bne.w	100073ae <tud_task_ext+0x1a>
10007aac:	e580      	b.n	100075b0 <tud_task_ext+0x21c>
10007aae:	f7ff fbd3 	bl	10007258 <tud_descriptor_device_qualifier_cb>
10007ab2:	4602      	mov	r2, r0
10007ab4:	2800      	cmp	r0, #0
10007ab6:	f43f ad7b 	beq.w	100075b0 <tud_task_ext+0x21c>
10007aba:	4658      	mov	r0, fp
10007abc:	7813      	ldrb	r3, [r2, #0]
10007abe:	a908      	add	r1, sp, #32
10007ac0:	f000 f93a 	bl	10007d38 <tud_control_xfer>
10007ac4:	2800      	cmp	r0, #0
10007ac6:	f47f ac72 	bne.w	100073ae <tud_task_ext+0x1a>
10007aca:	e571      	b.n	100075b0 <tud_task_ext+0x21c>
10007acc:	f8bd 1024 	ldrh.w	r1, [sp, #36]	@ 0x24
10007ad0:	f7ff f8d4 	bl	10006c7c <tud_descriptor_string_cb>
10007ad4:	4602      	mov	r2, r0
10007ad6:	2800      	cmp	r0, #0
10007ad8:	d1ef      	bne.n	10007aba <tud_task_ext+0x726>
10007ada:	e569      	b.n	100075b0 <tud_task_ext+0x21c>
10007adc:	780b      	ldrb	r3, [r1, #0]
10007ade:	78c8      	ldrb	r0, [r1, #3]
10007ae0:	4419      	add	r1, r3
10007ae2:	784b      	ldrb	r3, [r1, #1]
10007ae4:	e64c      	b.n	10007780 <tud_task_ext+0x3ec>
10007ae6:	f7ff fbbb 	bl	10007260 <tud_mount_cb>
10007aea:	e764      	b.n	100079b6 <tud_task_ext+0x622>
10007aec:	4652      	mov	r2, sl
10007aee:	4814      	ldr	r0, [pc, #80]	@ (10007b40 <tud_task_ext+0x7ac>)
10007af0:	e9cd 1202 	strd	r1, r2, [sp, #8]
10007af4:	f000 fec8 	bl	10008888 <tu_edpt_bind_driver>
10007af8:	e9dd 1202 	ldrd	r1, r2, [sp, #8]
10007afc:	4b0c      	ldr	r3, [pc, #48]	@ (10007b30 <tud_task_ext+0x79c>)
10007afe:	4411      	add	r1, r2
10007b00:	781b      	ldrb	r3, [r3, #0]
10007b02:	9a01      	ldr	r2, [sp, #4]
10007b04:	3301      	adds	r3, #1
10007b06:	4293      	cmp	r3, r2
10007b08:	f6bf ae31 	bge.w	1000776e <tud_task_ext+0x3da>
10007b0c:	e775      	b.n	100079fa <tud_task_ext+0x666>
10007b0e:	f8d6 c010 	ldr.w	ip, [r6, #16]
10007b12:	4e0c      	ldr	r6, [pc, #48]	@ (10007b44 <tud_task_ext+0x7b0>)
10007b14:	45b4      	cmp	ip, r6
10007b16:	bf08      	it	eq
10007b18:	2002      	moveq	r0, #2
10007b1a:	e759      	b.n	100079d0 <tud_task_ext+0x63c>
10007b1c:	f04f 23e0 	mov.w	r3, #3758153728	@ 0xe000e000
10007b20:	f8d3 3df0 	ldr.w	r3, [r3, #3568]	@ 0xdf0
10007b24:	07db      	lsls	r3, r3, #31
10007b26:	f57f ac42 	bpl.w	100073ae <tud_task_ext+0x1a>
10007b2a:	be00      	bkpt	0x0000
10007b2c:	e43f      	b.n	100073ae <tud_task_ext+0x1a>
10007b2e:	bf00      	nop
10007b30:	200026b4 	.word	0x200026b4
10007b34:	20001ca0 	.word	0x20001ca0
10007b38:	20001634 	.word	0x20001634
10007b3c:	10009cfc 	.word	0x10009cfc
10007b40:	20001dbc 	.word	0x20001dbc
10007b44:	10008259 	.word	0x10008259

10007b48 <usbd_open_edpt_pair>:
10007b48:	e92d 4ff8 	stmdb	sp!, {r3, r4, r5, r6, r7, r8, r9, sl, fp, lr}
10007b4c:	9f0a      	ldr	r7, [sp, #40]	@ 0x28
10007b4e:	2a00      	cmp	r2, #0
10007b50:	d043      	beq.n	10007bda <usbd_open_edpt_pair+0x92>
10007b52:	460c      	mov	r4, r1
10007b54:	461e      	mov	r6, r3
10007b56:	4615      	mov	r5, r2
10007b58:	f04f 0b00 	mov.w	fp, #0
10007b5c:	f8df 9080 	ldr.w	r9, [pc, #128]	@ 10007be0 <usbd_open_edpt_pair+0x98>
10007b60:	f8df 8080 	ldr.w	r8, [pc, #128]	@ 10007be4 <usbd_open_edpt_pair+0x9c>
10007b64:	e016      	b.n	10007b94 <usbd_open_edpt_pair+0x4c>
10007b66:	4620      	mov	r0, r4
10007b68:	f898 1002 	ldrb.w	r1, [r8, #2]
10007b6c:	f899 a000 	ldrb.w	sl, [r9]
10007b70:	f000 fe5a 	bl	10008828 <tu_edpt_validate>
10007b74:	b1d0      	cbz	r0, 10007bac <usbd_open_edpt_pair+0x64>
10007b76:	4621      	mov	r1, r4
10007b78:	4650      	mov	r0, sl
10007b7a:	f7ff fa13 	bl	10006fa4 <dcd_edpt_open>
10007b7e:	b1e0      	cbz	r0, 10007bba <usbd_open_edpt_pair+0x72>
10007b80:	78a3      	ldrb	r3, [r4, #2]
10007b82:	f10b 0b01 	add.w	fp, fp, #1
10007b86:	09da      	lsrs	r2, r3, #7
10007b88:	d120      	bne.n	10007bcc <usbd_open_edpt_pair+0x84>
10007b8a:	45ab      	cmp	fp, r5
10007b8c:	703b      	strb	r3, [r7, #0]
10007b8e:	d01b      	beq.n	10007bc8 <usbd_open_edpt_pair+0x80>
10007b90:	7823      	ldrb	r3, [r4, #0]
10007b92:	441c      	add	r4, r3
10007b94:	7863      	ldrb	r3, [r4, #1]
10007b96:	2b05      	cmp	r3, #5
10007b98:	d10f      	bne.n	10007bba <usbd_open_edpt_pair+0x72>
10007b9a:	78e1      	ldrb	r1, [r4, #3]
10007b9c:	f001 0103 	and.w	r1, r1, #3
10007ba0:	42b1      	cmp	r1, r6
10007ba2:	d10a      	bne.n	10007bba <usbd_open_edpt_pair+0x72>
10007ba4:	78a3      	ldrb	r3, [r4, #2]
10007ba6:	f013 0f70 	tst.w	r3, #112	@ 0x70
10007baa:	d0dc      	beq.n	10007b66 <usbd_open_edpt_pair+0x1e>
10007bac:	f04f 23e0 	mov.w	r3, #3758153728	@ 0xe000e000
10007bb0:	f8d3 3df0 	ldr.w	r3, [r3, #3568]	@ 0xdf0
10007bb4:	07da      	lsls	r2, r3, #31
10007bb6:	d500      	bpl.n	10007bba <usbd_open_edpt_pair+0x72>
10007bb8:	be00      	bkpt	0x0000
10007bba:	f04f 23e0 	mov.w	r3, #3758153728	@ 0xe000e000
10007bbe:	f8d3 3df0 	ldr.w	r3, [r3, #3568]	@ 0xdf0
10007bc2:	07db      	lsls	r3, r3, #31
10007bc4:	d407      	bmi.n	10007bd6 <usbd_open_edpt_pair+0x8e>
10007bc6:	2000      	movs	r0, #0
10007bc8:	e8bd 8ff8 	ldmia.w	sp!, {r3, r4, r5, r6, r7, r8, r9, sl, fp, pc}
10007bcc:	9a0b      	ldr	r2, [sp, #44]	@ 0x2c
10007bce:	45ab      	cmp	fp, r5
10007bd0:	7013      	strb	r3, [r2, #0]
10007bd2:	d1dd      	bne.n	10007b90 <usbd_open_edpt_pair+0x48>
10007bd4:	e7f8      	b.n	10007bc8 <usbd_open_edpt_pair+0x80>
10007bd6:	be00      	bkpt	0x0000
10007bd8:	e7f5      	b.n	10007bc6 <usbd_open_edpt_pair+0x7e>
10007bda:	2001      	movs	r0, #1
10007bdc:	e7f4      	b.n	10007bc8 <usbd_open_edpt_pair+0x80>
10007bde:	bf00      	nop
10007be0:	20001634 	.word	0x20001634
10007be4:	20001da8 	.word	0x20001da8

10007be8 <usbd_edpt_open>:
10007be8:	788b      	ldrb	r3, [r1, #2]
10007bea:	f013 0f70 	tst.w	r3, #112	@ 0x70
10007bee:	d008      	beq.n	10007c02 <usbd_edpt_open+0x1a>
10007bf0:	f04f 23e0 	mov.w	r3, #3758153728	@ 0xe000e000
10007bf4:	f8d3 3df0 	ldr.w	r3, [r3, #3568]	@ 0xdf0
10007bf8:	07da      	lsls	r2, r3, #31
10007bfa:	d500      	bpl.n	10007bfe <usbd_edpt_open+0x16>
10007bfc:	be00      	bkpt	0x0000
10007bfe:	2000      	movs	r0, #0
10007c00:	4770      	bx	lr
10007c02:	b510      	push	{r4, lr}
10007c04:	b082      	sub	sp, #8
10007c06:	4608      	mov	r0, r1
10007c08:	9101      	str	r1, [sp, #4]
10007c0a:	490c      	ldr	r1, [pc, #48]	@ (10007c3c <usbd_edpt_open+0x54>)
10007c0c:	4a0c      	ldr	r2, [pc, #48]	@ (10007c40 <usbd_edpt_open+0x58>)
10007c0e:	7889      	ldrb	r1, [r1, #2]
10007c10:	7814      	ldrb	r4, [r2, #0]
10007c12:	f000 fe09 	bl	10008828 <tu_edpt_validate>
10007c16:	b948      	cbnz	r0, 10007c2c <usbd_edpt_open+0x44>
10007c18:	f04f 23e0 	mov.w	r3, #3758153728	@ 0xe000e000
10007c1c:	f8d3 3df0 	ldr.w	r3, [r3, #3568]	@ 0xdf0
10007c20:	07db      	lsls	r3, r3, #31
10007c22:	d500      	bpl.n	10007c26 <usbd_edpt_open+0x3e>
10007c24:	be00      	bkpt	0x0000
10007c26:	2000      	movs	r0, #0
10007c28:	b002      	add	sp, #8
10007c2a:	bd10      	pop	{r4, pc}
10007c2c:	4620      	mov	r0, r4
10007c2e:	9901      	ldr	r1, [sp, #4]
10007c30:	b002      	add	sp, #8
10007c32:	e8bd 4010 	ldmia.w	sp!, {r4, lr}
10007c36:	f7ff b9b5 	b.w	10006fa4 <dcd_edpt_open>
10007c3a:	bf00      	nop
10007c3c:	20001da8 	.word	0x20001da8
10007c40:	20001634 	.word	0x20001634

10007c44 <usbd_edpt_claim>:
10007c44:	460a      	mov	r2, r1
10007c46:	4b06      	ldr	r3, [pc, #24]	@ (10007c60 <usbd_edpt_claim+0x1c>)
10007c48:	4806      	ldr	r0, [pc, #24]	@ (10007c64 <usbd_edpt_claim+0x20>)
10007c4a:	6819      	ldr	r1, [r3, #0]
10007c4c:	09d3      	lsrs	r3, r2, #7
10007c4e:	3334      	adds	r3, #52	@ 0x34
10007c50:	f002 027f 	and.w	r2, r2, #127	@ 0x7f
10007c54:	eb03 0342 	add.w	r3, r3, r2, lsl #1
10007c58:	4418      	add	r0, r3
10007c5a:	f000 bd99 	b.w	10008790 <tu_edpt_claim>
10007c5e:	bf00      	nop
10007c60:	20001dfc 	.word	0x20001dfc
10007c64:	20001da8 	.word	0x20001da8

10007c68 <usbd_edpt_release>:
10007c68:	460a      	mov	r2, r1
10007c6a:	4b06      	ldr	r3, [pc, #24]	@ (10007c84 <usbd_edpt_release+0x1c>)
10007c6c:	4806      	ldr	r0, [pc, #24]	@ (10007c88 <usbd_edpt_release+0x20>)
10007c6e:	6819      	ldr	r1, [r3, #0]
10007c70:	09d3      	lsrs	r3, r2, #7
10007c72:	3334      	adds	r3, #52	@ 0x34
10007c74:	f002 027f 	and.w	r2, r2, #127	@ 0x7f
10007c78:	eb03 0342 	add.w	r3, r3, r2, lsl #1
10007c7c:	4418      	add	r0, r3
10007c7e:	f000 bdb7 	b.w	100087f0 <tu_edpt_release>
10007c82:	bf00      	nop
10007c84:	20001dfc 	.word	0x20001dfc
10007c88:	20001da8 	.word	0x20001da8

10007c8c <usbd_edpt_xfer>:
10007c8c:	b510      	push	{r4, lr}
10007c8e:	4c1a      	ldr	r4, [pc, #104]	@ (10007cf8 <usbd_edpt_xfer+0x6c>)
10007c90:	f001 007f 	and.w	r0, r1, #127	@ 0x7f
10007c94:	eb04 0440 	add.w	r4, r4, r0, lsl #1
10007c98:	eb04 14d1 	add.w	r4, r4, r1, lsr #7
10007c9c:	f894 0034 	ldrb.w	r0, [r4, #52]	@ 0x34
10007ca0:	07c0      	lsls	r0, r0, #31
10007ca2:	d508      	bpl.n	10007cb6 <usbd_edpt_xfer+0x2a>
10007ca4:	f04f 23e0 	mov.w	r3, #3758153728	@ 0xe000e000
10007ca8:	f8d3 3df0 	ldr.w	r3, [r3, #3568]	@ 0xdf0
10007cac:	07da      	lsls	r2, r3, #31
10007cae:	d500      	bpl.n	10007cb2 <usbd_edpt_xfer+0x26>
10007cb0:	be00      	bkpt	0x0000
10007cb2:	2000      	movs	r0, #0
10007cb4:	bd10      	pop	{r4, pc}
10007cb6:	f894 c034 	ldrb.w	ip, [r4, #52]	@ 0x34
10007cba:	4810      	ldr	r0, [pc, #64]	@ (10007cfc <usbd_edpt_xfer+0x70>)
10007cbc:	f04c 0c01 	orr.w	ip, ip, #1
10007cc0:	7800      	ldrb	r0, [r0, #0]
10007cc2:	f884 c034 	strb.w	ip, [r4, #52]	@ 0x34
10007cc6:	f7ff f9ff 	bl	100070c8 <dcd_edpt_xfer>
10007cca:	2800      	cmp	r0, #0
10007ccc:	d1f2      	bne.n	10007cb4 <usbd_edpt_xfer+0x28>
10007cce:	f04f 22e0 	mov.w	r2, #3758153728	@ 0xe000e000
10007cd2:	f894 3034 	ldrb.w	r3, [r4, #52]	@ 0x34
10007cd6:	f360 0300 	bfi	r3, r0, #0, #1
10007cda:	f884 3034 	strb.w	r3, [r4, #52]	@ 0x34
10007cde:	f894 3034 	ldrb.w	r3, [r4, #52]	@ 0x34
10007ce2:	f360 0382 	bfi	r3, r0, #2, #1
10007ce6:	f884 3034 	strb.w	r3, [r4, #52]	@ 0x34
10007cea:	f8d2 3df0 	ldr.w	r3, [r2, #3568]	@ 0xdf0
10007cee:	07db      	lsls	r3, r3, #31
10007cf0:	d5e0      	bpl.n	10007cb4 <usbd_edpt_xfer+0x28>
10007cf2:	be00      	bkpt	0x0000
10007cf4:	bd10      	pop	{r4, pc}
10007cf6:	bf00      	nop
10007cf8:	20001da8 	.word	0x20001da8
10007cfc:	20001634 	.word	0x20001634

10007d00 <tud_control_status>:
10007d00:	f8df c030 	ldr.w	ip, [pc, #48]	@ 10007d34 <tud_control_status+0x34>
10007d04:	2300      	movs	r3, #0
10007d06:	4662      	mov	r2, ip
10007d08:	b510      	push	{r4, lr}
10007d0a:	468e      	mov	lr, r1
10007d0c:	4604      	mov	r4, r0
10007d0e:	6808      	ldr	r0, [r1, #0]
10007d10:	6849      	ldr	r1, [r1, #4]
10007d12:	f8cc 300c 	str.w	r3, [ip, #12]
10007d16:	c203      	stmia	r2!, {r0, r1}
10007d18:	f89e 1000 	ldrb.w	r1, [lr]
10007d1c:	4620      	mov	r0, r4
10007d1e:	e8bd 4010 	ldmia.w	sp!, {r4, lr}
10007d22:	f081 01ff 	eor.w	r1, r1, #255	@ 0xff
10007d26:	461a      	mov	r2, r3
10007d28:	f001 0180 	and.w	r1, r1, #128	@ 0x80
10007d2c:	f8cc 3008 	str.w	r3, [ip, #8]
10007d30:	f7ff bfac 	b.w	10007c8c <usbd_edpt_xfer>
10007d34:	20001d68 	.word	0x20001d68

10007d38 <tud_control_xfer>:
10007d38:	f8df c0bc 	ldr.w	ip, [pc, #188]	@ 10007df8 <tud_control_xfer+0xc0>
10007d3c:	b570      	push	{r4, r5, r6, lr}
10007d3e:	4615      	mov	r5, r2
10007d40:	4662      	mov	r2, ip
10007d42:	2400      	movs	r4, #0
10007d44:	468e      	mov	lr, r1
10007d46:	4606      	mov	r6, r0
10007d48:	6808      	ldr	r0, [r1, #0]
10007d4a:	6849      	ldr	r1, [r1, #4]
10007d4c:	b082      	sub	sp, #8
10007d4e:	c203      	stmia	r2!, {r0, r1}
10007d50:	f8cc 5008 	str.w	r5, [ip, #8]
10007d54:	f8ac 400e 	strh.w	r4, [ip, #14]
10007d58:	f8be 2006 	ldrh.w	r2, [lr, #6]
10007d5c:	4293      	cmp	r3, r2
10007d5e:	bf28      	it	cs
10007d60:	4613      	movcs	r3, r2
10007d62:	f8ac 300c 	strh.w	r3, [ip, #12]
10007d66:	b18a      	cbz	r2, 10007d8c <tud_control_xfer+0x54>
10007d68:	b32b      	cbz	r3, 10007db6 <tud_control_xfer+0x7e>
10007d6a:	2d00      	cmp	r5, #0
10007d6c:	d039      	beq.n	10007de2 <tud_control_xfer+0xaa>
10007d6e:	f99c 2000 	ldrsb.w	r2, [ip]
10007d72:	2b40      	cmp	r3, #64	@ 0x40
10007d74:	bf28      	it	cs
10007d76:	2340      	movcs	r3, #64	@ 0x40
10007d78:	2a00      	cmp	r2, #0
10007d7a:	db28      	blt.n	10007dce <tud_control_xfer+0x96>
10007d7c:	4621      	mov	r1, r4
10007d7e:	4630      	mov	r0, r6
10007d80:	4a1c      	ldr	r2, [pc, #112]	@ (10007df4 <tud_control_xfer+0xbc>)
10007d82:	f7ff ff83 	bl	10007c8c <usbd_edpt_xfer>
10007d86:	b168      	cbz	r0, 10007da4 <tud_control_xfer+0x6c>
10007d88:	b002      	add	sp, #8
10007d8a:	bd70      	pop	{r4, r5, r6, pc}
10007d8c:	f89e 1000 	ldrb.w	r1, [lr]
10007d90:	4613      	mov	r3, r2
10007d92:	f081 01ff 	eor.w	r1, r1, #255	@ 0xff
10007d96:	4630      	mov	r0, r6
10007d98:	f001 0180 	and.w	r1, r1, #128	@ 0x80
10007d9c:	f7ff ff76 	bl	10007c8c <usbd_edpt_xfer>
10007da0:	2800      	cmp	r0, #0
10007da2:	d1f1      	bne.n	10007d88 <tud_control_xfer+0x50>
10007da4:	f04f 23e0 	mov.w	r3, #3758153728	@ 0xe000e000
10007da8:	f8d3 3df0 	ldr.w	r3, [r3, #3568]	@ 0xdf0
10007dac:	07db      	lsls	r3, r3, #31
10007dae:	d5eb      	bpl.n	10007d88 <tud_control_xfer+0x50>
10007db0:	be00      	bkpt	0x0000
10007db2:	b002      	add	sp, #8
10007db4:	bd70      	pop	{r4, r5, r6, pc}
10007db6:	461a      	mov	r2, r3
10007db8:	f89c 1000 	ldrb.w	r1, [ip]
10007dbc:	f001 0180 	and.w	r1, r1, #128	@ 0x80
10007dc0:	4630      	mov	r0, r6
10007dc2:	f7ff ff63 	bl	10007c8c <usbd_edpt_xfer>
10007dc6:	2800      	cmp	r0, #0
10007dc8:	d0ec      	beq.n	10007da4 <tud_control_xfer+0x6c>
10007dca:	b002      	add	sp, #8
10007dcc:	bd70      	pop	{r4, r5, r6, pc}
10007dce:	461a      	mov	r2, r3
10007dd0:	4629      	mov	r1, r5
10007dd2:	4808      	ldr	r0, [pc, #32]	@ (10007df4 <tud_control_xfer+0xbc>)
10007dd4:	9301      	str	r3, [sp, #4]
10007dd6:	f001 fb09 	bl	100093ec <memcpy>
10007dda:	2180      	movs	r1, #128	@ 0x80
10007ddc:	4a05      	ldr	r2, [pc, #20]	@ (10007df4 <tud_control_xfer+0xbc>)
10007dde:	9b01      	ldr	r3, [sp, #4]
10007de0:	e7ee      	b.n	10007dc0 <tud_control_xfer+0x88>
10007de2:	f04f 23e0 	mov.w	r3, #3758153728	@ 0xe000e000
10007de6:	f8d3 3df0 	ldr.w	r3, [r3, #3568]	@ 0xdf0
10007dea:	07da      	lsls	r2, r3, #31
10007dec:	d500      	bpl.n	10007df0 <tud_control_xfer+0xb8>
10007dee:	be00      	bkpt	0x0000
10007df0:	2000      	movs	r0, #0
10007df2:	e7c9      	b.n	10007d88 <tud_control_xfer+0x50>
10007df4:	20001d28 	.word	0x20001d28
10007df8:	20001d68 	.word	0x20001d68

10007dfc <usbd_control_reset>:
10007dfc:	2200      	movs	r2, #0
10007dfe:	4b03      	ldr	r3, [pc, #12]	@ (10007e0c <usbd_control_reset+0x10>)
10007e00:	e9c3 2200 	strd	r2, r2, [r3]
10007e04:	e9c3 2202 	strd	r2, r2, [r3, #8]
10007e08:	611a      	str	r2, [r3, #16]
10007e0a:	4770      	bx	lr
10007e0c:	20001d68 	.word	0x20001d68

10007e10 <usbd_control_set_complete_callback>:
10007e10:	4b01      	ldr	r3, [pc, #4]	@ (10007e18 <usbd_control_set_complete_callback+0x8>)
10007e12:	6118      	str	r0, [r3, #16]
10007e14:	4770      	bx	lr
10007e16:	bf00      	nop
10007e18:	20001d68 	.word	0x20001d68

10007e1c <usbd_control_set_request>:
10007e1c:	4601      	mov	r1, r0
10007e1e:	4a05      	ldr	r2, [pc, #20]	@ (10007e34 <usbd_control_set_request+0x18>)
10007e20:	f04f 0c00 	mov.w	ip, #0
10007e24:	4613      	mov	r3, r2
10007e26:	6800      	ldr	r0, [r0, #0]
10007e28:	6849      	ldr	r1, [r1, #4]
10007e2a:	e9c2 cc02 	strd	ip, ip, [r2, #8]
10007e2e:	c303      	stmia	r3!, {r0, r1}
10007e30:	4770      	bx	lr
10007e32:	bf00      	nop
10007e34:	20001d68 	.word	0x20001d68

10007e38 <usbd_control_xfer_cb>:
10007e38:	b530      	push	{r4, r5, lr}
10007e3a:	4c40      	ldr	r4, [pc, #256]	@ (10007f3c <usbd_control_xfer_cb+0x104>)
10007e3c:	09c9      	lsrs	r1, r1, #7
10007e3e:	7822      	ldrb	r2, [r4, #0]
10007e40:	4605      	mov	r5, r0
10007e42:	ebb1 1fd2 	cmp.w	r1, r2, lsr #7
10007e46:	b083      	sub	sp, #12
10007e48:	d016      	beq.n	10007e78 <usbd_control_xfer_cb+0x40>
10007e4a:	b14b      	cbz	r3, 10007e60 <usbd_control_xfer_cb+0x28>
10007e4c:	f04f 23e0 	mov.w	r3, #3758153728	@ 0xe000e000
10007e50:	f8d3 3df0 	ldr.w	r3, [r3, #3568]	@ 0xdf0
10007e54:	07da      	lsls	r2, r3, #31
10007e56:	d500      	bpl.n	10007e5a <usbd_control_xfer_cb+0x22>
10007e58:	be00      	bkpt	0x0000
10007e5a:	2000      	movs	r0, #0
10007e5c:	b003      	add	sp, #12
10007e5e:	bd30      	pop	{r4, r5, pc}
10007e60:	4621      	mov	r1, r4
10007e62:	f7ff f891 	bl	10006f88 <dcd_edpt0_status_complete>
10007e66:	6923      	ldr	r3, [r4, #16]
10007e68:	b11b      	cbz	r3, 10007e72 <usbd_control_xfer_cb+0x3a>
10007e6a:	4622      	mov	r2, r4
10007e6c:	2103      	movs	r1, #3
10007e6e:	4628      	mov	r0, r5
10007e70:	4798      	blx	r3
10007e72:	2001      	movs	r0, #1
10007e74:	b003      	add	sp, #12
10007e76:	bd30      	pop	{r4, r5, pc}
10007e78:	f994 2000 	ldrsb.w	r2, [r4]
10007e7c:	2a00      	cmp	r2, #0
10007e7e:	db08      	blt.n	10007e92 <usbd_control_xfer_cb+0x5a>
10007e80:	68a0      	ldr	r0, [r4, #8]
10007e82:	2800      	cmp	r0, #0
10007e84:	d0e9      	beq.n	10007e5a <usbd_control_xfer_cb+0x22>
10007e86:	461a      	mov	r2, r3
10007e88:	492d      	ldr	r1, [pc, #180]	@ (10007f40 <usbd_control_xfer_cb+0x108>)
10007e8a:	9301      	str	r3, [sp, #4]
10007e8c:	f001 faae 	bl	100093ec <memcpy>
10007e90:	9b01      	ldr	r3, [sp, #4]
10007e92:	89e0      	ldrh	r0, [r4, #14]
10007e94:	68a1      	ldr	r1, [r4, #8]
10007e96:	88e2      	ldrh	r2, [r4, #6]
10007e98:	4418      	add	r0, r3
10007e9a:	b280      	uxth	r0, r0
10007e9c:	4419      	add	r1, r3
10007e9e:	4282      	cmp	r2, r0
10007ea0:	81e0      	strh	r0, [r4, #14]
10007ea2:	60a1      	str	r1, [r4, #8]
10007ea4:	d016      	beq.n	10007ed4 <usbd_control_xfer_cb+0x9c>
10007ea6:	2b3f      	cmp	r3, #63	@ 0x3f
10007ea8:	d914      	bls.n	10007ed4 <usbd_control_xfer_cb+0x9c>
10007eaa:	89a2      	ldrh	r2, [r4, #12]
10007eac:	f994 4000 	ldrsb.w	r4, [r4]
10007eb0:	1a13      	subs	r3, r2, r0
10007eb2:	b29b      	uxth	r3, r3
10007eb4:	2b40      	cmp	r3, #64	@ 0x40
10007eb6:	bf28      	it	cs
10007eb8:	2340      	movcs	r3, #64	@ 0x40
10007eba:	2c00      	cmp	r4, #0
10007ebc:	db2e      	blt.n	10007f1c <usbd_control_xfer_cb+0xe4>
10007ebe:	4290      	cmp	r0, r2
10007ec0:	f04f 0100 	mov.w	r1, #0
10007ec4:	d038      	beq.n	10007f38 <usbd_control_xfer_cb+0x100>
10007ec6:	4a1e      	ldr	r2, [pc, #120]	@ (10007f40 <usbd_control_xfer_cb+0x108>)
10007ec8:	4628      	mov	r0, r5
10007eca:	f7ff fedf 	bl	10007c8c <usbd_edpt_xfer>
10007ece:	2800      	cmp	r0, #0
10007ed0:	d1c4      	bne.n	10007e5c <usbd_control_xfer_cb+0x24>
10007ed2:	e012      	b.n	10007efa <usbd_control_xfer_cb+0xc2>
10007ed4:	6923      	ldr	r3, [r4, #16]
10007ed6:	b123      	cbz	r3, 10007ee2 <usbd_control_xfer_cb+0xaa>
10007ed8:	2102      	movs	r1, #2
10007eda:	4628      	mov	r0, r5
10007edc:	4a17      	ldr	r2, [pc, #92]	@ (10007f3c <usbd_control_xfer_cb+0x104>)
10007ede:	4798      	blx	r3
10007ee0:	b198      	cbz	r0, 10007f0a <usbd_control_xfer_cb+0xd2>
10007ee2:	2300      	movs	r3, #0
10007ee4:	7821      	ldrb	r1, [r4, #0]
10007ee6:	4628      	mov	r0, r5
10007ee8:	f081 01ff 	eor.w	r1, r1, #255	@ 0xff
10007eec:	461a      	mov	r2, r3
10007eee:	f001 0180 	and.w	r1, r1, #128	@ 0x80
10007ef2:	f7ff fecb 	bl	10007c8c <usbd_edpt_xfer>
10007ef6:	2800      	cmp	r0, #0
10007ef8:	d1b0      	bne.n	10007e5c <usbd_control_xfer_cb+0x24>
10007efa:	f04f 23e0 	mov.w	r3, #3758153728	@ 0xe000e000
10007efe:	f8d3 3df0 	ldr.w	r3, [r3, #3568]	@ 0xdf0
10007f02:	07db      	lsls	r3, r3, #31
10007f04:	d5aa      	bpl.n	10007e5c <usbd_control_xfer_cb+0x24>
10007f06:	be00      	bkpt	0x0000
10007f08:	e7a8      	b.n	10007e5c <usbd_control_xfer_cb+0x24>
10007f0a:	4601      	mov	r1, r0
10007f0c:	4628      	mov	r0, r5
10007f0e:	f7ff f8ef 	bl	100070f0 <dcd_edpt_stall>
10007f12:	2180      	movs	r1, #128	@ 0x80
10007f14:	4628      	mov	r0, r5
10007f16:	f7ff f8eb 	bl	100070f0 <dcd_edpt_stall>
10007f1a:	e7aa      	b.n	10007e72 <usbd_control_xfer_cb+0x3a>
10007f1c:	4290      	cmp	r0, r2
10007f1e:	d008      	beq.n	10007f32 <usbd_control_xfer_cb+0xfa>
10007f20:	461a      	mov	r2, r3
10007f22:	4807      	ldr	r0, [pc, #28]	@ (10007f40 <usbd_control_xfer_cb+0x108>)
10007f24:	9301      	str	r3, [sp, #4]
10007f26:	f001 fa61 	bl	100093ec <memcpy>
10007f2a:	2180      	movs	r1, #128	@ 0x80
10007f2c:	4a04      	ldr	r2, [pc, #16]	@ (10007f40 <usbd_control_xfer_cb+0x108>)
10007f2e:	9b01      	ldr	r3, [sp, #4]
10007f30:	e7ca      	b.n	10007ec8 <usbd_control_xfer_cb+0x90>
10007f32:	2180      	movs	r1, #128	@ 0x80
10007f34:	2200      	movs	r2, #0
10007f36:	e7c7      	b.n	10007ec8 <usbd_control_xfer_cb+0x90>
10007f38:	460a      	mov	r2, r1
10007f3a:	e7c5      	b.n	10007ec8 <usbd_control_xfer_cb+0x90>
10007f3c:	20001d68 	.word	0x20001d68
10007f40:	20001d28 	.word	0x20001d28

10007f44 <_prep_out_transaction.isra.0>:
10007f44:	b570      	push	{r4, r5, r6, lr}
10007f46:	b082      	sub	sp, #8
10007f48:	4604      	mov	r4, r0
10007f4a:	f7ff f991 	bl	10007270 <tud_mounted>
10007f4e:	b908      	cbnz	r0, 10007f54 <_prep_out_transaction.isra.0+0x10>
10007f50:	b002      	add	sp, #8
10007f52:	bd70      	pop	{r4, r5, r6, pc}
10007f54:	f7ff f994 	bl	10007280 <tud_suspended>
10007f58:	4602      	mov	r2, r0
10007f5a:	2800      	cmp	r0, #0
10007f5c:	d1f8      	bne.n	10007f50 <_prep_out_transaction.isra.0+0xc>
10007f5e:	23c8      	movs	r3, #200	@ 0xc8
10007f60:	fb04 f303 	mul.w	r3, r4, r3
10007f64:	4915      	ldr	r1, [pc, #84]	@ (10007fbc <_prep_out_transaction.isra.0+0x78>)
10007f66:	4625      	mov	r5, r4
10007f68:	18cc      	adds	r4, r1, r3
10007f6a:	78e0      	ldrb	r0, [r4, #3]
10007f6c:	2800      	cmp	r0, #0
10007f6e:	d0ef      	beq.n	10007f50 <_prep_out_transaction.isra.0+0xc>
10007f70:	3310      	adds	r3, #16
10007f72:	185e      	adds	r6, r3, r1
10007f74:	4630      	mov	r0, r6
10007f76:	9201      	str	r2, [sp, #4]
10007f78:	f000 fe00 	bl	10008b7c <tu_fifo_remaining>
10007f7c:	283f      	cmp	r0, #63	@ 0x3f
10007f7e:	d9e7      	bls.n	10007f50 <_prep_out_transaction.isra.0+0xc>
10007f80:	78e1      	ldrb	r1, [r4, #3]
10007f82:	9801      	ldr	r0, [sp, #4]
10007f84:	f7ff fe5e 	bl	10007c44 <usbd_edpt_claim>
10007f88:	2800      	cmp	r0, #0
10007f8a:	d0e1      	beq.n	10007f50 <_prep_out_transaction.isra.0+0xc>
10007f8c:	4630      	mov	r0, r6
10007f8e:	f000 fdf5 	bl	10008b7c <tu_fifo_remaining>
10007f92:	283f      	cmp	r0, #63	@ 0x3f
10007f94:	78e1      	ldrb	r1, [r4, #3]
10007f96:	d90a      	bls.n	10007fae <_prep_out_transaction.isra.0+0x6a>
10007f98:	2340      	movs	r3, #64	@ 0x40
10007f9a:	f8df c024 	ldr.w	ip, [pc, #36]	@ 10007fc0 <_prep_out_transaction.isra.0+0x7c>
10007f9e:	9801      	ldr	r0, [sp, #4]
10007fa0:	eb0c 12c5 	add.w	r2, ip, r5, lsl #7
10007fa4:	b002      	add	sp, #8
10007fa6:	e8bd 4070 	ldmia.w	sp!, {r4, r5, r6, lr}
10007faa:	f7ff be6f 	b.w	10007c8c <usbd_edpt_xfer>
10007fae:	9801      	ldr	r0, [sp, #4]
10007fb0:	b002      	add	sp, #8
10007fb2:	e8bd 4070 	ldmia.w	sp!, {r4, r5, r6, lr}
10007fb6:	f7ff be57 	b.w	10007c68 <usbd_edpt_release>
10007fba:	bf00      	nop
10007fbc:	20001780 	.word	0x20001780
10007fc0:	20001ca4 	.word	0x20001ca4

10007fc4 <tud_cdc_n_connected>:
10007fc4:	b510      	push	{r4, lr}
10007fc6:	4604      	mov	r4, r0
10007fc8:	f7ff f952 	bl	10007270 <tud_mounted>
10007fcc:	b900      	cbnz	r0, 10007fd0 <tud_cdc_n_connected+0xc>
10007fce:	bd10      	pop	{r4, pc}
10007fd0:	f7ff f956 	bl	10007280 <tud_suspended>
10007fd4:	b938      	cbnz	r0, 10007fe6 <tud_cdc_n_connected+0x22>
10007fd6:	22c8      	movs	r2, #200	@ 0xc8
10007fd8:	4b04      	ldr	r3, [pc, #16]	@ (10007fec <tud_cdc_n_connected+0x28>)
10007fda:	fb02 3304 	mla	r3, r2, r4, r3
10007fde:	7918      	ldrb	r0, [r3, #4]
10007fe0:	f000 0001 	and.w	r0, r0, #1
10007fe4:	bd10      	pop	{r4, pc}
10007fe6:	2000      	movs	r0, #0
10007fe8:	bd10      	pop	{r4, pc}
10007fea:	bf00      	nop
10007fec:	20001780 	.word	0x20001780

10007ff0 <tud_cdc_n_available>:
10007ff0:	22c8      	movs	r2, #200	@ 0xc8
10007ff2:	b508      	push	{r3, lr}
10007ff4:	4b02      	ldr	r3, [pc, #8]	@ (10008000 <tud_cdc_n_available+0x10>)
10007ff6:	fb02 3000 	mla	r0, r2, r0, r3
10007ffa:	f000 fda9 	bl	10008b50 <tu_fifo_count>
10007ffe:	bd08      	pop	{r3, pc}
10008000:	20001790 	.word	0x20001790

10008004 <tud_cdc_n_read>:
10008004:	f64f 73ff 	movw	r3, #65535	@ 0xffff
10008008:	e92d 41f0 	stmdb	sp!, {r4, r5, r6, r7, r8, lr}
1000800c:	24c8      	movs	r4, #200	@ 0xc8
1000800e:	429a      	cmp	r2, r3
10008010:	bf28      	it	cs
10008012:	461a      	movcs	r2, r3
10008014:	fb00 f404 	mul.w	r4, r0, r4
10008018:	4d1b      	ldr	r5, [pc, #108]	@ (10008088 <tud_cdc_n_read+0x84>)
1000801a:	f104 0310 	add.w	r3, r4, #16
1000801e:	b082      	sub	sp, #8
10008020:	4680      	mov	r8, r0
10008022:	b292      	uxth	r2, r2
10008024:	1958      	adds	r0, r3, r5
10008026:	195f      	adds	r7, r3, r5
10008028:	f000 fe02 	bl	10008c30 <tu_fifo_read_n>
1000802c:	4606      	mov	r6, r0
1000802e:	f7ff f91f 	bl	10007270 <tud_mounted>
10008032:	b918      	cbnz	r0, 1000803c <tud_cdc_n_read+0x38>
10008034:	4630      	mov	r0, r6
10008036:	b002      	add	sp, #8
10008038:	e8bd 81f0 	ldmia.w	sp!, {r4, r5, r6, r7, r8, pc}
1000803c:	f7ff f920 	bl	10007280 <tud_suspended>
10008040:	2800      	cmp	r0, #0
10008042:	d1f7      	bne.n	10008034 <tud_cdc_n_read+0x30>
10008044:	4425      	add	r5, r4
10008046:	78ea      	ldrb	r2, [r5, #3]
10008048:	2a00      	cmp	r2, #0
1000804a:	d0f3      	beq.n	10008034 <tud_cdc_n_read+0x30>
1000804c:	9001      	str	r0, [sp, #4]
1000804e:	4638      	mov	r0, r7
10008050:	f000 fd94 	bl	10008b7c <tu_fifo_remaining>
10008054:	283f      	cmp	r0, #63	@ 0x3f
10008056:	d9ed      	bls.n	10008034 <tud_cdc_n_read+0x30>
10008058:	9801      	ldr	r0, [sp, #4]
1000805a:	78e9      	ldrb	r1, [r5, #3]
1000805c:	f7ff fdf2 	bl	10007c44 <usbd_edpt_claim>
10008060:	2800      	cmp	r0, #0
10008062:	d0e7      	beq.n	10008034 <tud_cdc_n_read+0x30>
10008064:	4638      	mov	r0, r7
10008066:	f000 fd89 	bl	10008b7c <tu_fifo_remaining>
1000806a:	283f      	cmp	r0, #63	@ 0x3f
1000806c:	78e9      	ldrb	r1, [r5, #3]
1000806e:	d907      	bls.n	10008080 <tud_cdc_n_read+0x7c>
10008070:	4a06      	ldr	r2, [pc, #24]	@ (1000808c <tud_cdc_n_read+0x88>)
10008072:	2340      	movs	r3, #64	@ 0x40
10008074:	9801      	ldr	r0, [sp, #4]
10008076:	eb02 12c8 	add.w	r2, r2, r8, lsl #7
1000807a:	f7ff fe07 	bl	10007c8c <usbd_edpt_xfer>
1000807e:	e7d9      	b.n	10008034 <tud_cdc_n_read+0x30>
10008080:	9801      	ldr	r0, [sp, #4]
10008082:	f7ff fdf1 	bl	10007c68 <usbd_edpt_release>
10008086:	e7d5      	b.n	10008034 <tud_cdc_n_read+0x30>
10008088:	20001780 	.word	0x20001780
1000808c:	20001ca4 	.word	0x20001ca4

10008090 <tud_cdc_n_write_flush>:
10008090:	b5f0      	push	{r4, r5, r6, r7, lr}
10008092:	b083      	sub	sp, #12
10008094:	4604      	mov	r4, r0
10008096:	f7ff f8eb 	bl	10007270 <tud_mounted>
1000809a:	b910      	cbnz	r0, 100080a2 <tud_cdc_n_write_flush+0x12>
1000809c:	2000      	movs	r0, #0
1000809e:	b003      	add	sp, #12
100080a0:	bdf0      	pop	{r4, r5, r6, r7, pc}
100080a2:	f7ff f8ed 	bl	10007280 <tud_suspended>
100080a6:	4607      	mov	r7, r0
100080a8:	2800      	cmp	r0, #0
100080aa:	d1f7      	bne.n	1000809c <tud_cdc_n_write_flush+0xc>
100080ac:	23c8      	movs	r3, #200	@ 0xc8
100080ae:	fb04 f303 	mul.w	r3, r4, r3
100080b2:	4a1a      	ldr	r2, [pc, #104]	@ (1000811c <tud_cdc_n_write_flush+0x8c>)
100080b4:	f103 0124 	add.w	r1, r3, #36	@ 0x24
100080b8:	188e      	adds	r6, r1, r2
100080ba:	4630      	mov	r0, r6
100080bc:	9300      	str	r3, [sp, #0]
100080be:	f000 fd47 	bl	10008b50 <tu_fifo_count>
100080c2:	2800      	cmp	r0, #0
100080c4:	d0ea      	beq.n	1000809c <tud_cdc_n_write_flush+0xc>
100080c6:	4a15      	ldr	r2, [pc, #84]	@ (1000811c <tud_cdc_n_write_flush+0x8c>)
100080c8:	9b00      	ldr	r3, [sp, #0]
100080ca:	4638      	mov	r0, r7
100080cc:	18d5      	adds	r5, r2, r3
100080ce:	78a9      	ldrb	r1, [r5, #2]
100080d0:	f7ff fdb8 	bl	10007c44 <usbd_edpt_claim>
100080d4:	2800      	cmp	r0, #0
100080d6:	d0e1      	beq.n	1000809c <tud_cdc_n_write_flush+0xc>
100080d8:	4911      	ldr	r1, [pc, #68]	@ (10008120 <tud_cdc_n_write_flush+0x90>)
100080da:	4630      	mov	r0, r6
100080dc:	eb01 11c4 	add.w	r1, r1, r4, lsl #7
100080e0:	2240      	movs	r2, #64	@ 0x40
100080e2:	9100      	str	r1, [sp, #0]
100080e4:	f000 fda4 	bl	10008c30 <tu_fifo_read_n>
100080e8:	f895 c002 	ldrb.w	ip, [r5, #2]
100080ec:	4603      	mov	r3, r0
100080ee:	b178      	cbz	r0, 10008110 <tud_cdc_n_write_flush+0x80>
100080f0:	9001      	str	r0, [sp, #4]
100080f2:	4661      	mov	r1, ip
100080f4:	4638      	mov	r0, r7
100080f6:	9a00      	ldr	r2, [sp, #0]
100080f8:	f7ff fdc8 	bl	10007c8c <usbd_edpt_xfer>
100080fc:	b960      	cbnz	r0, 10008118 <tud_cdc_n_write_flush+0x88>
100080fe:	f04f 23e0 	mov.w	r3, #3758153728	@ 0xe000e000
10008102:	f8d3 0df0 	ldr.w	r0, [r3, #3568]	@ 0xdf0
10008106:	f010 0001 	ands.w	r0, r0, #1
1000810a:	d0c8      	beq.n	1000809e <tud_cdc_n_write_flush+0xe>
1000810c:	be00      	bkpt	0x0000
1000810e:	e7c5      	b.n	1000809c <tud_cdc_n_write_flush+0xc>
10008110:	4661      	mov	r1, ip
10008112:	f7ff fda9 	bl	10007c68 <usbd_edpt_release>
10008116:	e7c1      	b.n	1000809c <tud_cdc_n_write_flush+0xc>
10008118:	9801      	ldr	r0, [sp, #4]
1000811a:	e7c0      	b.n	1000809e <tud_cdc_n_write_flush+0xe>
1000811c:	20001780 	.word	0x20001780
10008120:	20001ce4 	.word	0x20001ce4

10008124 <tud_cdc_n_write>:
10008124:	b570      	push	{r4, r5, r6, lr}
10008126:	4605      	mov	r5, r0
10008128:	f64f 70ff 	movw	r0, #65535	@ 0xffff
1000812c:	23c8      	movs	r3, #200	@ 0xc8
1000812e:	4282      	cmp	r2, r0
10008130:	bf28      	it	cs
10008132:	4602      	movcs	r2, r0
10008134:	4c09      	ldr	r4, [pc, #36]	@ (1000815c <tud_cdc_n_write+0x38>)
10008136:	b292      	uxth	r2, r2
10008138:	fb03 4405 	mla	r4, r3, r5, r4
1000813c:	4620      	mov	r0, r4
1000813e:	f000 fe33 	bl	10008da8 <tu_fifo_write_n>
10008142:	4606      	mov	r6, r0
10008144:	4620      	mov	r0, r4
10008146:	f000 fd03 	bl	10008b50 <tu_fifo_count>
1000814a:	283f      	cmp	r0, #63	@ 0x3f
1000814c:	d801      	bhi.n	10008152 <tud_cdc_n_write+0x2e>
1000814e:	4630      	mov	r0, r6
10008150:	bd70      	pop	{r4, r5, r6, pc}
10008152:	4628      	mov	r0, r5
10008154:	f7ff ff9c 	bl	10008090 <tud_cdc_n_write_flush>
10008158:	4630      	mov	r0, r6
1000815a:	bd70      	pop	{r4, r5, r6, pc}
1000815c:	200017a4 	.word	0x200017a4

10008160 <tud_cdc_n_write_available>:
10008160:	22c8      	movs	r2, #200	@ 0xc8
10008162:	b508      	push	{r3, lr}
10008164:	4b02      	ldr	r3, [pc, #8]	@ (10008170 <tud_cdc_n_write_available+0x10>)
10008166:	fb02 3000 	mla	r0, r2, r0, r3
1000816a:	f000 fd07 	bl	10008b7c <tu_fifo_remaining>
1000816e:	bd08      	pop	{r3, pc}
10008170:	200017a4 	.word	0x200017a4

10008174 <cdcd_init>:
10008174:	b570      	push	{r4, r5, r6, lr}
10008176:	2400      	movs	r4, #0
10008178:	b082      	sub	sp, #8
1000817a:	22c8      	movs	r2, #200	@ 0xc8
1000817c:	2100      	movs	r1, #0
1000817e:	4818      	ldr	r0, [pc, #96]	@ (100081e0 <cdcd_init+0x6c>)
10008180:	f001 f8d2 	bl	10009328 <memset>
10008184:	23ff      	movs	r3, #255	@ 0xff
10008186:	f44f 31e1 	mov.w	r1, #115200	@ 0x1c200
1000818a:	2208      	movs	r2, #8
1000818c:	4815      	ldr	r0, [pc, #84]	@ (100081e4 <cdcd_init+0x70>)
1000818e:	7004      	strb	r4, [r0, #0]
10008190:	4813      	ldr	r0, [pc, #76]	@ (100081e0 <cdcd_init+0x6c>)
10008192:	9400      	str	r4, [sp, #0]
10008194:	4606      	mov	r6, r0
10008196:	7143      	strb	r3, [r0, #5]
10008198:	6081      	str	r1, [r0, #8]
1000819a:	7382      	strb	r2, [r0, #14]
1000819c:	f100 0138 	add.w	r1, r0, #56	@ 0x38
100081a0:	2301      	movs	r3, #1
100081a2:	2240      	movs	r2, #64	@ 0x40
100081a4:	3010      	adds	r0, #16
100081a6:	f000 fca3 	bl	10008af0 <tu_fifo_config>
100081aa:	2301      	movs	r3, #1
100081ac:	2240      	movs	r2, #64	@ 0x40
100081ae:	f106 0178 	add.w	r1, r6, #120	@ 0x78
100081b2:	9300      	str	r3, [sp, #0]
100081b4:	f106 05b8 	add.w	r5, r6, #184	@ 0xb8
100081b8:	f106 0024 	add.w	r0, r6, #36	@ 0x24
100081bc:	f000 fc98 	bl	10008af0 <tu_fifo_config>
100081c0:	4628      	mov	r0, r5
100081c2:	f7fb f903 	bl	100033cc <mutex_init>
100081c6:	f106 00c0 	add.w	r0, r6, #192	@ 0xc0
100081ca:	f7fb f8ff 	bl	100033cc <mutex_init>
100081ce:	f106 00c0 	add.w	r0, r6, #192	@ 0xc0
100081d2:	e9c6 4507 	strd	r4, r5, [r6, #28]
100081d6:	e9c6 040c 	strd	r0, r4, [r6, #48]	@ 0x30
100081da:	b002      	add	sp, #8
100081dc:	bd70      	pop	{r4, r5, r6, pc}
100081de:	bf00      	nop
100081e0:	20001780 	.word	0x20001780
100081e4:	20001d24 	.word	0x20001d24

100081e8 <cdcd_deinit>:
100081e8:	4b06      	ldr	r3, [pc, #24]	@ (10008204 <cdcd_deinit+0x1c>)
100081ea:	6a1a      	ldr	r2, [r3, #32]
100081ec:	6b19      	ldr	r1, [r3, #48]	@ 0x30
100081ee:	b112      	cbz	r2, 100081f6 <cdcd_deinit+0xe>
100081f0:	2200      	movs	r2, #0
100081f2:	e9c3 2207 	strd	r2, r2, [r3, #28]
100081f6:	b119      	cbz	r1, 10008200 <cdcd_deinit+0x18>
100081f8:	2000      	movs	r0, #0
100081fa:	2100      	movs	r1, #0
100081fc:	e9c3 010c 	strd	r0, r1, [r3, #48]	@ 0x30
10008200:	2001      	movs	r0, #1
10008202:	4770      	bx	lr
10008204:	20001780 	.word	0x20001780

10008208 <cdcd_reset>:
10008208:	2200      	movs	r2, #0
1000820a:	4910      	ldr	r1, [pc, #64]	@ (1000824c <cdcd_reset+0x44>)
1000820c:	b508      	push	{r3, lr}
1000820e:	4810      	ldr	r0, [pc, #64]	@ (10008250 <cdcd_reset+0x48>)
10008210:	780b      	ldrb	r3, [r1, #0]
10008212:	6002      	str	r2, [r0, #0]
10008214:	7102      	strb	r2, [r0, #4]
10008216:	07da      	lsls	r2, r3, #31
10008218:	d507      	bpl.n	1000822a <cdcd_reset+0x22>
1000821a:	079b      	lsls	r3, r3, #30
1000821c:	d50c      	bpl.n	10008238 <cdcd_reset+0x30>
1000821e:	e8bd 4008 	ldmia.w	sp!, {r3, lr}
10008222:	2101      	movs	r1, #1
10008224:	480b      	ldr	r0, [pc, #44]	@ (10008254 <cdcd_reset+0x4c>)
10008226:	f000 be75 	b.w	10008f14 <tu_fifo_set_overwritable>
1000822a:	3010      	adds	r0, #16
1000822c:	f000 fe56 	bl	10008edc <tu_fifo_clear>
10008230:	4906      	ldr	r1, [pc, #24]	@ (1000824c <cdcd_reset+0x44>)
10008232:	780b      	ldrb	r3, [r1, #0]
10008234:	079b      	lsls	r3, r3, #30
10008236:	d4f2      	bmi.n	1000821e <cdcd_reset+0x16>
10008238:	4806      	ldr	r0, [pc, #24]	@ (10008254 <cdcd_reset+0x4c>)
1000823a:	f000 fe4f 	bl	10008edc <tu_fifo_clear>
1000823e:	e8bd 4008 	ldmia.w	sp!, {r3, lr}
10008242:	2101      	movs	r1, #1
10008244:	4803      	ldr	r0, [pc, #12]	@ (10008254 <cdcd_reset+0x4c>)
10008246:	f000 be65 	b.w	10008f14 <tu_fifo_set_overwritable>
1000824a:	bf00      	nop
1000824c:	20001d24 	.word	0x20001d24
10008250:	20001780 	.word	0x20001780
10008254:	200017a4 	.word	0x200017a4

10008258 <cdcd_open>:
10008258:	b570      	push	{r4, r5, r6, lr}
1000825a:	794b      	ldrb	r3, [r1, #5]
1000825c:	b084      	sub	sp, #16
1000825e:	2b02      	cmp	r3, #2
10008260:	d102      	bne.n	10008268 <cdcd_open+0x10>
10008262:	798b      	ldrb	r3, [r1, #6]
10008264:	2b02      	cmp	r3, #2
10008266:	d003      	beq.n	10008270 <cdcd_open+0x18>
10008268:	2400      	movs	r4, #0
1000826a:	4620      	mov	r0, r4
1000826c:	b004      	add	sp, #16
1000826e:	bd70      	pop	{r4, r5, r6, pc}
10008270:	4b2a      	ldr	r3, [pc, #168]	@ (1000831c <cdcd_open+0xc4>)
10008272:	789b      	ldrb	r3, [r3, #2]
10008274:	b13b      	cbz	r3, 10008286 <cdcd_open+0x2e>
10008276:	f04f 23e0 	mov.w	r3, #3758153728	@ 0xe000e000
1000827a:	f8d3 3df0 	ldr.w	r3, [r3, #3568]	@ 0xdf0
1000827e:	07db      	lsls	r3, r3, #31
10008280:	d5f2      	bpl.n	10008268 <cdcd_open+0x10>
10008282:	be00      	bkpt	0x0000
10008284:	e7f0      	b.n	10008268 <cdcd_open+0x10>
10008286:	788b      	ldrb	r3, [r1, #2]
10008288:	4605      	mov	r5, r0
1000828a:	4824      	ldr	r0, [pc, #144]	@ (1000831c <cdcd_open+0xc4>)
1000828c:	7003      	strb	r3, [r0, #0]
1000828e:	780b      	ldrb	r3, [r1, #0]
10008290:	4419      	add	r1, r3
10008292:	784b      	ldrb	r3, [r1, #1]
10008294:	2b24      	cmp	r3, #36	@ 0x24
10008296:	bf08      	it	eq
10008298:	2409      	moveq	r4, #9
1000829a:	d009      	beq.n	100082b0 <cdcd_open+0x58>
1000829c:	e03b      	b.n	10008316 <cdcd_open+0xbe>
1000829e:	780b      	ldrb	r3, [r1, #0]
100082a0:	4419      	add	r1, r3
100082a2:	f891 c001 	ldrb.w	ip, [r1, #1]
100082a6:	4423      	add	r3, r4
100082a8:	f1bc 0f24 	cmp.w	ip, #36	@ 0x24
100082ac:	b29c      	uxth	r4, r3
100082ae:	d107      	bne.n	100082c0 <cdcd_open+0x68>
100082b0:	42a2      	cmp	r2, r4
100082b2:	d2f4      	bcs.n	1000829e <cdcd_open+0x46>
100082b4:	2000      	movs	r0, #0
100082b6:	f7ff fe45 	bl	10007f44 <_prep_out_transaction.isra.0>
100082ba:	4620      	mov	r0, r4
100082bc:	b004      	add	sp, #16
100082be:	bd70      	pop	{r4, r5, r6, pc}
100082c0:	4663      	mov	r3, ip
100082c2:	f1bc 0f05 	cmp.w	ip, #5
100082c6:	d016      	beq.n	100082f6 <cdcd_open+0x9e>
100082c8:	2b04      	cmp	r3, #4
100082ca:	d1f3      	bne.n	100082b4 <cdcd_open+0x5c>
100082cc:	794b      	ldrb	r3, [r1, #5]
100082ce:	2b0a      	cmp	r3, #10
100082d0:	d1f0      	bne.n	100082b4 <cdcd_open+0x5c>
100082d2:	4b13      	ldr	r3, [pc, #76]	@ (10008320 <cdcd_open+0xc8>)
100082d4:	780a      	ldrb	r2, [r1, #0]
100082d6:	9301      	str	r3, [sp, #4]
100082d8:	3301      	adds	r3, #1
100082da:	9300      	str	r3, [sp, #0]
100082dc:	2302      	movs	r3, #2
100082de:	4616      	mov	r6, r2
100082e0:	4411      	add	r1, r2
100082e2:	4628      	mov	r0, r5
100082e4:	461a      	mov	r2, r3
100082e6:	f7ff fc2f 	bl	10007b48 <usbd_open_edpt_pair>
100082ea:	2800      	cmp	r0, #0
100082ec:	d0c3      	beq.n	10008276 <cdcd_open+0x1e>
100082ee:	340e      	adds	r4, #14
100082f0:	1933      	adds	r3, r6, r4
100082f2:	b29c      	uxth	r4, r3
100082f4:	e7de      	b.n	100082b4 <cdcd_open+0x5c>
100082f6:	4628      	mov	r0, r5
100082f8:	9103      	str	r1, [sp, #12]
100082fa:	f7ff fc75 	bl	10007be8 <usbd_edpt_open>
100082fe:	9903      	ldr	r1, [sp, #12]
10008300:	2800      	cmp	r0, #0
10008302:	d0b8      	beq.n	10008276 <cdcd_open+0x1e>
10008304:	788b      	ldrb	r3, [r1, #2]
10008306:	4a05      	ldr	r2, [pc, #20]	@ (1000831c <cdcd_open+0xc4>)
10008308:	7053      	strb	r3, [r2, #1]
1000830a:	780b      	ldrb	r3, [r1, #0]
1000830c:	191a      	adds	r2, r3, r4
1000830e:	4419      	add	r1, r3
10008310:	784b      	ldrb	r3, [r1, #1]
10008312:	b294      	uxth	r4, r2
10008314:	e7d8      	b.n	100082c8 <cdcd_open+0x70>
10008316:	469c      	mov	ip, r3
10008318:	2409      	movs	r4, #9
1000831a:	e7d2      	b.n	100082c2 <cdcd_open+0x6a>
1000831c:	20001780 	.word	0x20001780
10008320:	20001782 	.word	0x20001782

10008324 <cdcd_control_xfer_cb>:
10008324:	7813      	ldrb	r3, [r2, #0]
10008326:	f003 0360 	and.w	r3, r3, #96	@ 0x60
1000832a:	2b20      	cmp	r3, #32
1000832c:	d10b      	bne.n	10008346 <cdcd_control_xfer_cb+0x22>
1000832e:	b500      	push	{lr}
10008330:	f8df c0bc 	ldr.w	ip, [pc, #188]	@ 100083f0 <cdcd_control_xfer_cb+0xcc>
10008334:	8893      	ldrh	r3, [r2, #4]
10008336:	f89c e000 	ldrb.w	lr, [ip]
1000833a:	b083      	sub	sp, #12
1000833c:	459e      	cmp	lr, r3
1000833e:	d004      	beq.n	1000834a <cdcd_control_xfer_cb+0x26>
10008340:	2000      	movs	r0, #0
10008342:	b003      	add	sp, #12
10008344:	bd00      	pop	{pc}
10008346:	2000      	movs	r0, #0
10008348:	4770      	bx	lr
1000834a:	7853      	ldrb	r3, [r2, #1]
1000834c:	3b20      	subs	r3, #32
1000834e:	2b03      	cmp	r3, #3
10008350:	d8f6      	bhi.n	10008340 <cdcd_control_xfer_cb+0x1c>
10008352:	e8df f003 	tbb	[pc, r3]
10008356:	272c      	.short	0x272c
10008358:	020d      	.short	0x020d
1000835a:	2901      	cmp	r1, #1
1000835c:	d033      	beq.n	100083c6 <cdcd_control_xfer_cb+0xa2>
1000835e:	2903      	cmp	r1, #3
10008360:	d122      	bne.n	100083a8 <cdcd_control_xfer_cb+0x84>
10008362:	4b1e      	ldr	r3, [pc, #120]	@ (100083dc <cdcd_control_xfer_cb+0xb8>)
10008364:	b303      	cbz	r3, 100083a8 <cdcd_control_xfer_cb+0x84>
10008366:	2000      	movs	r0, #0
10008368:	8851      	ldrh	r1, [r2, #2]
1000836a:	f3af 8000 	nop.w
1000836e:	e01b      	b.n	100083a8 <cdcd_control_xfer_cb+0x84>
10008370:	2901      	cmp	r1, #1
10008372:	d028      	beq.n	100083c6 <cdcd_control_xfer_cb+0xa2>
10008374:	2903      	cmp	r1, #3
10008376:	d117      	bne.n	100083a8 <cdcd_control_xfer_cb+0x84>
10008378:	8852      	ldrh	r2, [r2, #2]
1000837a:	4819      	ldr	r0, [pc, #100]	@ (100083e0 <cdcd_control_xfer_cb+0xbc>)
1000837c:	f002 0301 	and.w	r3, r2, #1
10008380:	f083 0101 	eor.w	r1, r3, #1
10008384:	9301      	str	r3, [sp, #4]
10008386:	f88c 2004 	strb.w	r2, [ip, #4]
1000838a:	9200      	str	r2, [sp, #0]
1000838c:	f000 fdc2 	bl	10008f14 <tu_fifo_set_overwritable>
10008390:	4914      	ldr	r1, [pc, #80]	@ (100083e4 <cdcd_control_xfer_cb+0xc0>)
10008392:	b149      	cbz	r1, 100083a8 <cdcd_control_xfer_cb+0x84>
10008394:	9a00      	ldr	r2, [sp, #0]
10008396:	2000      	movs	r0, #0
10008398:	9901      	ldr	r1, [sp, #4]
1000839a:	f3c2 0240 	ubfx	r2, r2, #1, #1
1000839e:	f3af 8000 	nop.w
100083a2:	e001      	b.n	100083a8 <cdcd_control_xfer_cb+0x84>
100083a4:	2901      	cmp	r1, #1
100083a6:	d012      	beq.n	100083ce <cdcd_control_xfer_cb+0xaa>
100083a8:	2001      	movs	r0, #1
100083aa:	b003      	add	sp, #12
100083ac:	bd00      	pop	{pc}
100083ae:	2901      	cmp	r1, #1
100083b0:	d00d      	beq.n	100083ce <cdcd_control_xfer_cb+0xaa>
100083b2:	2903      	cmp	r1, #3
100083b4:	d1f8      	bne.n	100083a8 <cdcd_control_xfer_cb+0x84>
100083b6:	4b0c      	ldr	r3, [pc, #48]	@ (100083e8 <cdcd_control_xfer_cb+0xc4>)
100083b8:	2b00      	cmp	r3, #0
100083ba:	d0f5      	beq.n	100083a8 <cdcd_control_xfer_cb+0x84>
100083bc:	2000      	movs	r0, #0
100083be:	490b      	ldr	r1, [pc, #44]	@ (100083ec <cdcd_control_xfer_cb+0xc8>)
100083c0:	f7fe fa26 	bl	10006810 <tud_cdc_line_coding_cb>
100083c4:	e7f0      	b.n	100083a8 <cdcd_control_xfer_cb+0x84>
100083c6:	4611      	mov	r1, r2
100083c8:	f7ff fc9a 	bl	10007d00 <tud_control_status>
100083cc:	e7ec      	b.n	100083a8 <cdcd_control_xfer_cb+0x84>
100083ce:	4611      	mov	r1, r2
100083d0:	2307      	movs	r3, #7
100083d2:	4a06      	ldr	r2, [pc, #24]	@ (100083ec <cdcd_control_xfer_cb+0xc8>)
100083d4:	f7ff fcb0 	bl	10007d38 <tud_control_xfer>
100083d8:	e7e6      	b.n	100083a8 <cdcd_control_xfer_cb+0x84>
100083da:	bf00      	nop
100083dc:	00000000 	.word	0x00000000
100083e0:	200017a4 	.word	0x200017a4
100083e4:	00000000 	.word	0x00000000
100083e8:	10006811 	.word	0x10006811
100083ec:	20001788 	.word	0x20001788
100083f0:	20001780 	.word	0x20001780

100083f4 <cdcd_xfer_cb>:
100083f4:	e92d 41f0 	stmdb	sp!, {r4, r5, r6, r7, r8, lr}
100083f8:	4c39      	ldr	r4, [pc, #228]	@ (100084e0 <cdcd_xfer_cb+0xec>)
100083fa:	460d      	mov	r5, r1
100083fc:	78e2      	ldrb	r2, [r4, #3]
100083fe:	4607      	mov	r7, r0
10008400:	428a      	cmp	r2, r1
10008402:	461e      	mov	r6, r3
10008404:	b082      	sub	sp, #8
10008406:	d043      	beq.n	10008490 <cdcd_xfer_cb+0x9c>
10008408:	78a3      	ldrb	r3, [r4, #2]
1000840a:	428b      	cmp	r3, r1
1000840c:	d017      	beq.n	1000843e <cdcd_xfer_cb+0x4a>
1000840e:	f04f 23e0 	mov.w	r3, #3758153728	@ 0xe000e000
10008412:	f8d3 3df0 	ldr.w	r3, [r3, #3568]	@ 0xdf0
10008416:	07db      	lsls	r3, r3, #31
10008418:	d41f      	bmi.n	1000845a <cdcd_xfer_cb+0x66>
1000841a:	2500      	movs	r5, #0
1000841c:	4628      	mov	r0, r5
1000841e:	b002      	add	sp, #8
10008420:	e8bd 81f0 	ldmia.w	sp!, {r4, r5, r6, r7, r8, pc}
10008424:	4b2f      	ldr	r3, [pc, #188]	@ (100084e4 <cdcd_xfer_cb+0xf0>)
10008426:	b123      	cbz	r3, 10008432 <cdcd_xfer_cb+0x3e>
10008428:	482f      	ldr	r0, [pc, #188]	@ (100084e8 <cdcd_xfer_cb+0xf4>)
1000842a:	f000 fb9f 	bl	10008b6c <tu_fifo_empty>
1000842e:	2800      	cmp	r0, #0
10008430:	d053      	beq.n	100084da <cdcd_xfer_cb+0xe6>
10008432:	2000      	movs	r0, #0
10008434:	f7ff fd86 	bl	10007f44 <_prep_out_transaction.isra.0>
10008438:	78a3      	ldrb	r3, [r4, #2]
1000843a:	42ab      	cmp	r3, r5
1000843c:	d108      	bne.n	10008450 <cdcd_xfer_cb+0x5c>
1000843e:	4b2b      	ldr	r3, [pc, #172]	@ (100084ec <cdcd_xfer_cb+0xf8>)
10008440:	b113      	cbz	r3, 10008448 <cdcd_xfer_cb+0x54>
10008442:	2000      	movs	r0, #0
10008444:	f3af 8000 	nop.w
10008448:	2000      	movs	r0, #0
1000844a:	f7ff fe21 	bl	10008090 <tud_cdc_n_write_flush>
1000844e:	b130      	cbz	r0, 1000845e <cdcd_xfer_cb+0x6a>
10008450:	2501      	movs	r5, #1
10008452:	4628      	mov	r0, r5
10008454:	b002      	add	sp, #8
10008456:	e8bd 81f0 	ldmia.w	sp!, {r4, r5, r6, r7, r8, pc}
1000845a:	be00      	bkpt	0x0000
1000845c:	e7dd      	b.n	1000841a <cdcd_xfer_cb+0x26>
1000845e:	4824      	ldr	r0, [pc, #144]	@ (100084f0 <cdcd_xfer_cb+0xfc>)
10008460:	f000 fb76 	bl	10008b50 <tu_fifo_count>
10008464:	2800      	cmp	r0, #0
10008466:	d1f3      	bne.n	10008450 <cdcd_xfer_cb+0x5c>
10008468:	2e00      	cmp	r6, #0
1000846a:	d0f1      	beq.n	10008450 <cdcd_xfer_cb+0x5c>
1000846c:	f016 033f 	ands.w	r3, r6, #63	@ 0x3f
10008470:	d1ee      	bne.n	10008450 <cdcd_xfer_cb+0x5c>
10008472:	4638      	mov	r0, r7
10008474:	78a1      	ldrb	r1, [r4, #2]
10008476:	9301      	str	r3, [sp, #4]
10008478:	f7ff fbe4 	bl	10007c44 <usbd_edpt_claim>
1000847c:	9b01      	ldr	r3, [sp, #4]
1000847e:	4605      	mov	r5, r0
10008480:	2800      	cmp	r0, #0
10008482:	d0e5      	beq.n	10008450 <cdcd_xfer_cb+0x5c>
10008484:	461a      	mov	r2, r3
10008486:	4638      	mov	r0, r7
10008488:	78a1      	ldrb	r1, [r4, #2]
1000848a:	f7ff fbff 	bl	10007c8c <usbd_edpt_xfer>
1000848e:	e7c5      	b.n	1000841c <cdcd_xfer_cb+0x28>
10008490:	b29a      	uxth	r2, r3
10008492:	4918      	ldr	r1, [pc, #96]	@ (100084f4 <cdcd_xfer_cb+0x100>)
10008494:	f104 0010 	add.w	r0, r4, #16
10008498:	f000 fc86 	bl	10008da8 <tu_fifo_write_n>
1000849c:	4b16      	ldr	r3, [pc, #88]	@ (100084f8 <cdcd_xfer_cb+0x104>)
1000849e:	2b00      	cmp	r3, #0
100084a0:	d0c0      	beq.n	10008424 <cdcd_xfer_cb+0x30>
100084a2:	7962      	ldrb	r2, [r4, #5]
100084a4:	2aff      	cmp	r2, #255	@ 0xff
100084a6:	d0bd      	beq.n	10008424 <cdcd_xfer_cb+0x30>
100084a8:	2e00      	cmp	r6, #0
100084aa:	d0bb      	beq.n	10008424 <cdcd_xfer_cb+0x30>
100084ac:	4b11      	ldr	r3, [pc, #68]	@ (100084f4 <cdcd_xfer_cb+0x100>)
100084ae:	eb03 0806 	add.w	r8, r3, r6
100084b2:	e002      	b.n	100084ba <cdcd_xfer_cb+0xc6>
100084b4:	4598      	cmp	r8, r3
100084b6:	d0b5      	beq.n	10008424 <cdcd_xfer_cb+0x30>
100084b8:	7962      	ldrb	r2, [r4, #5]
100084ba:	f813 1b01 	ldrb.w	r1, [r3], #1
100084be:	4291      	cmp	r1, r2
100084c0:	d1f8      	bne.n	100084b4 <cdcd_xfer_cb+0xc0>
100084c2:	4809      	ldr	r0, [pc, #36]	@ (100084e8 <cdcd_xfer_cb+0xf4>)
100084c4:	9301      	str	r3, [sp, #4]
100084c6:	f000 fb51 	bl	10008b6c <tu_fifo_empty>
100084ca:	9b01      	ldr	r3, [sp, #4]
100084cc:	2800      	cmp	r0, #0
100084ce:	d1f1      	bne.n	100084b4 <cdcd_xfer_cb+0xc0>
100084d0:	7961      	ldrb	r1, [r4, #5]
100084d2:	f3af 8000 	nop.w
100084d6:	9b01      	ldr	r3, [sp, #4]
100084d8:	e7ec      	b.n	100084b4 <cdcd_xfer_cb+0xc0>
100084da:	f3af 8000 	nop.w
100084de:	e7a8      	b.n	10008432 <cdcd_xfer_cb+0x3e>
100084e0:	20001780 	.word	0x20001780
100084e4:	00000000 	.word	0x00000000
100084e8:	20001790 	.word	0x20001790
100084ec:	00000000 	.word	0x00000000
100084f0:	200017a4 	.word	0x200017a4
100084f4:	20001ca4 	.word	0x20001ca4
100084f8:	00000000 	.word	0x00000000

100084fc <vendord_init>:
100084fc:	b5f0      	push	{r4, r5, r6, r7, lr}
100084fe:	f44f 7213 	mov.w	r2, #588	@ 0x24c
10008502:	b085      	sub	sp, #20
10008504:	2100      	movs	r1, #0
10008506:	4812      	ldr	r0, [pc, #72]	@ (10008550 <vendord_init+0x54>)
10008508:	f000 ff0e 	bl	10009328 <memset>
1000850c:	2640      	movs	r6, #64	@ 0x40
1000850e:	2300      	movs	r3, #0
10008510:	f44f 7580 	mov.w	r5, #256	@ 0x100
10008514:	4f0e      	ldr	r7, [pc, #56]	@ (10008550 <vendord_init+0x54>)
10008516:	4c0f      	ldr	r4, [pc, #60]	@ (10008554 <vendord_init+0x58>)
10008518:	f507 72a6 	add.w	r2, r7, #332	@ 0x14c
1000851c:	4619      	mov	r1, r3
1000851e:	e9cd 4602 	strd	r4, r6, [sp, #8]
10008522:	9200      	str	r2, [sp, #0]
10008524:	9501      	str	r5, [sp, #4]
10008526:	461a      	mov	r2, r3
10008528:	f507 7094 	add.w	r0, r7, #296	@ 0x128
1000852c:	f000 f9d6 	bl	100088dc <tu_edpt_stream_init>
10008530:	2300      	movs	r3, #0
10008532:	f107 0128 	add.w	r1, r7, #40	@ 0x28
10008536:	4434      	add	r4, r6
10008538:	9100      	str	r1, [sp, #0]
1000853a:	2201      	movs	r2, #1
1000853c:	4619      	mov	r1, r3
1000853e:	e9cd 4602 	strd	r4, r6, [sp, #8]
10008542:	9501      	str	r5, [sp, #4]
10008544:	1d38      	adds	r0, r7, #4
10008546:	f000 f9c9 	bl	100088dc <tu_edpt_stream_init>
1000854a:	b005      	add	sp, #20
1000854c:	bdf0      	pop	{r4, r5, r6, r7, pc}
1000854e:	bf00      	nop
10008550:	20001f50 	.word	0x20001f50
10008554:	20001ed0 	.word	0x20001ed0

10008558 <vendord_deinit>:
10008558:	b508      	push	{r3, lr}
1000855a:	4804      	ldr	r0, [pc, #16]	@ (1000856c <vendord_deinit+0x14>)
1000855c:	f000 f9ea 	bl	10008934 <tu_edpt_stream_deinit>
10008560:	4803      	ldr	r0, [pc, #12]	@ (10008570 <vendord_deinit+0x18>)
10008562:	f000 f9e7 	bl	10008934 <tu_edpt_stream_deinit>
10008566:	2001      	movs	r0, #1
10008568:	bd08      	pop	{r3, pc}
1000856a:	bf00      	nop
1000856c:	20002078 	.word	0x20002078
10008570:	20001f54 	.word	0x20001f54

10008574 <vendord_reset>:
10008574:	b538      	push	{r3, r4, r5, lr}
10008576:	2500      	movs	r5, #0
10008578:	4c06      	ldr	r4, [pc, #24]	@ (10008594 <vendord_reset+0x20>)
1000857a:	f504 7098 	add.w	r0, r4, #304	@ 0x130
1000857e:	7025      	strb	r5, [r4, #0]
10008580:	f000 fcac 	bl	10008edc <tu_fifo_clear>
10008584:	f104 000c 	add.w	r0, r4, #12
10008588:	f000 fca8 	bl	10008edc <tu_fifo_clear>
1000858c:	f884 5129 	strb.w	r5, [r4, #297]	@ 0x129
10008590:	7165      	strb	r5, [r4, #5]
10008592:	bd38      	pop	{r3, r4, r5, pc}
10008594:	20001f50 	.word	0x20001f50

10008598 <vendord_open>:
10008598:	e92d 43f8 	stmdb	sp!, {r3, r4, r5, r6, r7, r8, r9, lr}
1000859c:	794b      	ldrb	r3, [r1, #5]
1000859e:	2bff      	cmp	r3, #255	@ 0xff
100085a0:	d105      	bne.n	100085ae <vendord_open+0x16>
100085a2:	4f35      	ldr	r7, [pc, #212]	@ (10008678 <vendord_open+0xe0>)
100085a4:	797e      	ldrb	r6, [r7, #5]
100085a6:	f897 3129 	ldrb.w	r3, [r7, #297]	@ 0x129
100085aa:	431e      	orrs	r6, r3
100085ac:	d002      	beq.n	100085b4 <vendord_open+0x1c>
100085ae:	2000      	movs	r0, #0
100085b0:	e8bd 83f8 	ldmia.w	sp!, {r3, r4, r5, r6, r7, r8, r9, pc}
100085b4:	788b      	ldrb	r3, [r1, #2]
100085b6:	780c      	ldrb	r4, [r1, #0]
100085b8:	703b      	strb	r3, [r7, #0]
100085ba:	790b      	ldrb	r3, [r1, #4]
100085bc:	4681      	mov	r9, r0
100085be:	4688      	mov	r8, r1
100085c0:	440c      	add	r4, r1
100085c2:	2b00      	cmp	r3, #0
100085c4:	d034      	beq.n	10008630 <vendord_open+0x98>
100085c6:	18a5      	adds	r5, r4, r2
100085c8:	e003      	b.n	100085d2 <vendord_open+0x3a>
100085ca:	42a5      	cmp	r5, r4
100085cc:	d930      	bls.n	10008630 <vendord_open+0x98>
100085ce:	7823      	ldrb	r3, [r4, #0]
100085d0:	441c      	add	r4, r3
100085d2:	7863      	ldrb	r3, [r4, #1]
100085d4:	2b05      	cmp	r3, #5
100085d6:	d1f8      	bne.n	100085ca <vendord_open+0x32>
100085d8:	42a5      	cmp	r5, r4
100085da:	d929      	bls.n	10008630 <vendord_open+0x98>
100085dc:	4621      	mov	r1, r4
100085de:	4648      	mov	r0, r9
100085e0:	f7ff fb02 	bl	10007be8 <usbd_edpt_open>
100085e4:	2800      	cmp	r0, #0
100085e6:	d03e      	beq.n	10008666 <vendord_open+0xce>
100085e8:	78a3      	ldrb	r3, [r4, #2]
100085ea:	09db      	lsrs	r3, r3, #7
100085ec:	d125      	bne.n	1000863a <vendord_open+0xa2>
100085ee:	4823      	ldr	r0, [pc, #140]	@ (1000867c <vendord_open+0xe4>)
100085f0:	f000 fc74 	bl	10008edc <tu_fifo_clear>
100085f4:	78a3      	ldrb	r3, [r4, #2]
100085f6:	f897 2128 	ldrb.w	r2, [r7, #296]	@ 0x128
100085fa:	f887 3129 	strb.w	r3, [r7, #297]	@ 0x129
100085fe:	88a3      	ldrh	r3, [r4, #4]
10008600:	4648      	mov	r0, r9
10008602:	f3c3 030a 	ubfx	r3, r3, #0, #11
10008606:	f5a3 7300 	sub.w	r3, r3, #512	@ 0x200
1000860a:	fab3 f383 	clz	r3, r3
1000860e:	095b      	lsrs	r3, r3, #5
10008610:	f363 0241 	bfi	r2, r3, #1, #1
10008614:	491a      	ldr	r1, [pc, #104]	@ (10008680 <vendord_open+0xe8>)
10008616:	f887 2128 	strb.w	r2, [r7, #296]	@ 0x128
1000861a:	f000 f9ff 	bl	10008a1c <tu_edpt_stream_read_xfer>
1000861e:	b310      	cbz	r0, 10008666 <vendord_open+0xce>
10008620:	7823      	ldrb	r3, [r4, #0]
10008622:	f898 2004 	ldrb.w	r2, [r8, #4]
10008626:	3601      	adds	r6, #1
10008628:	441c      	add	r4, r3
1000862a:	b2f3      	uxtb	r3, r6
1000862c:	429a      	cmp	r2, r3
1000862e:	d8d0      	bhi.n	100085d2 <vendord_open+0x3a>
10008630:	eba4 0008 	sub.w	r0, r4, r8
10008634:	b280      	uxth	r0, r0
10008636:	e8bd 83f8 	ldmia.w	sp!, {r3, r4, r5, r6, r7, r8, r9, pc}
1000863a:	4812      	ldr	r0, [pc, #72]	@ (10008684 <vendord_open+0xec>)
1000863c:	f000 fc4e 	bl	10008edc <tu_fifo_clear>
10008640:	78a3      	ldrb	r3, [r4, #2]
10008642:	793a      	ldrb	r2, [r7, #4]
10008644:	717b      	strb	r3, [r7, #5]
10008646:	88a3      	ldrh	r3, [r4, #4]
10008648:	490f      	ldr	r1, [pc, #60]	@ (10008688 <vendord_open+0xf0>)
1000864a:	f3c3 030a 	ubfx	r3, r3, #0, #11
1000864e:	f5a3 7300 	sub.w	r3, r3, #512	@ 0x200
10008652:	fab3 f383 	clz	r3, r3
10008656:	095b      	lsrs	r3, r3, #5
10008658:	f363 0241 	bfi	r2, r3, #1, #1
1000865c:	2000      	movs	r0, #0
1000865e:	713a      	strb	r2, [r7, #4]
10008660:	f000 f9a0 	bl	100089a4 <tu_edpt_stream_write_xfer>
10008664:	e7dc      	b.n	10008620 <vendord_open+0x88>
10008666:	f04f 23e0 	mov.w	r3, #3758153728	@ 0xe000e000
1000866a:	f8d3 3df0 	ldr.w	r3, [r3, #3568]	@ 0xdf0
1000866e:	07db      	lsls	r3, r3, #31
10008670:	d59d      	bpl.n	100085ae <vendord_open+0x16>
10008672:	be00      	bkpt	0x0000
10008674:	e79b      	b.n	100085ae <vendord_open+0x16>
10008676:	bf00      	nop
10008678:	20001f50 	.word	0x20001f50
1000867c:	20002080 	.word	0x20002080
10008680:	20002078 	.word	0x20002078
10008684:	20001f5c 	.word	0x20001f5c
10008688:	20001f54 	.word	0x20001f54

1000868c <vendord_xfer_cb>:
1000868c:	b510      	push	{r4, lr}
1000868e:	f8df c090 	ldr.w	ip, [pc, #144]	@ 10008720 <vendord_xfer_cb+0x94>
10008692:	4604      	mov	r4, r0
10008694:	f89c 2129 	ldrb.w	r2, [ip, #297]	@ 0x129
10008698:	b082      	sub	sp, #8
1000869a:	428a      	cmp	r2, r1
1000869c:	d01a      	beq.n	100086d4 <vendord_xfer_cb+0x48>
1000869e:	f89c 2005 	ldrb.w	r2, [ip, #5]
100086a2:	428a      	cmp	r2, r1
100086a4:	d002      	beq.n	100086ac <vendord_xfer_cb+0x20>
100086a6:	2000      	movs	r0, #0
100086a8:	b002      	add	sp, #8
100086aa:	bd10      	pop	{r4, pc}
100086ac:	4a17      	ldr	r2, [pc, #92]	@ (1000870c <vendord_xfer_cb+0x80>)
100086ae:	b12a      	cbz	r2, 100086bc <vendord_xfer_cb+0x30>
100086b0:	b299      	uxth	r1, r3
100086b2:	2000      	movs	r0, #0
100086b4:	9301      	str	r3, [sp, #4]
100086b6:	f3af 8000 	nop.w
100086ba:	9b01      	ldr	r3, [sp, #4]
100086bc:	4620      	mov	r0, r4
100086be:	4914      	ldr	r1, [pc, #80]	@ (10008710 <vendord_xfer_cb+0x84>)
100086c0:	9301      	str	r3, [sp, #4]
100086c2:	f000 f96f 	bl	100089a4 <tu_edpt_stream_write_xfer>
100086c6:	b998      	cbnz	r0, 100086f0 <vendord_xfer_cb+0x64>
100086c8:	4620      	mov	r0, r4
100086ca:	9a01      	ldr	r2, [sp, #4]
100086cc:	4910      	ldr	r1, [pc, #64]	@ (10008710 <vendord_xfer_cb+0x84>)
100086ce:	f000 f933 	bl	10008938 <tu_edpt_stream_write_zlp_if_needed>
100086d2:	e00d      	b.n	100086f0 <vendord_xfer_cb+0x64>
100086d4:	f8bc 2134 	ldrh.w	r2, [ip, #308]	@ 0x134
100086d8:	b96a      	cbnz	r2, 100086f6 <vendord_xfer_cb+0x6a>
100086da:	4a0e      	ldr	r2, [pc, #56]	@ (10008714 <vendord_xfer_cb+0x88>)
100086dc:	b122      	cbz	r2, 100086e8 <vendord_xfer_cb+0x5c>
100086de:	2000      	movs	r0, #0
100086e0:	490d      	ldr	r1, [pc, #52]	@ (10008718 <vendord_xfer_cb+0x8c>)
100086e2:	b29a      	uxth	r2, r3
100086e4:	f3af 8000 	nop.w
100086e8:	4620      	mov	r0, r4
100086ea:	490c      	ldr	r1, [pc, #48]	@ (1000871c <vendord_xfer_cb+0x90>)
100086ec:	f000 f996 	bl	10008a1c <tu_edpt_stream_read_xfer>
100086f0:	2001      	movs	r0, #1
100086f2:	b002      	add	sp, #8
100086f4:	bd10      	pop	{r4, pc}
100086f6:	b29a      	uxth	r2, r3
100086f8:	f8dc 112c 	ldr.w	r1, [ip, #300]	@ 0x12c
100086fc:	f50c 7098 	add.w	r0, ip, #304	@ 0x130
10008700:	9301      	str	r3, [sp, #4]
10008702:	f000 fb51 	bl	10008da8 <tu_fifo_write_n>
10008706:	9b01      	ldr	r3, [sp, #4]
10008708:	e7e7      	b.n	100086da <vendord_xfer_cb+0x4e>
1000870a:	bf00      	nop
1000870c:	00000000 	.word	0x00000000
10008710:	20001f54 	.word	0x20001f54
10008714:	00000000 	.word	0x00000000
10008718:	20001ed0 	.word	0x20001ed0
1000871c:	20002078 	.word	0x20002078
10008720:	20001f50 	.word	0x20001f50

10008724 <tusb_rhport_init>:
10008724:	b500      	push	{lr}
10008726:	b083      	sub	sp, #12
10008728:	b1b9      	cbz	r1, 1000875a <tusb_rhport_init+0x36>
1000872a:	2801      	cmp	r0, #1
1000872c:	d80a      	bhi.n	10008744 <tusb_rhport_init+0x20>
1000872e:	780b      	ldrb	r3, [r1, #0]
10008730:	b143      	cbz	r3, 10008744 <tusb_rhport_init+0x20>
10008732:	f8df c058 	ldr.w	ip, [pc, #88]	@ 1000878c <tusb_rhport_init+0x68>
10008736:	2b01      	cmp	r3, #1
10008738:	f80c 3000 	strb.w	r3, [ip, r0]
1000873c:	d019      	beq.n	10008772 <tusb_rhport_init+0x4e>
1000873e:	2001      	movs	r0, #1
10008740:	b003      	add	sp, #12
10008742:	bd00      	pop	{pc}
10008744:	f04f 23e0 	mov.w	r3, #3758153728	@ 0xe000e000
10008748:	f8d3 3df0 	ldr.w	r3, [r3, #3568]	@ 0xdf0
1000874c:	07da      	lsls	r2, r3, #31
1000874e:	d402      	bmi.n	10008756 <tusb_rhport_init+0x32>
10008750:	2000      	movs	r0, #0
10008752:	b003      	add	sp, #12
10008754:	bd00      	pop	{pc}
10008756:	be00      	bkpt	0x0000
10008758:	e7fa      	b.n	10008750 <tusb_rhport_init+0x2c>
1000875a:	2201      	movs	r2, #1
1000875c:	4608      	mov	r0, r1
1000875e:	a901      	add	r1, sp, #4
10008760:	f8ad 2004 	strh.w	r2, [sp, #4]
10008764:	f7fe fd94 	bl	10007290 <tud_rhport_init>
10008768:	2201      	movs	r2, #1
1000876a:	b130      	cbz	r0, 1000877a <tusb_rhport_init+0x56>
1000876c:	4b07      	ldr	r3, [pc, #28]	@ (1000878c <tusb_rhport_init+0x68>)
1000876e:	701a      	strb	r2, [r3, #0]
10008770:	e7ef      	b.n	10008752 <tusb_rhport_init+0x2e>
10008772:	f7fe fd8d 	bl	10007290 <tud_rhport_init>
10008776:	2800      	cmp	r0, #0
10008778:	d1eb      	bne.n	10008752 <tusb_rhport_init+0x2e>
1000877a:	f04f 23e0 	mov.w	r3, #3758153728	@ 0xe000e000
1000877e:	f8d3 3df0 	ldr.w	r3, [r3, #3568]	@ 0xdf0
10008782:	07db      	lsls	r3, r3, #31
10008784:	d5e5      	bpl.n	10008752 <tusb_rhport_init+0x2e>
10008786:	be00      	bkpt	0x0000
10008788:	e7e3      	b.n	10008752 <tusb_rhport_init+0x2e>
1000878a:	bf00      	nop
1000878c:	20001d9c 	.word	0x20001d9c

10008790 <tu_edpt_claim>:
10008790:	7803      	ldrb	r3, [r0, #0]
10008792:	f013 0301 	ands.w	r3, r3, #1
10008796:	d11d      	bne.n	100087d4 <tu_edpt_claim+0x44>
10008798:	7802      	ldrb	r2, [r0, #0]
1000879a:	f012 0f04 	tst.w	r2, #4
1000879e:	d001      	beq.n	100087a4 <tu_edpt_claim+0x14>
100087a0:	4618      	mov	r0, r3
100087a2:	4770      	bx	lr
100087a4:	b530      	push	{r4, r5, lr}
100087a6:	4604      	mov	r4, r0
100087a8:	b083      	sub	sp, #12
100087aa:	4608      	mov	r0, r1
100087ac:	460d      	mov	r5, r1
100087ae:	f04f 31ff 	mov.w	r1, #4294967295	@ 0xffffffff
100087b2:	9201      	str	r2, [sp, #4]
100087b4:	f000 ff1c 	bl	100095f0 <__mutex_enter_timeout_ms_veneer>
100087b8:	7823      	ldrb	r3, [r4, #0]
100087ba:	9a01      	ldr	r2, [sp, #4]
100087bc:	f013 0301 	ands.w	r3, r3, #1
100087c0:	d10b      	bne.n	100087da <tu_edpt_claim+0x4a>
100087c2:	7821      	ldrb	r1, [r4, #0]
100087c4:	074a      	lsls	r2, r1, #29
100087c6:	d40a      	bmi.n	100087de <tu_edpt_claim+0x4e>
100087c8:	7821      	ldrb	r1, [r4, #0]
100087ca:	2301      	movs	r3, #1
100087cc:	f041 0104 	orr.w	r1, r1, #4
100087d0:	7021      	strb	r1, [r4, #0]
100087d2:	e004      	b.n	100087de <tu_edpt_claim+0x4e>
100087d4:	2300      	movs	r3, #0
100087d6:	4618      	mov	r0, r3
100087d8:	4770      	bx	lr
100087da:	f3c2 0380 	ubfx	r3, r2, #2, #1
100087de:	4628      	mov	r0, r5
100087e0:	9301      	str	r3, [sp, #4]
100087e2:	f000 ff15 	bl	10009610 <__mutex_exit_veneer>
100087e6:	9b01      	ldr	r3, [sp, #4]
100087e8:	4618      	mov	r0, r3
100087ea:	b003      	add	sp, #12
100087ec:	bd30      	pop	{r4, r5, pc}
100087ee:	bf00      	nop

100087f0 <tu_edpt_release>:
100087f0:	b570      	push	{r4, r5, r6, lr}
100087f2:	460c      	mov	r4, r1
100087f4:	4605      	mov	r5, r0
100087f6:	f04f 31ff 	mov.w	r1, #4294967295	@ 0xffffffff
100087fa:	4620      	mov	r0, r4
100087fc:	f000 fef8 	bl	100095f0 <__mutex_enter_timeout_ms_veneer>
10008800:	782b      	ldrb	r3, [r5, #0]
10008802:	f3c3 0680 	ubfx	r6, r3, #2, #1
10008806:	075b      	lsls	r3, r3, #29
10008808:	d508      	bpl.n	1000881c <tu_edpt_release+0x2c>
1000880a:	782b      	ldrb	r3, [r5, #0]
1000880c:	f013 0301 	ands.w	r3, r3, #1
10008810:	bf11      	iteee	ne
10008812:	2600      	movne	r6, #0
10008814:	782a      	ldrbeq	r2, [r5, #0]
10008816:	f363 0282 	bfieq	r2, r3, #2, #1
1000881a:	702a      	strbeq	r2, [r5, #0]
1000881c:	4620      	mov	r0, r4
1000881e:	f000 fef7 	bl	10009610 <__mutex_exit_veneer>
10008822:	4630      	mov	r0, r6
10008824:	bd70      	pop	{r4, r5, r6, pc}
10008826:	bf00      	nop

10008828 <tu_edpt_validate>:
10008828:	78c3      	ldrb	r3, [r0, #3]
1000882a:	8882      	ldrh	r2, [r0, #4]
1000882c:	f003 0303 	and.w	r3, r3, #3
10008830:	2b02      	cmp	r3, #2
10008832:	f3c2 020a 	ubfx	r2, r2, #0, #11
10008836:	d01d      	beq.n	10008874 <tu_edpt_validate+0x4c>
10008838:	2b03      	cmp	r3, #3
1000883a:	d00b      	beq.n	10008854 <tu_edpt_validate+0x2c>
1000883c:	2b01      	cmp	r3, #1
1000883e:	d117      	bne.n	10008870 <tu_edpt_validate+0x48>
10008840:	2902      	cmp	r1, #2
10008842:	f240 33ff 	movw	r3, #1023	@ 0x3ff
10008846:	bf08      	it	eq
10008848:	f44f 6380 	moveq.w	r3, #1024	@ 0x400
1000884c:	4293      	cmp	r3, r2
1000884e:	d308      	bcc.n	10008862 <tu_edpt_validate+0x3a>
10008850:	2001      	movs	r0, #1
10008852:	4770      	bx	lr
10008854:	2902      	cmp	r1, #2
10008856:	bf14      	ite	ne
10008858:	2340      	movne	r3, #64	@ 0x40
1000885a:	f44f 6380 	moveq.w	r3, #1024	@ 0x400
1000885e:	4293      	cmp	r3, r2
10008860:	d2f6      	bcs.n	10008850 <tu_edpt_validate+0x28>
10008862:	f04f 23e0 	mov.w	r3, #3758153728	@ 0xe000e000
10008866:	f8d3 3df0 	ldr.w	r3, [r3, #3568]	@ 0xdf0
1000886a:	07db      	lsls	r3, r3, #31
1000886c:	d500      	bpl.n	10008870 <tu_edpt_validate+0x48>
1000886e:	be00      	bkpt	0x0000
10008870:	2000      	movs	r0, #0
10008872:	4770      	bx	lr
10008874:	2902      	cmp	r1, #2
10008876:	d003      	beq.n	10008880 <tu_edpt_validate+0x58>
10008878:	2a40      	cmp	r2, #64	@ 0x40
1000887a:	d8f2      	bhi.n	10008862 <tu_edpt_validate+0x3a>
1000887c:	2001      	movs	r0, #1
1000887e:	4770      	bx	lr
10008880:	f5b2 7f00 	cmp.w	r2, #512	@ 0x200
10008884:	d0e4      	beq.n	10008850 <tu_edpt_validate+0x28>
10008886:	e7ec      	b.n	10008862 <tu_edpt_validate+0x3a>

10008888 <tu_edpt_bind_driver>:
10008888:	440a      	add	r2, r1
1000888a:	4291      	cmp	r1, r2
1000888c:	d225      	bcs.n	100088da <tu_edpt_bind_driver+0x52>
1000888e:	f891 c001 	ldrb.w	ip, [r1, #1]
10008892:	f1bc 0f05 	cmp.w	ip, #5
10008896:	d005      	beq.n	100088a4 <tu_edpt_bind_driver+0x1c>
10008898:	f891 c000 	ldrb.w	ip, [r1]
1000889c:	4461      	add	r1, ip
1000889e:	428a      	cmp	r2, r1
100088a0:	d8f5      	bhi.n	1000888e <tu_edpt_bind_driver+0x6>
100088a2:	4770      	bx	lr
100088a4:	b500      	push	{lr}
100088a6:	f891 c002 	ldrb.w	ip, [r1, #2]
100088aa:	f00c 0e7f 	and.w	lr, ip, #127	@ 0x7f
100088ae:	eb00 0e4e 	add.w	lr, r0, lr, lsl #1
100088b2:	ea4f 1cdc 	mov.w	ip, ip, lsr #7
100088b6:	f80e 300c 	strb.w	r3, [lr, ip]
100088ba:	f891 c000 	ldrb.w	ip, [r1]
100088be:	4461      	add	r1, ip
100088c0:	428a      	cmp	r2, r1
100088c2:	d909      	bls.n	100088d8 <tu_edpt_bind_driver+0x50>
100088c4:	f891 c001 	ldrb.w	ip, [r1, #1]
100088c8:	f1bc 0f05 	cmp.w	ip, #5
100088cc:	d0eb      	beq.n	100088a6 <tu_edpt_bind_driver+0x1e>
100088ce:	f891 c000 	ldrb.w	ip, [r1]
100088d2:	4461      	add	r1, ip
100088d4:	428a      	cmp	r2, r1
100088d6:	d8f5      	bhi.n	100088c4 <tu_edpt_bind_driver+0x3c>
100088d8:	bd00      	pop	{pc}
100088da:	4770      	bx	lr

100088dc <tu_edpt_stream_init>:
100088dc:	b570      	push	{r4, r5, r6, lr}
100088de:	b084      	sub	sp, #16
100088e0:	9300      	str	r3, [sp, #0]
100088e2:	f890 c000 	ldrb.w	ip, [r0]
100088e6:	4616      	mov	r6, r2
100088e8:	f361 0c00 	bfi	ip, r1, #0, #1
100088ec:	f8bd 2024 	ldrh.w	r2, [sp, #36]	@ 0x24
100088f0:	4604      	mov	r4, r0
100088f2:	2301      	movs	r3, #1
100088f4:	9908      	ldr	r1, [sp, #32]
100088f6:	f800 cb08 	strb.w	ip, [r0], #8
100088fa:	f8bd 502c 	ldrh.w	r5, [sp, #44]	@ 0x2c
100088fe:	9203      	str	r2, [sp, #12]
10008900:	f000 f8f6 	bl	10008af0 <tu_fifo_config>
10008904:	9b08      	ldr	r3, [sp, #32]
10008906:	b10b      	cbz	r3, 1000890c <tu_edpt_stream_init+0x30>
10008908:	9a03      	ldr	r2, [sp, #12]
1000890a:	b92a      	cbnz	r2, 10008918 <tu_edpt_stream_init+0x3c>
1000890c:	2001      	movs	r0, #1
1000890e:	9b0a      	ldr	r3, [sp, #40]	@ 0x28
10008910:	8065      	strh	r5, [r4, #2]
10008912:	6063      	str	r3, [r4, #4]
10008914:	b004      	add	sp, #16
10008916:	bd70      	pop	{r4, r5, r6, pc}
10008918:	f104 001c 	add.w	r0, r4, #28
1000891c:	9003      	str	r0, [sp, #12]
1000891e:	f7fa fd55 	bl	100033cc <mutex_init>
10008922:	9803      	ldr	r0, [sp, #12]
10008924:	b91e      	cbnz	r6, 1000892e <tu_edpt_stream_init+0x52>
10008926:	4633      	mov	r3, r6
10008928:	e9c4 3005 	strd	r3, r0, [r4, #20]
1000892c:	e7ee      	b.n	1000890c <tu_edpt_stream_init+0x30>
1000892e:	4603      	mov	r3, r0
10008930:	2000      	movs	r0, #0
10008932:	e7f9      	b.n	10008928 <tu_edpt_stream_init+0x4c>

10008934 <tu_edpt_stream_deinit>:
10008934:	2001      	movs	r0, #1
10008936:	4770      	bx	lr

10008938 <tu_edpt_stream_write_zlp_if_needed>:
10008938:	b570      	push	{r4, r5, r6, lr}
1000893a:	4606      	mov	r6, r0
1000893c:	4608      	mov	r0, r1
1000893e:	f240 13ff 	movw	r3, #511	@ 0x1ff
10008942:	460c      	mov	r4, r1
10008944:	f810 1b08 	ldrb.w	r1, [r0], #8
10008948:	b082      	sub	sp, #8
1000894a:	f011 0f02 	tst.w	r1, #2
1000894e:	bf0c      	ite	eq
10008950:	253f      	moveq	r5, #63	@ 0x3f
10008952:	461d      	movne	r5, r3
10008954:	9201      	str	r2, [sp, #4]
10008956:	f000 f8fb 	bl	10008b50 <tu_fifo_count>
1000895a:	b930      	cbnz	r0, 1000896a <tu_edpt_stream_write_zlp_if_needed+0x32>
1000895c:	9a01      	ldr	r2, [sp, #4]
1000895e:	b122      	cbz	r2, 1000896a <tu_edpt_stream_write_zlp_if_needed+0x32>
10008960:	422a      	tst	r2, r5
10008962:	d102      	bne.n	1000896a <tu_edpt_stream_write_zlp_if_needed+0x32>
10008964:	7823      	ldrb	r3, [r4, #0]
10008966:	07da      	lsls	r2, r3, #31
10008968:	d502      	bpl.n	10008970 <tu_edpt_stream_write_zlp_if_needed+0x38>
1000896a:	2000      	movs	r0, #0
1000896c:	b002      	add	sp, #8
1000896e:	bd70      	pop	{r4, r5, r6, pc}
10008970:	4630      	mov	r0, r6
10008972:	7861      	ldrb	r1, [r4, #1]
10008974:	f7ff f966 	bl	10007c44 <usbd_edpt_claim>
10008978:	2800      	cmp	r0, #0
1000897a:	d0f7      	beq.n	1000896c <tu_edpt_stream_write_zlp_if_needed+0x34>
1000897c:	7823      	ldrb	r3, [r4, #0]
1000897e:	f013 0301 	ands.w	r3, r3, #1
10008982:	d007      	beq.n	10008994 <tu_edpt_stream_write_zlp_if_needed+0x5c>
10008984:	f04f 23e0 	mov.w	r3, #3758153728	@ 0xe000e000
10008988:	f8d3 3df0 	ldr.w	r3, [r3, #3568]	@ 0xdf0
1000898c:	07db      	lsls	r3, r3, #31
1000898e:	d5ec      	bpl.n	1000896a <tu_edpt_stream_write_zlp_if_needed+0x32>
10008990:	be00      	bkpt	0x0000
10008992:	e7ea      	b.n	1000896a <tu_edpt_stream_write_zlp_if_needed+0x32>
10008994:	461a      	mov	r2, r3
10008996:	4630      	mov	r0, r6
10008998:	7861      	ldrb	r1, [r4, #1]
1000899a:	f7ff f977 	bl	10007c8c <usbd_edpt_xfer>
1000899e:	2800      	cmp	r0, #0
100089a0:	d1e4      	bne.n	1000896c <tu_edpt_stream_write_zlp_if_needed+0x34>
100089a2:	e7ef      	b.n	10008984 <tu_edpt_stream_write_zlp_if_needed+0x4c>

100089a4 <tu_edpt_stream_write_xfer>:
100089a4:	b570      	push	{r4, r5, r6, lr}
100089a6:	4605      	mov	r5, r0
100089a8:	b082      	sub	sp, #8
100089aa:	f101 0008 	add.w	r0, r1, #8
100089ae:	460c      	mov	r4, r1
100089b0:	f000 f8ce 	bl	10008b50 <tu_fifo_count>
100089b4:	b110      	cbz	r0, 100089bc <tu_edpt_stream_write_xfer+0x18>
100089b6:	7823      	ldrb	r3, [r4, #0]
100089b8:	07db      	lsls	r3, r3, #31
100089ba:	d502      	bpl.n	100089c2 <tu_edpt_stream_write_xfer+0x1e>
100089bc:	2000      	movs	r0, #0
100089be:	b002      	add	sp, #8
100089c0:	bd70      	pop	{r4, r5, r6, pc}
100089c2:	4628      	mov	r0, r5
100089c4:	7861      	ldrb	r1, [r4, #1]
100089c6:	f7ff f93d 	bl	10007c44 <usbd_edpt_claim>
100089ca:	2800      	cmp	r0, #0
100089cc:	d0f6      	beq.n	100089bc <tu_edpt_stream_write_xfer+0x18>
100089ce:	8862      	ldrh	r2, [r4, #2]
100089d0:	6861      	ldr	r1, [r4, #4]
100089d2:	f104 0008 	add.w	r0, r4, #8
100089d6:	f000 f92b 	bl	10008c30 <tu_fifo_read_n>
100089da:	7822      	ldrb	r2, [r4, #0]
100089dc:	4603      	mov	r3, r0
100089de:	f002 0201 	and.w	r2, r2, #1
100089e2:	b148      	cbz	r0, 100089f8 <tu_edpt_stream_write_xfer+0x54>
100089e4:	b17a      	cbz	r2, 10008a06 <tu_edpt_stream_write_xfer+0x62>
100089e6:	f04f 23e0 	mov.w	r3, #3758153728	@ 0xe000e000
100089ea:	f8d3 0df0 	ldr.w	r0, [r3, #3568]	@ 0xdf0
100089ee:	f010 0001 	ands.w	r0, r0, #1
100089f2:	d0e4      	beq.n	100089be <tu_edpt_stream_write_xfer+0x1a>
100089f4:	be00      	bkpt	0x0000
100089f6:	e7e1      	b.n	100089bc <tu_edpt_stream_write_xfer+0x18>
100089f8:	2a00      	cmp	r2, #0
100089fa:	d1df      	bne.n	100089bc <tu_edpt_stream_write_xfer+0x18>
100089fc:	4628      	mov	r0, r5
100089fe:	7861      	ldrb	r1, [r4, #1]
10008a00:	f7ff f932 	bl	10007c68 <usbd_edpt_release>
10008a04:	e7da      	b.n	100089bc <tu_edpt_stream_write_xfer+0x18>
10008a06:	9001      	str	r0, [sp, #4]
10008a08:	6862      	ldr	r2, [r4, #4]
10008a0a:	4628      	mov	r0, r5
10008a0c:	7861      	ldrb	r1, [r4, #1]
10008a0e:	f7ff f93d 	bl	10007c8c <usbd_edpt_xfer>
10008a12:	2800      	cmp	r0, #0
10008a14:	d0e7      	beq.n	100089e6 <tu_edpt_stream_write_xfer+0x42>
10008a16:	9801      	ldr	r0, [sp, #4]
10008a18:	e7d1      	b.n	100089be <tu_edpt_stream_write_xfer+0x1a>
10008a1a:	bf00      	nop

10008a1c <tu_edpt_stream_read_xfer>:
10008a1c:	e92d 41f0 	stmdb	sp!, {r4, r5, r6, r7, r8, lr}
10008a20:	898a      	ldrh	r2, [r1, #12]
10008a22:	460c      	mov	r4, r1
10008a24:	4605      	mov	r5, r0
10008a26:	780b      	ldrb	r3, [r1, #0]
10008a28:	b082      	sub	sp, #8
10008a2a:	b92a      	cbnz	r2, 10008a38 <tu_edpt_stream_read_xfer+0x1c>
10008a2c:	07de      	lsls	r6, r3, #31
10008a2e:	d537      	bpl.n	10008aa0 <tu_edpt_stream_read_xfer+0x84>
10008a30:	2000      	movs	r0, #0
10008a32:	b002      	add	sp, #8
10008a34:	e8bd 81f0 	ldmia.w	sp!, {r4, r5, r6, r7, r8, pc}
10008a38:	079a      	lsls	r2, r3, #30
10008a3a:	f101 0008 	add.w	r0, r1, #8
10008a3e:	bf47      	ittee	mi
10008a40:	f44f 487e 	movmi.w	r8, #65024	@ 0xfe00
10008a44:	f44f 7600 	movmi.w	r6, #512	@ 0x200
10008a48:	f64f 78c0 	movwpl	r8, #65472	@ 0xffc0
10008a4c:	2640      	movpl	r6, #64	@ 0x40
10008a4e:	f101 0708 	add.w	r7, r1, #8
10008a52:	f000 f893 	bl	10008b7c <tu_fifo_remaining>
10008a56:	4286      	cmp	r6, r0
10008a58:	d8ea      	bhi.n	10008a30 <tu_edpt_stream_read_xfer+0x14>
10008a5a:	7823      	ldrb	r3, [r4, #0]
10008a5c:	07db      	lsls	r3, r3, #31
10008a5e:	d4e7      	bmi.n	10008a30 <tu_edpt_stream_read_xfer+0x14>
10008a60:	4628      	mov	r0, r5
10008a62:	7861      	ldrb	r1, [r4, #1]
10008a64:	f7ff f8ee 	bl	10007c44 <usbd_edpt_claim>
10008a68:	2800      	cmp	r0, #0
10008a6a:	d0e1      	beq.n	10008a30 <tu_edpt_stream_read_xfer+0x14>
10008a6c:	4638      	mov	r0, r7
10008a6e:	f000 f885 	bl	10008b7c <tu_fifo_remaining>
10008a72:	7823      	ldrb	r3, [r4, #0]
10008a74:	4286      	cmp	r6, r0
10008a76:	f003 0301 	and.w	r3, r3, #1
10008a7a:	d82f      	bhi.n	10008adc <tu_edpt_stream_read_xfer+0xc0>
10008a7c:	b9c3      	cbnz	r3, 10008ab0 <tu_edpt_stream_read_xfer+0x94>
10008a7e:	8863      	ldrh	r3, [r4, #2]
10008a80:	ea00 0008 	and.w	r0, r0, r8
10008a84:	4283      	cmp	r3, r0
10008a86:	bf28      	it	cs
10008a88:	4603      	movcs	r3, r0
10008a8a:	7861      	ldrb	r1, [r4, #1]
10008a8c:	2b00      	cmp	r3, #0
10008a8e:	d02c      	beq.n	10008aea <tu_edpt_stream_read_xfer+0xce>
10008a90:	6862      	ldr	r2, [r4, #4]
10008a92:	4628      	mov	r0, r5
10008a94:	9301      	str	r3, [sp, #4]
10008a96:	f7ff f8f9 	bl	10007c8c <usbd_edpt_xfer>
10008a9a:	b148      	cbz	r0, 10008ab0 <tu_edpt_stream_read_xfer+0x94>
10008a9c:	9801      	ldr	r0, [sp, #4]
10008a9e:	e7c8      	b.n	10008a32 <tu_edpt_stream_read_xfer+0x16>
10008aa0:	7849      	ldrb	r1, [r1, #1]
10008aa2:	f7ff f8cf 	bl	10007c44 <usbd_edpt_claim>
10008aa6:	2800      	cmp	r0, #0
10008aa8:	d0c2      	beq.n	10008a30 <tu_edpt_stream_read_xfer+0x14>
10008aaa:	7823      	ldrb	r3, [r4, #0]
10008aac:	07d9      	lsls	r1, r3, #31
10008aae:	d508      	bpl.n	10008ac2 <tu_edpt_stream_read_xfer+0xa6>
10008ab0:	f04f 23e0 	mov.w	r3, #3758153728	@ 0xe000e000
10008ab4:	f8d3 0df0 	ldr.w	r0, [r3, #3568]	@ 0xdf0
10008ab8:	f010 0001 	ands.w	r0, r0, #1
10008abc:	d0b9      	beq.n	10008a32 <tu_edpt_stream_read_xfer+0x16>
10008abe:	be00      	bkpt	0x0000
10008ac0:	e7b6      	b.n	10008a30 <tu_edpt_stream_read_xfer+0x14>
10008ac2:	8863      	ldrh	r3, [r4, #2]
10008ac4:	7861      	ldrb	r1, [r4, #1]
10008ac6:	b13b      	cbz	r3, 10008ad8 <tu_edpt_stream_read_xfer+0xbc>
10008ac8:	6862      	ldr	r2, [r4, #4]
10008aca:	4628      	mov	r0, r5
10008acc:	f7ff f8de 	bl	10007c8c <usbd_edpt_xfer>
10008ad0:	2800      	cmp	r0, #0
10008ad2:	d0ed      	beq.n	10008ab0 <tu_edpt_stream_read_xfer+0x94>
10008ad4:	8860      	ldrh	r0, [r4, #2]
10008ad6:	e7ac      	b.n	10008a32 <tu_edpt_stream_read_xfer+0x16>
10008ad8:	461a      	mov	r2, r3
10008ada:	e7f6      	b.n	10008aca <tu_edpt_stream_read_xfer+0xae>
10008adc:	2b00      	cmp	r3, #0
10008ade:	d1a7      	bne.n	10008a30 <tu_edpt_stream_read_xfer+0x14>
10008ae0:	4628      	mov	r0, r5
10008ae2:	7861      	ldrb	r1, [r4, #1]
10008ae4:	f7ff f8c0 	bl	10007c68 <usbd_edpt_release>
10008ae8:	e7a2      	b.n	10008a30 <tu_edpt_stream_read_xfer+0x14>
10008aea:	461a      	mov	r2, r3
10008aec:	e7d1      	b.n	10008a92 <tu_edpt_stream_read_xfer+0x76>
10008aee:	bf00      	nop

10008af0 <tu_fifo_config>:
10008af0:	e92d 41f0 	stmdb	sp!, {r4, r5, r6, r7, r8, lr}
10008af4:	f5b2 4f00 	cmp.w	r2, #32768	@ 0x8000
10008af8:	f89d 5018 	ldrb.w	r5, [sp, #24]
10008afc:	d824      	bhi.n	10008b48 <tu_fifo_config+0x58>
10008afe:	4604      	mov	r4, r0
10008b00:	68c0      	ldr	r0, [r0, #12]
10008b02:	4698      	mov	r8, r3
10008b04:	460f      	mov	r7, r1
10008b06:	4616      	mov	r6, r2
10008b08:	b118      	cbz	r0, 10008b12 <tu_fifo_config+0x22>
10008b0a:	f04f 31ff 	mov.w	r1, #4294967295	@ 0xffffffff
10008b0e:	f000 fd6f 	bl	100095f0 <__mutex_enter_timeout_ms_veneer>
10008b12:	6920      	ldr	r0, [r4, #16]
10008b14:	b118      	cbz	r0, 10008b1e <tu_fifo_config+0x2e>
10008b16:	f04f 31ff 	mov.w	r1, #4294967295	@ 0xffffffff
10008b1a:	f000 fd69 	bl	100095f0 <__mutex_enter_timeout_ms_veneer>
10008b1e:	2200      	movs	r2, #0
10008b20:	f3c8 030e 	ubfx	r3, r8, #0, #15
10008b24:	68e0      	ldr	r0, [r4, #12]
10008b26:	ea43 33c5 	orr.w	r3, r3, r5, lsl #15
10008b2a:	8162      	strh	r2, [r4, #10]
10008b2c:	6027      	str	r7, [r4, #0]
10008b2e:	80a6      	strh	r6, [r4, #4]
10008b30:	80e3      	strh	r3, [r4, #6]
10008b32:	8122      	strh	r2, [r4, #8]
10008b34:	b108      	cbz	r0, 10008b3a <tu_fifo_config+0x4a>
10008b36:	f000 fd6b 	bl	10009610 <__mutex_exit_veneer>
10008b3a:	6920      	ldr	r0, [r4, #16]
10008b3c:	b108      	cbz	r0, 10008b42 <tu_fifo_config+0x52>
10008b3e:	f000 fd67 	bl	10009610 <__mutex_exit_veneer>
10008b42:	2001      	movs	r0, #1
10008b44:	e8bd 81f0 	ldmia.w	sp!, {r4, r5, r6, r7, r8, pc}
10008b48:	2000      	movs	r0, #0
10008b4a:	e8bd 81f0 	ldmia.w	sp!, {r4, r5, r6, r7, r8, pc}
10008b4e:	bf00      	nop

10008b50 <tu_fifo_count>:
10008b50:	8903      	ldrh	r3, [r0, #8]
10008b52:	8942      	ldrh	r2, [r0, #10]
10008b54:	8880      	ldrh	r0, [r0, #4]
10008b56:	4293      	cmp	r3, r2
10008b58:	bf36      	itet	cc
10008b5a:	ebc2 0240 	rsbcc	r2, r2, r0, lsl #1
10008b5e:	1a9b      	subcs	r3, r3, r2
10008b60:	189b      	addcc	r3, r3, r2
10008b62:	b29b      	uxth	r3, r3
10008b64:	4298      	cmp	r0, r3
10008b66:	bf28      	it	cs
10008b68:	4618      	movcs	r0, r3
10008b6a:	4770      	bx	lr

10008b6c <tu_fifo_empty>:
10008b6c:	8902      	ldrh	r2, [r0, #8]
10008b6e:	8940      	ldrh	r0, [r0, #10]
10008b70:	1a10      	subs	r0, r2, r0
10008b72:	fab0 f080 	clz	r0, r0
10008b76:	0940      	lsrs	r0, r0, #5
10008b78:	4770      	bx	lr
10008b7a:	bf00      	nop

10008b7c <tu_fifo_remaining>:
10008b7c:	8903      	ldrh	r3, [r0, #8]
10008b7e:	8942      	ldrh	r2, [r0, #10]
10008b80:	8880      	ldrh	r0, [r0, #4]
10008b82:	4293      	cmp	r3, r2
10008b84:	bf36      	itet	cc
10008b86:	ebc2 0240 	rsbcc	r2, r2, r0, lsl #1
10008b8a:	1a9b      	subcs	r3, r3, r2
10008b8c:	189b      	addcc	r3, r3, r2
10008b8e:	b29b      	uxth	r3, r3
10008b90:	4298      	cmp	r0, r3
10008b92:	bf86      	itte	hi
10008b94:	1ac0      	subhi	r0, r0, r3
10008b96:	b280      	uxthhi	r0, r0
10008b98:	2000      	movls	r0, #0
10008b9a:	4770      	bx	lr

10008b9c <tu_fifo_read>:
10008b9c:	b530      	push	{r4, r5, lr}
10008b9e:	4604      	mov	r4, r0
10008ba0:	6900      	ldr	r0, [r0, #16]
10008ba2:	460d      	mov	r5, r1
10008ba4:	b083      	sub	sp, #12
10008ba6:	b118      	cbz	r0, 10008bb0 <tu_fifo_read+0x14>
10008ba8:	f04f 31ff 	mov.w	r1, #4294967295	@ 0xffffffff
10008bac:	f000 fd20 	bl	100095f0 <__mutex_enter_timeout_ms_veneer>
10008bb0:	8922      	ldrh	r2, [r4, #8]
10008bb2:	8961      	ldrh	r1, [r4, #10]
10008bb4:	88a3      	ldrh	r3, [r4, #4]
10008bb6:	428a      	cmp	r2, r1
10008bb8:	bf36      	itet	cc
10008bba:	ebc1 0043 	rsbcc	r0, r1, r3, lsl #1
10008bbe:	1a50      	subcs	r0, r2, r1
10008bc0:	1880      	addcc	r0, r0, r2
10008bc2:	b280      	uxth	r0, r0
10008bc4:	b360      	cbz	r0, 10008c20 <tu_fifo_read+0x84>
10008bc6:	4283      	cmp	r3, r0
10008bc8:	d209      	bcs.n	10008bde <tu_fifo_read+0x42>
10008bca:	429a      	cmp	r2, r3
10008bcc:	bf2c      	ite	cs
10008bce:	1ad2      	subcs	r2, r2, r3
10008bd0:	18d2      	addcc	r2, r2, r3
10008bd2:	b291      	uxth	r1, r2
10008bd4:	428b      	cmp	r3, r1
10008bd6:	8161      	strh	r1, [r4, #10]
10008bd8:	d803      	bhi.n	10008be2 <tu_fifo_read+0x46>
10008bda:	1ac9      	subs	r1, r1, r3
10008bdc:	b289      	uxth	r1, r1
10008bde:	428b      	cmp	r3, r1
10008be0:	d9fb      	bls.n	10008bda <tu_fifo_read+0x3e>
10008be2:	88e2      	ldrh	r2, [r4, #6]
10008be4:	6823      	ldr	r3, [r4, #0]
10008be6:	f3c2 020e 	ubfx	r2, r2, #0, #15
10008bea:	fb02 3101 	mla	r1, r2, r1, r3
10008bee:	4628      	mov	r0, r5
10008bf0:	f000 fbfc 	bl	100093ec <memcpy>
10008bf4:	8962      	ldrh	r2, [r4, #10]
10008bf6:	88a3      	ldrh	r3, [r4, #4]
10008bf8:	1c51      	adds	r1, r2, #1
10008bfa:	b289      	uxth	r1, r1
10008bfc:	428a      	cmp	r2, r1
10008bfe:	f04f 0201 	mov.w	r2, #1
10008c02:	d90f      	bls.n	10008c24 <tu_fifo_read+0x88>
10008c04:	2100      	movs	r1, #0
10008c06:	fa03 f002 	lsl.w	r0, r3, r2
10008c0a:	1a09      	subs	r1, r1, r0
10008c0c:	6920      	ldr	r0, [r4, #16]
10008c0e:	8161      	strh	r1, [r4, #10]
10008c10:	b118      	cbz	r0, 10008c1a <tu_fifo_read+0x7e>
10008c12:	9201      	str	r2, [sp, #4]
10008c14:	f000 fcfc 	bl	10009610 <__mutex_exit_veneer>
10008c18:	9a01      	ldr	r2, [sp, #4]
10008c1a:	4610      	mov	r0, r2
10008c1c:	b003      	add	sp, #12
10008c1e:	bd30      	pop	{r4, r5, pc}
10008c20:	4602      	mov	r2, r0
10008c22:	8961      	ldrh	r1, [r4, #10]
10008c24:	ebb1 0f43 	cmp.w	r1, r3, lsl #1
10008c28:	ea4f 0043 	mov.w	r0, r3, lsl #1
10008c2c:	dbee      	blt.n	10008c0c <tu_fifo_read+0x70>
10008c2e:	e7ec      	b.n	10008c0a <tu_fifo_read+0x6e>

10008c30 <tu_fifo_read_n>:
10008c30:	e92d 41f0 	stmdb	sp!, {r4, r5, r6, r7, r8, lr}
10008c34:	4605      	mov	r5, r0
10008c36:	6900      	ldr	r0, [r0, #16]
10008c38:	4688      	mov	r8, r1
10008c3a:	b082      	sub	sp, #8
10008c3c:	b128      	cbz	r0, 10008c4a <tu_fifo_read_n+0x1a>
10008c3e:	f04f 31ff 	mov.w	r1, #4294967295	@ 0xffffffff
10008c42:	9200      	str	r2, [sp, #0]
10008c44:	f000 fcd4 	bl	100095f0 <__mutex_enter_timeout_ms_veneer>
10008c48:	9a00      	ldr	r2, [sp, #0]
10008c4a:	8929      	ldrh	r1, [r5, #8]
10008c4c:	896b      	ldrh	r3, [r5, #10]
10008c4e:	88ac      	ldrh	r4, [r5, #4]
10008c50:	4299      	cmp	r1, r3
10008c52:	bf36      	itet	cc
10008c54:	ebc3 0644 	rsbcc	r6, r3, r4, lsl #1
10008c58:	1ace      	subcs	r6, r1, r3
10008c5a:	1876      	addcc	r6, r6, r1
10008c5c:	b2b6      	uxth	r6, r6
10008c5e:	2e00      	cmp	r6, #0
10008c60:	d04a      	beq.n	10008cf8 <tu_fifo_read_n+0xc8>
10008c62:	42b4      	cmp	r4, r6
10008c64:	d340      	bcc.n	10008ce8 <tu_fifo_read_n+0xb8>
10008c66:	42b2      	cmp	r2, r6
10008c68:	bf28      	it	cs
10008c6a:	4632      	movcs	r2, r6
10008c6c:	429c      	cmp	r4, r3
10008c6e:	b296      	uxth	r6, r2
10008c70:	d803      	bhi.n	10008c7a <tu_fifo_read_n+0x4a>
10008c72:	1b1b      	subs	r3, r3, r4
10008c74:	b29b      	uxth	r3, r3
10008c76:	429c      	cmp	r4, r3
10008c78:	d9fb      	bls.n	10008c72 <tu_fifo_read_n+0x42>
10008c7a:	f8b5 c006 	ldrh.w	ip, [r5, #6]
10008c7e:	1ae0      	subs	r0, r4, r3
10008c80:	6829      	ldr	r1, [r5, #0]
10008c82:	b280      	uxth	r0, r0
10008c84:	f3cc 020e 	ubfx	r2, ip, #0, #15
10008c88:	4286      	cmp	r6, r0
10008c8a:	4617      	mov	r7, r2
10008c8c:	fb02 1103 	mla	r1, r2, r3, r1
10008c90:	d924      	bls.n	10008cdc <tu_fifo_read_n+0xac>
10008c92:	fb10 f202 	smulbb	r2, r0, r2
10008c96:	4640      	mov	r0, r8
10008c98:	b292      	uxth	r2, r2
10008c9a:	9301      	str	r3, [sp, #4]
10008c9c:	9200      	str	r2, [sp, #0]
10008c9e:	f000 fba5 	bl	100093ec <memcpy>
10008ca2:	9b01      	ldr	r3, [sp, #4]
10008ca4:	9a00      	ldr	r2, [sp, #0]
10008ca6:	1b34      	subs	r4, r6, r4
10008ca8:	4423      	add	r3, r4
10008caa:	eb08 0002 	add.w	r0, r8, r2
10008cae:	fb13 f207 	smulbb	r2, r3, r7
10008cb2:	6829      	ldr	r1, [r5, #0]
10008cb4:	b292      	uxth	r2, r2
10008cb6:	f000 fb99 	bl	100093ec <memcpy>
10008cba:	896a      	ldrh	r2, [r5, #10]
10008cbc:	88ac      	ldrh	r4, [r5, #4]
10008cbe:	1993      	adds	r3, r2, r6
10008cc0:	b29b      	uxth	r3, r3
10008cc2:	429a      	cmp	r2, r3
10008cc4:	d919      	bls.n	10008cfa <tu_fifo_read_n+0xca>
10008cc6:	0062      	lsls	r2, r4, #1
10008cc8:	1a9b      	subs	r3, r3, r2
10008cca:	6928      	ldr	r0, [r5, #16]
10008ccc:	816b      	strh	r3, [r5, #10]
10008cce:	b108      	cbz	r0, 10008cd4 <tu_fifo_read_n+0xa4>
10008cd0:	f000 fc9e 	bl	10009610 <__mutex_exit_veneer>
10008cd4:	4630      	mov	r0, r6
10008cd6:	b002      	add	sp, #8
10008cd8:	e8bd 81f0 	ldmia.w	sp!, {r4, r5, r6, r7, r8, pc}
10008cdc:	4640      	mov	r0, r8
10008cde:	fb06 f202 	mul.w	r2, r6, r2
10008ce2:	f000 fb83 	bl	100093ec <memcpy>
10008ce6:	e7e8      	b.n	10008cba <tu_fifo_read_n+0x8a>
10008ce8:	42a1      	cmp	r1, r4
10008cea:	bf2c      	ite	cs
10008cec:	1b09      	subcs	r1, r1, r4
10008cee:	1909      	addcc	r1, r1, r4
10008cf0:	b28b      	uxth	r3, r1
10008cf2:	4626      	mov	r6, r4
10008cf4:	816b      	strh	r3, [r5, #10]
10008cf6:	e7b6      	b.n	10008c66 <tu_fifo_read_n+0x36>
10008cf8:	896b      	ldrh	r3, [r5, #10]
10008cfa:	ebb3 0f44 	cmp.w	r3, r4, lsl #1
10008cfe:	ea4f 0244 	mov.w	r2, r4, lsl #1
10008d02:	dbe2      	blt.n	10008cca <tu_fifo_read_n+0x9a>
10008d04:	e7e0      	b.n	10008cc8 <tu_fifo_read_n+0x98>
10008d06:	bf00      	nop

10008d08 <tu_fifo_write>:
10008d08:	b570      	push	{r4, r5, r6, lr}
10008d0a:	4604      	mov	r4, r0
10008d0c:	68c0      	ldr	r0, [r0, #12]
10008d0e:	460e      	mov	r6, r1
10008d10:	b082      	sub	sp, #8
10008d12:	b118      	cbz	r0, 10008d1c <tu_fifo_write+0x14>
10008d14:	f04f 31ff 	mov.w	r1, #4294967295	@ 0xffffffff
10008d18:	f000 fc6a 	bl	100095f0 <__mutex_enter_timeout_ms_veneer>
10008d1c:	8925      	ldrh	r5, [r4, #8]
10008d1e:	8922      	ldrh	r2, [r4, #8]
10008d20:	8961      	ldrh	r1, [r4, #10]
10008d22:	88a3      	ldrh	r3, [r4, #4]
10008d24:	428a      	cmp	r2, r1
10008d26:	bf36      	itet	cc
10008d28:	ebc1 0143 	rsbcc	r1, r1, r3, lsl #1
10008d2c:	1a52      	subcs	r2, r2, r1
10008d2e:	1852      	addcc	r2, r2, r1
10008d30:	b292      	uxth	r2, r2
10008d32:	4293      	cmp	r3, r2
10008d34:	d80b      	bhi.n	10008d4e <tu_fifo_write+0x46>
10008d36:	79e2      	ldrb	r2, [r4, #7]
10008d38:	09d2      	lsrs	r2, r2, #7
10008d3a:	d108      	bne.n	10008d4e <tu_fifo_write+0x46>
10008d3c:	68e0      	ldr	r0, [r4, #12]
10008d3e:	b118      	cbz	r0, 10008d48 <tu_fifo_write+0x40>
10008d40:	9201      	str	r2, [sp, #4]
10008d42:	f000 fc65 	bl	10009610 <__mutex_exit_veneer>
10008d46:	9a01      	ldr	r2, [sp, #4]
10008d48:	4610      	mov	r0, r2
10008d4a:	b002      	add	sp, #8
10008d4c:	bd70      	pop	{r4, r5, r6, pc}
10008d4e:	429d      	cmp	r5, r3
10008d50:	d318      	bcc.n	10008d84 <tu_fifo_write+0x7c>
10008d52:	4628      	mov	r0, r5
10008d54:	1ac0      	subs	r0, r0, r3
10008d56:	b280      	uxth	r0, r0
10008d58:	4298      	cmp	r0, r3
10008d5a:	d2fb      	bcs.n	10008d54 <tu_fifo_write+0x4c>
10008d5c:	88e2      	ldrh	r2, [r4, #6]
10008d5e:	6823      	ldr	r3, [r4, #0]
10008d60:	f3c2 020e 	ubfx	r2, r2, #0, #15
10008d64:	fb02 3000 	mla	r0, r2, r0, r3
10008d68:	4631      	mov	r1, r6
10008d6a:	f000 fb3f 	bl	100093ec <memcpy>
10008d6e:	1c6b      	adds	r3, r5, #1
10008d70:	b29b      	uxth	r3, r3
10008d72:	429d      	cmp	r5, r3
10008d74:	88a2      	ldrh	r2, [r4, #4]
10008d76:	d911      	bls.n	10008d9c <tu_fifo_write+0x94>
10008d78:	2300      	movs	r3, #0
10008d7a:	0051      	lsls	r1, r2, #1
10008d7c:	1a5b      	subs	r3, r3, r1
10008d7e:	2201      	movs	r2, #1
10008d80:	8123      	strh	r3, [r4, #8]
10008d82:	e7db      	b.n	10008d3c <tu_fifo_write+0x34>
10008d84:	88e2      	ldrh	r2, [r4, #6]
10008d86:	6820      	ldr	r0, [r4, #0]
10008d88:	f3c2 020e 	ubfx	r2, r2, #0, #15
10008d8c:	fb05 0002 	mla	r0, r5, r2, r0
10008d90:	4631      	mov	r1, r6
10008d92:	f000 fb2b 	bl	100093ec <memcpy>
10008d96:	3501      	adds	r5, #1
10008d98:	88a2      	ldrh	r2, [r4, #4]
10008d9a:	b2ab      	uxth	r3, r5
10008d9c:	ebb3 0f42 	cmp.w	r3, r2, lsl #1
10008da0:	ea4f 0142 	mov.w	r1, r2, lsl #1
10008da4:	dbeb      	blt.n	10008d7e <tu_fifo_write+0x76>
10008da6:	e7e9      	b.n	10008d7c <tu_fifo_write+0x74>

10008da8 <tu_fifo_write_n>:
10008da8:	e92d 43f0 	stmdb	sp!, {r4, r5, r6, r7, r8, r9, lr}
10008dac:	4615      	mov	r5, r2
10008dae:	b083      	sub	sp, #12
10008db0:	2a00      	cmp	r2, #0
10008db2:	d045      	beq.n	10008e40 <tu_fifo_write_n+0x98>
10008db4:	4604      	mov	r4, r0
10008db6:	68c0      	ldr	r0, [r0, #12]
10008db8:	4688      	mov	r8, r1
10008dba:	b118      	cbz	r0, 10008dc4 <tu_fifo_write_n+0x1c>
10008dbc:	f04f 31ff 	mov.w	r1, #4294967295	@ 0xffffffff
10008dc0:	f000 fc16 	bl	100095f0 <__mutex_enter_timeout_ms_veneer>
10008dc4:	79e1      	ldrb	r1, [r4, #7]
10008dc6:	8926      	ldrh	r6, [r4, #8]
10008dc8:	09c9      	lsrs	r1, r1, #7
10008dca:	8963      	ldrh	r3, [r4, #10]
10008dcc:	88a2      	ldrh	r2, [r4, #4]
10008dce:	d13b      	bne.n	10008e48 <tu_fifo_write_n+0xa0>
10008dd0:	429e      	cmp	r6, r3
10008dd2:	bf36      	itet	cc
10008dd4:	ebc3 0342 	rsbcc	r3, r3, r2, lsl #1
10008dd8:	1af3      	subcs	r3, r6, r3
10008dda:	199b      	addcc	r3, r3, r6
10008ddc:	b29b      	uxth	r3, r3
10008dde:	4293      	cmp	r3, r2
10008de0:	d24b      	bcs.n	10008e7a <tu_fifo_write_n+0xd2>
10008de2:	1ad3      	subs	r3, r2, r3
10008de4:	b29b      	uxth	r3, r3
10008de6:	42ab      	cmp	r3, r5
10008de8:	bf28      	it	cs
10008dea:	462b      	movcs	r3, r5
10008dec:	f8b4 c006 	ldrh.w	ip, [r4, #6]
10008df0:	b29d      	uxth	r5, r3
10008df2:	eba5 0902 	sub.w	r9, r5, r2
10008df6:	4296      	cmp	r6, r2
10008df8:	4633      	mov	r3, r6
10008dfa:	d303      	bcc.n	10008e04 <tu_fifo_write_n+0x5c>
10008dfc:	1a9b      	subs	r3, r3, r2
10008dfe:	b29b      	uxth	r3, r3
10008e00:	4293      	cmp	r3, r2
10008e02:	d2fb      	bcs.n	10008dfc <tu_fifo_write_n+0x54>
10008e04:	1ad2      	subs	r2, r2, r3
10008e06:	b291      	uxth	r1, r2
10008e08:	6820      	ldr	r0, [r4, #0]
10008e0a:	f3cc 020e 	ubfx	r2, ip, #0, #15
10008e0e:	42a9      	cmp	r1, r5
10008e10:	4617      	mov	r7, r2
10008e12:	fb02 0003 	mla	r0, r2, r3, r0
10008e16:	d34a      	bcc.n	10008eae <tu_fifo_write_n+0x106>
10008e18:	4641      	mov	r1, r8
10008e1a:	fb05 f202 	mul.w	r2, r5, r2
10008e1e:	f000 fae5 	bl	100093ec <memcpy>
10008e22:	19ab      	adds	r3, r5, r6
10008e24:	88a2      	ldrh	r2, [r4, #4]
10008e26:	b29b      	uxth	r3, r3
10008e28:	42b3      	cmp	r3, r6
10008e2a:	ea4f 0142 	mov.w	r1, r2, lsl #1
10008e2e:	d302      	bcc.n	10008e36 <tu_fifo_write_n+0x8e>
10008e30:	ebb3 0f42 	cmp.w	r3, r2, lsl #1
10008e34:	db00      	blt.n	10008e38 <tu_fifo_write_n+0x90>
10008e36:	1a5b      	subs	r3, r3, r1
10008e38:	68e0      	ldr	r0, [r4, #12]
10008e3a:	462a      	mov	r2, r5
10008e3c:	8123      	strh	r3, [r4, #8]
10008e3e:	bb00      	cbnz	r0, 10008e82 <tu_fifo_write_n+0xda>
10008e40:	4610      	mov	r0, r2
10008e42:	b003      	add	sp, #12
10008e44:	e8bd 83f0 	ldmia.w	sp!, {r4, r5, r6, r7, r8, r9, pc}
10008e48:	4295      	cmp	r5, r2
10008e4a:	d222      	bcs.n	10008e92 <tu_fifo_write_n+0xea>
10008e4c:	429e      	cmp	r6, r3
10008e4e:	bf36      	itet	cc
10008e50:	ebc3 0142 	rsbcc	r1, r3, r2, lsl #1
10008e54:	1af1      	subcs	r1, r6, r3
10008e56:	1989      	addcc	r1, r1, r6
10008e58:	b289      	uxth	r1, r1
10008e5a:	0050      	lsls	r0, r2, #1
10008e5c:	4429      	add	r1, r5
10008e5e:	1aaf      	subs	r7, r5, r2
10008e60:	4281      	cmp	r1, r0
10008e62:	46b9      	mov	r9, r7
10008e64:	db06      	blt.n	10008e74 <tu_fifo_write_n+0xcc>
10008e66:	189e      	adds	r6, r3, r2
10008e68:	1b76      	subs	r6, r6, r5
10008e6a:	b2b6      	uxth	r6, r6
10008e6c:	42b3      	cmp	r3, r6
10008e6e:	d932      	bls.n	10008ed6 <tu_fifo_write_n+0x12e>
10008e70:	1a30      	subs	r0, r6, r0
10008e72:	b286      	uxth	r6, r0
10008e74:	f8b4 c006 	ldrh.w	ip, [r4, #6]
10008e78:	e7bd      	b.n	10008df6 <tu_fifo_write_n+0x4e>
10008e7a:	2200      	movs	r2, #0
10008e7c:	68e0      	ldr	r0, [r4, #12]
10008e7e:	2800      	cmp	r0, #0
10008e80:	d0de      	beq.n	10008e40 <tu_fifo_write_n+0x98>
10008e82:	9200      	str	r2, [sp, #0]
10008e84:	f000 fbc4 	bl	10009610 <__mutex_exit_veneer>
10008e88:	9a00      	ldr	r2, [sp, #0]
10008e8a:	4610      	mov	r0, r2
10008e8c:	b003      	add	sp, #12
10008e8e:	e8bd 83f0 	ldmia.w	sp!, {r4, r5, r6, r7, r8, r9, pc}
10008e92:	2a00      	cmp	r2, #0
10008e94:	d0f2      	beq.n	10008e7c <tu_fifo_write_n+0xd4>
10008e96:	f8b4 c006 	ldrh.w	ip, [r4, #6]
10008e9a:	1aa9      	subs	r1, r5, r2
10008e9c:	461e      	mov	r6, r3
10008e9e:	f3cc 030e 	ubfx	r3, ip, #0, #15
10008ea2:	4615      	mov	r5, r2
10008ea4:	f04f 0900 	mov.w	r9, #0
10008ea8:	fb03 8801 	mla	r8, r3, r1, r8
10008eac:	e7a3      	b.n	10008df6 <tu_fifo_write_n+0x4e>
10008eae:	fb11 f202 	smulbb	r2, r1, r2
10008eb2:	4641      	mov	r1, r8
10008eb4:	b292      	uxth	r2, r2
10008eb6:	9301      	str	r3, [sp, #4]
10008eb8:	9200      	str	r2, [sp, #0]
10008eba:	f000 fa97 	bl	100093ec <memcpy>
10008ebe:	9b01      	ldr	r3, [sp, #4]
10008ec0:	9a00      	ldr	r2, [sp, #0]
10008ec2:	444b      	add	r3, r9
10008ec4:	fb13 f307 	smulbb	r3, r3, r7
10008ec8:	eb08 0102 	add.w	r1, r8, r2
10008ecc:	6820      	ldr	r0, [r4, #0]
10008ece:	b29a      	uxth	r2, r3
10008ed0:	f000 fa8c 	bl	100093ec <memcpy>
10008ed4:	e7a5      	b.n	10008e22 <tu_fifo_write_n+0x7a>
10008ed6:	42b0      	cmp	r0, r6
10008ed8:	ddca      	ble.n	10008e70 <tu_fifo_write_n+0xc8>
10008eda:	e7cb      	b.n	10008e74 <tu_fifo_write_n+0xcc>

10008edc <tu_fifo_clear>:
10008edc:	b510      	push	{r4, lr}
10008ede:	4604      	mov	r4, r0
10008ee0:	68c0      	ldr	r0, [r0, #12]
10008ee2:	b118      	cbz	r0, 10008eec <tu_fifo_clear+0x10>
10008ee4:	f04f 31ff 	mov.w	r1, #4294967295	@ 0xffffffff
10008ee8:	f000 fb82 	bl	100095f0 <__mutex_enter_timeout_ms_veneer>
10008eec:	6920      	ldr	r0, [r4, #16]
10008eee:	b118      	cbz	r0, 10008ef8 <tu_fifo_clear+0x1c>
10008ef0:	f04f 31ff 	mov.w	r1, #4294967295	@ 0xffffffff
10008ef4:	f000 fb7c 	bl	100095f0 <__mutex_enter_timeout_ms_veneer>
10008ef8:	2300      	movs	r3, #0
10008efa:	68e0      	ldr	r0, [r4, #12]
10008efc:	8163      	strh	r3, [r4, #10]
10008efe:	8123      	strh	r3, [r4, #8]
10008f00:	b108      	cbz	r0, 10008f06 <tu_fifo_clear+0x2a>
10008f02:	f000 fb85 	bl	10009610 <__mutex_exit_veneer>
10008f06:	6920      	ldr	r0, [r4, #16]
10008f08:	b108      	cbz	r0, 10008f0e <tu_fifo_clear+0x32>
10008f0a:	f000 fb81 	bl	10009610 <__mutex_exit_veneer>
10008f0e:	2001      	movs	r0, #1
10008f10:	bd10      	pop	{r4, pc}
10008f12:	bf00      	nop

10008f14 <tu_fifo_set_overwritable>:
10008f14:	b538      	push	{r3, r4, r5, lr}
10008f16:	4604      	mov	r4, r0
10008f18:	68c0      	ldr	r0, [r0, #12]
10008f1a:	460d      	mov	r5, r1
10008f1c:	b118      	cbz	r0, 10008f26 <tu_fifo_set_overwritable+0x12>
10008f1e:	f04f 31ff 	mov.w	r1, #4294967295	@ 0xffffffff
10008f22:	f000 fb65 	bl	100095f0 <__mutex_enter_timeout_ms_veneer>
10008f26:	6920      	ldr	r0, [r4, #16]
10008f28:	b118      	cbz	r0, 10008f32 <tu_fifo_set_overwritable+0x1e>
10008f2a:	f04f 31ff 	mov.w	r1, #4294967295	@ 0xffffffff
10008f2e:	f000 fb5f 	bl	100095f0 <__mutex_enter_timeout_ms_veneer>
10008f32:	79e3      	ldrb	r3, [r4, #7]
10008f34:	68e0      	ldr	r0, [r4, #12]
10008f36:	f365 13c7 	bfi	r3, r5, #7, #1
10008f3a:	71e3      	strb	r3, [r4, #7]
10008f3c:	b108      	cbz	r0, 10008f42 <tu_fifo_set_overwritable+0x2e>
10008f3e:	f000 fb67 	bl	10009610 <__mutex_exit_veneer>
10008f42:	6920      	ldr	r0, [r4, #16]
10008f44:	b108      	cbz	r0, 10008f4a <tu_fifo_set_overwritable+0x36>
10008f46:	f000 fb63 	bl	10009610 <__mutex_exit_veneer>
10008f4a:	2001      	movs	r0, #1
10008f4c:	bd38      	pop	{r3, r4, r5, pc}
10008f4e:	bf00      	nop

10008f50 <pio_add_program>:
10008f50:	e92d 47f0 	stmdb	sp!, {r4, r5, r6, r7, r8, r9, sl, lr}
10008f54:	460d      	mov	r5, r1
10008f56:	4604      	mov	r4, r0
10008f58:	f7f9 fe36 	bl	10002bc8 <hw_claim_lock>
10008f5c:	f04f 0c01 	mov.w	ip, #1
10008f60:	f895 8004 	ldrb.w	r8, [r5, #4]
10008f64:	f995 e005 	ldrsb.w	lr, [r5, #5]
10008f68:	f104 412f 	add.w	r1, r4, #2936012800	@ 0xaf000000
10008f6c:	4f39      	ldr	r7, [pc, #228]	@ (10009054 <pio_add_program+0x104>)
10008f6e:	f501 0160 	add.w	r1, r1, #14680064	@ 0xe00000
10008f72:	fa0c fc08 	lsl.w	ip, ip, r8
10008f76:	0d09      	lsrs	r1, r1, #20
10008f78:	f1be 0f00 	cmp.w	lr, #0
10008f7c:	4682      	mov	sl, r0
10008f7e:	f10c 3cff 	add.w	ip, ip, #4294967295	@ 0xffffffff
10008f82:	f857 0021 	ldr.w	r0, [r7, r1, lsl #2]
10008f86:	f1c8 0320 	rsb	r3, r8, #32
10008f8a:	db39      	blt.n	10009000 <pio_add_program+0xb0>
10008f8c:	459e      	cmp	lr, r3
10008f8e:	4676      	mov	r6, lr
10008f90:	dc03      	bgt.n	10008f9a <pio_add_program+0x4a>
10008f92:	fa0c f30e 	lsl.w	r3, ip, lr
10008f96:	4203      	tst	r3, r0
10008f98:	d007      	beq.n	10008faa <pio_add_program+0x5a>
10008f9a:	f04f 36ff 	mov.w	r6, #4294967295	@ 0xffffffff
10008f9e:	4650      	mov	r0, sl
10008fa0:	f7f9 fe24 	bl	10002bec <hw_claim_unlock>
10008fa4:	4630      	mov	r0, r6
10008fa6:	e8bd 87f0 	ldmia.w	sp!, {r4, r5, r6, r7, r8, r9, sl, pc}
10008faa:	f8d4 3168 	ldr.w	r3, [r4, #360]	@ 0x168
10008fae:	79ea      	ldrb	r2, [r5, #7]
10008fb0:	2b00      	cmp	r3, #0
10008fb2:	d040      	beq.n	10009036 <pio_add_program+0xe6>
10008fb4:	07d2      	lsls	r2, r2, #31
10008fb6:	d440      	bmi.n	1000903a <pio_add_program+0xea>
10008fb8:	fa0c fc0e 	lsl.w	ip, ip, lr
10008fbc:	ea10 0f0c 	tst.w	r0, ip
10008fc0:	d131      	bne.n	10009026 <pio_add_program+0xd6>
10008fc2:	f1b8 0f00 	cmp.w	r8, #0
10008fc6:	d011      	beq.n	10008fec <pio_add_program+0x9c>
10008fc8:	682a      	ldr	r2, [r5, #0]
10008fca:	4675      	mov	r5, lr
10008fcc:	eb02 0848 	add.w	r8, r2, r8, lsl #1
10008fd0:	f832 3b02 	ldrh.w	r3, [r2], #2
10008fd4:	f105 0912 	add.w	r9, r5, #18
10008fd8:	f5b3 5f00 	cmp.w	r3, #8192	@ 0x2000
10008fdc:	bf38      	it	cc
10008fde:	4473      	addcc	r3, lr
10008fe0:	4542      	cmp	r2, r8
10008fe2:	f105 0501 	add.w	r5, r5, #1
10008fe6:	f844 3029 	str.w	r3, [r4, r9, lsl #2]
10008fea:	d1f1      	bne.n	10008fd0 <pio_add_program+0x80>
10008fec:	ea40 000c 	orr.w	r0, r0, ip
10008ff0:	f847 0021 	str.w	r0, [r7, r1, lsl #2]
10008ff4:	4650      	mov	r0, sl
10008ff6:	f7f9 fdf9 	bl	10002bec <hw_claim_unlock>
10008ffa:	4630      	mov	r0, r6
10008ffc:	e8bd 87f0 	ldmia.w	sp!, {r4, r5, r6, r7, r8, r9, sl, pc}
10009000:	f1b8 0f20 	cmp.w	r8, #32
10009004:	dd02      	ble.n	1000900c <pio_add_program+0xbc>
10009006:	e00e      	b.n	10009026 <pio_add_program+0xd6>
10009008:	3b01      	subs	r3, #1
1000900a:	d30c      	bcc.n	10009026 <pio_add_program+0xd6>
1000900c:	fa0c f203 	lsl.w	r2, ip, r3
10009010:	4202      	tst	r2, r0
10009012:	469e      	mov	lr, r3
10009014:	d1f8      	bne.n	10009008 <pio_add_program+0xb8>
10009016:	f8d4 6168 	ldr.w	r6, [r4, #360]	@ 0x168
1000901a:	79ea      	ldrb	r2, [r5, #7]
1000901c:	b1ae      	cbz	r6, 1000904a <pio_add_program+0xfa>
1000901e:	07d2      	lsls	r2, r2, #31
10009020:	d40b      	bmi.n	1000903a <pio_add_program+0xea>
10009022:	461e      	mov	r6, r3
10009024:	e7c8      	b.n	10008fb8 <pio_add_program+0x68>
10009026:	f06f 0608 	mvn.w	r6, #8
1000902a:	4650      	mov	r0, sl
1000902c:	f7f9 fdde 	bl	10002bec <hw_claim_unlock>
10009030:	4630      	mov	r0, r6
10009032:	e8bd 87f0 	ldmia.w	sp!, {r4, r5, r6, r7, r8, r9, sl, pc}
10009036:	0753      	lsls	r3, r2, #29
10009038:	d5be      	bpl.n	10008fb8 <pio_add_program+0x68>
1000903a:	f06f 060a 	mvn.w	r6, #10
1000903e:	4650      	mov	r0, sl
10009040:	f7f9 fdd4 	bl	10002bec <hw_claim_unlock>
10009044:	4630      	mov	r0, r6
10009046:	e8bd 87f0 	ldmia.w	sp!, {r4, r5, r6, r7, r8, r9, sl, pc}
1000904a:	0756      	lsls	r6, r2, #29
1000904c:	d4f5      	bmi.n	1000903a <pio_add_program+0xea>
1000904e:	461e      	mov	r6, r3
10009050:	e7b2      	b.n	10008fb8 <pio_add_program+0x68>
10009052:	bf00      	nop
10009054:	20001ec4 	.word	0x20001ec4

10009058 <pio_sm_set_consecutive_pindirs>:
10009058:	b5f0      	push	{r4, r5, r6, r7, lr}
1000905a:	469e      	mov	lr, r3
1000905c:	f8d0 3168 	ldr.w	r3, [r0, #360]	@ 0x168
10009060:	f89d 5014 	ldrb.w	r5, [sp, #20]
10009064:	1ad2      	subs	r2, r2, r3
10009066:	2a1f      	cmp	r2, #31
10009068:	d839      	bhi.n	100090de <pio_sm_set_consecutive_pindirs+0x86>
1000906a:	460c      	mov	r4, r1
1000906c:	f24e 0380 	movw	r3, #57472	@ 0xe080
10009070:	f24e 019f 	movw	r1, #57503	@ 0xe09f
10009074:	f44f 3700 	mov.w	r7, #131072	@ 0x20000
10009078:	eb04 0c44 	add.w	ip, r4, r4, lsl #1
1000907c:	2d00      	cmp	r5, #0
1000907e:	bf08      	it	eq
10009080:	4619      	moveq	r1, r3
10009082:	eb00 03cc 	add.w	r3, r0, ip, lsl #3
10009086:	f503 5343 	add.w	r3, r3, #12480	@ 0x30c0
1000908a:	eb00 0ccc 	add.w	ip, r0, ip, lsl #3
1000908e:	f1be 0f05 	cmp.w	lr, #5
10009092:	f8dc 60dc 	ldr.w	r6, [ip, #220]	@ 0xdc
10009096:	f8dc 50cc 	ldr.w	r5, [ip, #204]	@ 0xcc
1000909a:	60df      	str	r7, [r3, #12]
1000909c:	d90e      	bls.n	100090bc <pio_sm_set_consecutive_pindirs+0x64>
1000909e:	0153      	lsls	r3, r2, #5
100090a0:	f1ae 0e05 	sub.w	lr, lr, #5
100090a4:	f043 53a0 	orr.w	r3, r3, #335544320	@ 0x14000000
100090a8:	3205      	adds	r2, #5
100090aa:	f1be 0f05 	cmp.w	lr, #5
100090ae:	f8cc 30dc 	str.w	r3, [ip, #220]	@ 0xdc
100090b2:	f002 021f 	and.w	r2, r2, #31
100090b6:	f8cc 10d8 	str.w	r1, [ip, #216]	@ 0xd8
100090ba:	d8f0      	bhi.n	1000909e <pio_sm_set_consecutive_pindirs+0x46>
100090bc:	0152      	lsls	r2, r2, #5
100090be:	eb04 0444 	add.w	r4, r4, r4, lsl #1
100090c2:	ea42 638e 	orr.w	r3, r2, lr, lsl #26
100090c6:	eb00 02c4 	add.w	r2, r0, r4, lsl #3
100090ca:	f8c2 30dc 	str.w	r3, [r2, #220]	@ 0xdc
100090ce:	2000      	movs	r0, #0
100090d0:	f8c2 10d8 	str.w	r1, [r2, #216]	@ 0xd8
100090d4:	f8c2 60dc 	str.w	r6, [r2, #220]	@ 0xdc
100090d8:	f8c2 50cc 	str.w	r5, [r2, #204]	@ 0xcc
100090dc:	bdf0      	pop	{r4, r5, r6, r7, pc}
100090de:	f06f 0004 	mvn.w	r0, #4
100090e2:	bdf0      	pop	{r4, r5, r6, r7, pc}

100090e4 <pio_sm_init>:
100090e4:	b5f0      	push	{r4, r5, r6, r7, lr}
100090e6:	2501      	movs	r5, #1
100090e8:	6804      	ldr	r4, [r0, #0]
100090ea:	408d      	lsls	r5, r1
100090ec:	ea24 0405 	bic.w	r4, r4, r5
100090f0:	6004      	str	r4, [r0, #0]
100090f2:	b3a3      	cbz	r3, 1000915e <pio_sm_init+0x7a>
100090f4:	e9d3 5601 	ldrd	r5, r6, [r3, #4]
100090f8:	681f      	ldr	r7, [r3, #0]
100090fa:	68dc      	ldr	r4, [r3, #12]
100090fc:	eb01 0341 	add.w	r3, r1, r1, lsl #1
10009100:	eb00 03c3 	add.w	r3, r0, r3, lsl #3
10009104:	f8c3 70c8 	str.w	r7, [r3, #200]	@ 0xc8
10009108:	ea4f 0c41 	mov.w	ip, r1, lsl #1
1000910c:	f8c3 60d0 	str.w	r6, [r3, #208]	@ 0xd0
10009110:	f8c3 50cc 	str.w	r5, [r3, #204]	@ 0xcc
10009114:	f8c3 40dc 	str.w	r4, [r3, #220]	@ 0xdc
10009118:	eb0c 0301 	add.w	r3, ip, r1
1000911c:	f04f 3501 	mov.w	r5, #16843009	@ 0x1010101
10009120:	eb00 0cc3 	add.w	ip, r0, r3, lsl #3
10009124:	f04f 4600 	mov.w	r6, #2147483648	@ 0x80000000
10009128:	eb00 0ec3 	add.w	lr, r0, r3, lsl #3
1000912c:	2301      	movs	r3, #1
1000912e:	f50e 5e86 	add.w	lr, lr, #4288	@ 0x10c0
10009132:	1d0c      	adds	r4, r1, #4
10009134:	f101 0708 	add.w	r7, r1, #8
10009138:	408d      	lsls	r5, r1
1000913a:	f8ce 6010 	str.w	r6, [lr, #16]
1000913e:	fa03 f404 	lsl.w	r4, r3, r4
10009142:	f8ce 6010 	str.w	r6, [lr, #16]
10009146:	f002 021f 	and.w	r2, r2, #31
1000914a:	6085      	str	r5, [r0, #8]
1000914c:	40bb      	lsls	r3, r7
1000914e:	f500 5000 	add.w	r0, r0, #8192	@ 0x2000
10009152:	6004      	str	r4, [r0, #0]
10009154:	6003      	str	r3, [r0, #0]
10009156:	2000      	movs	r0, #0
10009158:	f8cc 20d8 	str.w	r2, [ip, #216]	@ 0xd8
1000915c:	bdf0      	pop	{r4, r5, r6, r7, pc}
1000915e:	f44f 3780 	mov.w	r7, #65536	@ 0x10000
10009162:	f44f 2640 	mov.w	r6, #786432	@ 0xc0000
10009166:	f44f 35f8 	mov.w	r5, #126976	@ 0x1f000
1000916a:	eb01 0441 	add.w	r4, r1, r1, lsl #1
1000916e:	eb00 04c4 	add.w	r4, r0, r4, lsl #3
10009172:	f8c4 70c8 	str.w	r7, [r4, #200]	@ 0xc8
10009176:	ea4f 0c41 	mov.w	ip, r1, lsl #1
1000917a:	f8c4 60d0 	str.w	r6, [r4, #208]	@ 0xd0
1000917e:	f8c4 50cc 	str.w	r5, [r4, #204]	@ 0xcc
10009182:	f8c4 30dc 	str.w	r3, [r4, #220]	@ 0xdc
10009186:	e7c7      	b.n	10009118 <pio_sm_init+0x34>

10009188 <spi_init>:
10009188:	e92d 43f0 	stmdb	sp!, {r4, r5, r6, r7, r8, r9, lr}
1000918c:	4605      	mov	r5, r0
1000918e:	4b38      	ldr	r3, [pc, #224]	@ (10009270 <spi_init+0xe8>)
10009190:	4c38      	ldr	r4, [pc, #224]	@ (10009274 <spi_init+0xec>)
10009192:	429d      	cmp	r5, r3
10009194:	bf14      	ite	ne
10009196:	f44f 2300 	movne.w	r3, #524288	@ 0x80000
1000919a:	f44f 2380 	moveq.w	r3, #262144	@ 0x40000
1000919e:	4836      	ldr	r0, [pc, #216]	@ (10009278 <spi_init+0xf0>)
100091a0:	4a36      	ldr	r2, [pc, #216]	@ (1000927c <spi_init+0xf4>)
100091a2:	b083      	sub	sp, #12
100091a4:	6023      	str	r3, [r4, #0]
100091a6:	6003      	str	r3, [r0, #0]
100091a8:	6894      	ldr	r4, [r2, #8]
100091aa:	ea33 0404 	bics.w	r4, r3, r4
100091ae:	d1fb      	bne.n	100091a8 <spi_init+0x20>
100091b0:	f04f 0902 	mov.w	r9, #2
100091b4:	462e      	mov	r6, r5
100091b6:	2006      	movs	r0, #6
100091b8:	9101      	str	r1, [sp, #4]
100091ba:	f7fa fde1 	bl	10003d80 <clock_get_hz>
100091be:	464a      	mov	r2, r9
100091c0:	f856 7f04 	ldr.w	r7, [r6, #4]!
100091c4:	9901      	ldr	r1, [sp, #4]
100091c6:	f506 5840 	add.w	r8, r6, #12288	@ 0x3000
100091ca:	ea4f 2c41 	mov.w	ip, r1, lsl #9
100091ce:	4663      	mov	r3, ip
100091d0:	ea4f 5ed1 	mov.w	lr, r1, lsr #23
100091d4:	4017      	ands	r7, r2
100091d6:	f8c8 9000 	str.w	r9, [r8]
100091da:	e008      	b.n	100091ee <spi_init+0x66>
100091dc:	eb1c 0303 	adds.w	r3, ip, r3
100091e0:	f102 0202 	add.w	r2, r2, #2
100091e4:	eb4e 5ed1 	adc.w	lr, lr, r1, lsr #23
100091e8:	f5b2 7f80 	cmp.w	r2, #256	@ 0x100
100091ec:	d003      	beq.n	100091f6 <spi_init+0x6e>
100091ee:	4298      	cmp	r0, r3
100091f0:	eb74 090e 	sbcs.w	r9, r4, lr
100091f4:	d2f2      	bcs.n	100091dc <spi_init+0x54>
100091f6:	f44f 7380 	mov.w	r3, #256	@ 0x100
100091fa:	ebc2 2c02 	rsb	ip, r2, r2, lsl #8
100091fe:	e001      	b.n	10009204 <spi_init+0x7c>
10009200:	2b01      	cmp	r3, #1
10009202:	d032      	beq.n	1000926a <spi_init+0xe2>
10009204:	fbb0 fefc 	udiv	lr, r0, ip
10009208:	4571      	cmp	r1, lr
1000920a:	4699      	mov	r9, r3
1000920c:	ebac 0c02 	sub.w	ip, ip, r2
10009210:	f103 33ff 	add.w	r3, r3, #4294967295	@ 0xffffffff
10009214:	d2f4      	bcs.n	10009200 <spi_init+0x78>
10009216:	fb02 f909 	mul.w	r9, r2, r9
1000921a:	021c      	lsls	r4, r3, #8
1000921c:	2102      	movs	r1, #2
1000921e:	462b      	mov	r3, r5
10009220:	fbb0 f0f9 	udiv	r0, r0, r9
10009224:	f04f 0c03 	mov.w	ip, #3
10009228:	612a      	str	r2, [r5, #16]
1000922a:	682a      	ldr	r2, [r5, #0]
1000922c:	f506 5600 	add.w	r6, r6, #8192	@ 0x2000
10009230:	4062      	eors	r2, r4
10009232:	f505 5e80 	add.w	lr, r5, #4096	@ 0x1000
10009236:	f402 427f 	and.w	r2, r2, #65280	@ 0xff00
1000923a:	f8ce 2000 	str.w	r2, [lr]
1000923e:	6037      	str	r7, [r6, #0]
10009240:	686c      	ldr	r4, [r5, #4]
10009242:	f8c8 1000 	str.w	r1, [r8]
10009246:	f853 2b24 	ldr.w	r2, [r3], #36
1000924a:	400c      	ands	r4, r1
1000924c:	f082 0207 	eor.w	r2, r2, #7
10009250:	f002 02cf 	and.w	r2, r2, #207	@ 0xcf
10009254:	f503 5300 	add.w	r3, r3, #8192	@ 0x2000
10009258:	f8ce 2000 	str.w	r2, [lr]
1000925c:	6034      	str	r4, [r6, #0]
1000925e:	f8c3 c000 	str.w	ip, [r3]
10009262:	6031      	str	r1, [r6, #0]
10009264:	b003      	add	sp, #12
10009266:	e8bd 83f0 	ldmia.w	sp!, {r4, r5, r6, r7, r8, r9, pc}
1000926a:	4691      	mov	r9, r2
1000926c:	e7d6      	b.n	1000921c <spi_init+0x94>
1000926e:	bf00      	nop
10009270:	40080000 	.word	0x40080000
10009274:	40022000 	.word	0x40022000
10009278:	40023000 	.word	0x40023000
1000927c:	40020000 	.word	0x40020000

10009280 <spi_set_baudrate>:
10009280:	e92d 43f0 	stmdb	sp!, {r4, r5, r6, r7, r8, r9, lr}
10009284:	4604      	mov	r4, r0
10009286:	f04f 0802 	mov.w	r8, #2
1000928a:	4625      	mov	r5, r4
1000928c:	b083      	sub	sp, #12
1000928e:	2006      	movs	r0, #6
10009290:	9101      	str	r1, [sp, #4]
10009292:	f7fa fd75 	bl	10003d80 <clock_get_hz>
10009296:	4642      	mov	r2, r8
10009298:	f855 6f04 	ldr.w	r6, [r5, #4]!
1000929c:	9901      	ldr	r1, [sp, #4]
1000929e:	f505 5940 	add.w	r9, r5, #12288	@ 0x3000
100092a2:	ea4f 2c41 	mov.w	ip, r1, lsl #9
100092a6:	2700      	movs	r7, #0
100092a8:	4663      	mov	r3, ip
100092aa:	ea4f 5ed1 	mov.w	lr, r1, lsr #23
100092ae:	4016      	ands	r6, r2
100092b0:	f8c9 8000 	str.w	r8, [r9]
100092b4:	e008      	b.n	100092c8 <spi_set_baudrate+0x48>
100092b6:	eb1c 0303 	adds.w	r3, ip, r3
100092ba:	f102 0202 	add.w	r2, r2, #2
100092be:	eb4e 5ed1 	adc.w	lr, lr, r1, lsr #23
100092c2:	f5b2 7f80 	cmp.w	r2, #256	@ 0x100
100092c6:	d003      	beq.n	100092d0 <spi_set_baudrate+0x50>
100092c8:	4298      	cmp	r0, r3
100092ca:	eb77 080e 	sbcs.w	r8, r7, lr
100092ce:	d2f2      	bcs.n	100092b6 <spi_set_baudrate+0x36>
100092d0:	f44f 7380 	mov.w	r3, #256	@ 0x100
100092d4:	ebc2 2c02 	rsb	ip, r2, r2, lsl #8
100092d8:	e001      	b.n	100092de <spi_set_baudrate+0x5e>
100092da:	2b01      	cmp	r3, #1
100092dc:	d01b      	beq.n	10009316 <spi_set_baudrate+0x96>
100092de:	fbb0 fefc 	udiv	lr, r0, ip
100092e2:	458e      	cmp	lr, r1
100092e4:	461f      	mov	r7, r3
100092e6:	ebac 0c02 	sub.w	ip, ip, r2
100092ea:	f103 33ff 	add.w	r3, r3, #4294967295	@ 0xffffffff
100092ee:	d9f4      	bls.n	100092da <spi_set_baudrate+0x5a>
100092f0:	fb02 f707 	mul.w	r7, r2, r7
100092f4:	021b      	lsls	r3, r3, #8
100092f6:	fbb0 f0f7 	udiv	r0, r0, r7
100092fa:	6122      	str	r2, [r4, #16]
100092fc:	6822      	ldr	r2, [r4, #0]
100092fe:	f505 5500 	add.w	r5, r5, #8192	@ 0x2000
10009302:	4053      	eors	r3, r2
10009304:	f403 437f 	and.w	r3, r3, #65280	@ 0xff00
10009308:	f504 5480 	add.w	r4, r4, #4096	@ 0x1000
1000930c:	6023      	str	r3, [r4, #0]
1000930e:	602e      	str	r6, [r5, #0]
10009310:	b003      	add	sp, #12
10009312:	e8bd 83f0 	ldmia.w	sp!, {r4, r5, r6, r7, r8, r9, pc}
10009316:	4617      	mov	r7, r2
10009318:	2300      	movs	r3, #0
1000931a:	e7ec      	b.n	100092f6 <spi_set_baudrate+0x76>

1000931c <atexit>:
1000931c:	2300      	movs	r3, #0
1000931e:	4601      	mov	r1, r0
10009320:	461a      	mov	r2, r3
10009322:	4618      	mov	r0, r3
10009324:	f000 b906 	b.w	10009534 <__register_exitproc>

10009328 <memset>:
10009328:	b530      	push	{r4, r5, lr}
1000932a:	0784      	lsls	r4, r0, #30
1000932c:	4686      	mov	lr, r0
1000932e:	4603      	mov	r3, r0
10009330:	d006      	beq.n	10009340 <memset+0x18>
10009332:	b3a2      	cbz	r2, 1000939e <memset+0x76>
10009334:	f803 1b01 	strb.w	r1, [r3], #1
10009338:	0798      	lsls	r0, r3, #30
1000933a:	f102 32ff 	add.w	r2, r2, #4294967295	@ 0xffffffff
1000933e:	d1f8      	bne.n	10009332 <memset+0xa>
10009340:	2a03      	cmp	r2, #3
10009342:	d926      	bls.n	10009392 <memset+0x6a>
10009344:	fa5f fc81 	uxtb.w	ip, r1
10009348:	2a0f      	cmp	r2, #15
1000934a:	eb0c 2c0c 	add.w	ip, ip, ip, lsl #8
1000934e:	eb0c 400c 	add.w	r0, ip, ip, lsl #16
10009352:	d92a      	bls.n	100093aa <memset+0x82>
10009354:	f022 0c0f 	bic.w	ip, r2, #15
10009358:	449c      	add	ip, r3
1000935a:	e9c3 0000 	strd	r0, r0, [r3]
1000935e:	e9c3 0002 	strd	r0, r0, [r3, #8]
10009362:	3310      	adds	r3, #16
10009364:	4563      	cmp	r3, ip
10009366:	d1f8      	bne.n	1000935a <memset+0x32>
10009368:	f012 0f0c 	tst.w	r2, #12
1000936c:	f002 050f 	and.w	r5, r2, #15
10009370:	d017      	beq.n	100093a2 <memset+0x7a>
10009372:	1f2a      	subs	r2, r5, #4
10009374:	0894      	lsrs	r4, r2, #2
10009376:	461a      	mov	r2, r3
10009378:	f104 0c01 	add.w	ip, r4, #1
1000937c:	eb03 0c8c 	add.w	ip, r3, ip, lsl #2
10009380:	f842 0b04 	str.w	r0, [r2], #4
10009384:	4562      	cmp	r2, ip
10009386:	d1fb      	bne.n	10009380 <memset+0x58>
10009388:	3304      	adds	r3, #4
1000938a:	f005 0203 	and.w	r2, r5, #3
1000938e:	eb03 0384 	add.w	r3, r3, r4, lsl #2
10009392:	b122      	cbz	r2, 1000939e <memset+0x76>
10009394:	441a      	add	r2, r3
10009396:	f803 1b01 	strb.w	r1, [r3], #1
1000939a:	429a      	cmp	r2, r3
1000939c:	d1fb      	bne.n	10009396 <memset+0x6e>
1000939e:	4670      	mov	r0, lr
100093a0:	bd30      	pop	{r4, r5, pc}
100093a2:	462a      	mov	r2, r5
100093a4:	2a00      	cmp	r2, #0
100093a6:	d1f5      	bne.n	10009394 <memset+0x6c>
100093a8:	e7f9      	b.n	1000939e <memset+0x76>
100093aa:	4615      	mov	r5, r2
100093ac:	e7e1      	b.n	10009372 <memset+0x4a>
100093ae:	bf00      	nop

100093b0 <__errno>:
100093b0:	4b01      	ldr	r3, [pc, #4]	@ (100093b8 <__errno+0x8>)
100093b2:	6818      	ldr	r0, [r3, #0]
100093b4:	4770      	bx	lr
100093b6:	bf00      	nop
100093b8:	20001638 	.word	0x20001638

100093bc <__libc_fini_array>:
100093bc:	b538      	push	{r3, r4, r5, lr}
100093be:	4d07      	ldr	r5, [pc, #28]	@ (100093dc <__libc_fini_array+0x20>)
100093c0:	4c07      	ldr	r4, [pc, #28]	@ (100093e0 <__libc_fini_array+0x24>)
100093c2:	1b2c      	subs	r4, r5, r4
100093c4:	10a4      	asrs	r4, r4, #2
100093c6:	d005      	beq.n	100093d4 <__libc_fini_array+0x18>
100093c8:	3c01      	subs	r4, #1
100093ca:	f855 3d04 	ldr.w	r3, [r5, #-4]!
100093ce:	4798      	blx	r3
100093d0:	2c00      	cmp	r4, #0
100093d2:	d1f9      	bne.n	100093c8 <__libc_fini_array+0xc>
100093d4:	e8bd 4038 	ldmia.w	sp!, {r3, r4, r5, lr}
100093d8:	f000 b8f8 	b.w	100095cc <_fini>
100093dc:	1000968c 	.word	0x1000968c
100093e0:	1000968c 	.word	0x1000968c

100093e4 <__retarget_lock_acquire_recursive>:
100093e4:	4770      	bx	lr
100093e6:	bf00      	nop

100093e8 <__retarget_lock_release_recursive>:
100093e8:	4770      	bx	lr
100093ea:	bf00      	nop

100093ec <memcpy>:
100093ec:	4684      	mov	ip, r0
100093ee:	ea41 0300 	orr.w	r3, r1, r0
100093f2:	f013 0303 	ands.w	r3, r3, #3
100093f6:	d149      	bne.n	1000948c <memcpy+0xa0>
100093f8:	3a40      	subs	r2, #64	@ 0x40
100093fa:	d323      	bcc.n	10009444 <memcpy+0x58>
100093fc:	680b      	ldr	r3, [r1, #0]
100093fe:	6003      	str	r3, [r0, #0]
10009400:	684b      	ldr	r3, [r1, #4]
10009402:	6043      	str	r3, [r0, #4]
10009404:	688b      	ldr	r3, [r1, #8]
10009406:	6083      	str	r3, [r0, #8]
10009408:	68cb      	ldr	r3, [r1, #12]
1000940a:	60c3      	str	r3, [r0, #12]
1000940c:	690b      	ldr	r3, [r1, #16]
1000940e:	6103      	str	r3, [r0, #16]
10009410:	694b      	ldr	r3, [r1, #20]
10009412:	6143      	str	r3, [r0, #20]
10009414:	698b      	ldr	r3, [r1, #24]
10009416:	6183      	str	r3, [r0, #24]
10009418:	69cb      	ldr	r3, [r1, #28]
1000941a:	61c3      	str	r3, [r0, #28]
1000941c:	6a0b      	ldr	r3, [r1, #32]
1000941e:	6203      	str	r3, [r0, #32]
10009420:	6a4b      	ldr	r3, [r1, #36]	@ 0x24
10009422:	6243      	str	r3, [r0, #36]	@ 0x24
10009424:	6a8b      	ldr	r3, [r1, #40]	@ 0x28
10009426:	6283      	str	r3, [r0, #40]	@ 0x28
10009428:	6acb      	ldr	r3, [r1, #44]	@ 0x2c
1000942a:	62c3      	str	r3, [r0, #44]	@ 0x2c
1000942c:	6b0b      	ldr	r3, [r1, #48]	@ 0x30
1000942e:	6303      	str	r3, [r0, #48]	@ 0x30
10009430:	6b4b      	ldr	r3, [r1, #52]	@ 0x34
10009432:	6343      	str	r3, [r0, #52]	@ 0x34
10009434:	6b8b      	ldr	r3, [r1, #56]	@ 0x38
10009436:	6383      	str	r3, [r0, #56]	@ 0x38
10009438:	6bcb      	ldr	r3, [r1, #60]	@ 0x3c
1000943a:	63c3      	str	r3, [r0, #60]	@ 0x3c
1000943c:	3040      	adds	r0, #64	@ 0x40
1000943e:	3140      	adds	r1, #64	@ 0x40
10009440:	3a40      	subs	r2, #64	@ 0x40
10009442:	d2db      	bcs.n	100093fc <memcpy+0x10>
10009444:	3230      	adds	r2, #48	@ 0x30
10009446:	d30b      	bcc.n	10009460 <memcpy+0x74>
10009448:	680b      	ldr	r3, [r1, #0]
1000944a:	6003      	str	r3, [r0, #0]
1000944c:	684b      	ldr	r3, [r1, #4]
1000944e:	6043      	str	r3, [r0, #4]
10009450:	688b      	ldr	r3, [r1, #8]
10009452:	6083      	str	r3, [r0, #8]
10009454:	68cb      	ldr	r3, [r1, #12]
10009456:	60c3      	str	r3, [r0, #12]
10009458:	3010      	adds	r0, #16
1000945a:	3110      	adds	r1, #16
1000945c:	3a10      	subs	r2, #16
1000945e:	d2f3      	bcs.n	10009448 <memcpy+0x5c>
10009460:	320c      	adds	r2, #12
10009462:	d305      	bcc.n	10009470 <memcpy+0x84>
10009464:	f851 3b04 	ldr.w	r3, [r1], #4
10009468:	f840 3b04 	str.w	r3, [r0], #4
1000946c:	3a04      	subs	r2, #4
1000946e:	d2f9      	bcs.n	10009464 <memcpy+0x78>
10009470:	3204      	adds	r2, #4
10009472:	d008      	beq.n	10009486 <memcpy+0x9a>
10009474:	07d2      	lsls	r2, r2, #31
10009476:	bf1c      	itt	ne
10009478:	f811 3b01 	ldrbne.w	r3, [r1], #1
1000947c:	f800 3b01 	strbne.w	r3, [r0], #1
10009480:	d301      	bcc.n	10009486 <memcpy+0x9a>
10009482:	880b      	ldrh	r3, [r1, #0]
10009484:	8003      	strh	r3, [r0, #0]
10009486:	4660      	mov	r0, ip
10009488:	4770      	bx	lr
1000948a:	bf00      	nop
1000948c:	2a08      	cmp	r2, #8
1000948e:	d313      	bcc.n	100094b8 <memcpy+0xcc>
10009490:	078b      	lsls	r3, r1, #30
10009492:	d0b1      	beq.n	100093f8 <memcpy+0xc>
10009494:	f010 0303 	ands.w	r3, r0, #3
10009498:	d0ae      	beq.n	100093f8 <memcpy+0xc>
1000949a:	f1c3 0304 	rsb	r3, r3, #4
1000949e:	1ad2      	subs	r2, r2, r3
100094a0:	07db      	lsls	r3, r3, #31
100094a2:	bf1c      	itt	ne
100094a4:	f811 3b01 	ldrbne.w	r3, [r1], #1
100094a8:	f800 3b01 	strbne.w	r3, [r0], #1
100094ac:	d3a4      	bcc.n	100093f8 <memcpy+0xc>
100094ae:	f831 3b02 	ldrh.w	r3, [r1], #2
100094b2:	f820 3b02 	strh.w	r3, [r0], #2
100094b6:	e79f      	b.n	100093f8 <memcpy+0xc>
100094b8:	3a04      	subs	r2, #4
100094ba:	d3d9      	bcc.n	10009470 <memcpy+0x84>
100094bc:	3a01      	subs	r2, #1
100094be:	f811 3b01 	ldrb.w	r3, [r1], #1
100094c2:	f800 3b01 	strb.w	r3, [r0], #1
100094c6:	d2f9      	bcs.n	100094bc <memcpy+0xd0>
100094c8:	780b      	ldrb	r3, [r1, #0]
100094ca:	7003      	strb	r3, [r0, #0]
100094cc:	784b      	ldrb	r3, [r1, #1]
100094ce:	7043      	strb	r3, [r0, #1]
100094d0:	788b      	ldrb	r3, [r1, #2]
100094d2:	7083      	strb	r3, [r0, #2]
100094d4:	4660      	mov	r0, ip
100094d6:	4770      	bx	lr

100094d8 <strlen>:
100094d8:	f020 0103 	bic.w	r1, r0, #3
100094dc:	f010 0003 	ands.w	r0, r0, #3
100094e0:	f1c0 0000 	rsb	r0, r0, #0
100094e4:	f851 3b04 	ldr.w	r3, [r1], #4
100094e8:	f100 0c04 	add.w	ip, r0, #4
100094ec:	ea4f 0ccc 	mov.w	ip, ip, lsl #3
100094f0:	f06f 0200 	mvn.w	r2, #0
100094f4:	bf1c      	itt	ne
100094f6:	fa22 f20c 	lsrne.w	r2, r2, ip
100094fa:	4313      	orrne	r3, r2
100094fc:	f04f 0c01 	mov.w	ip, #1
10009500:	ea4c 2c0c 	orr.w	ip, ip, ip, lsl #8
10009504:	ea4c 4c0c 	orr.w	ip, ip, ip, lsl #16
10009508:	eba3 020c 	sub.w	r2, r3, ip
1000950c:	ea22 0203 	bic.w	r2, r2, r3
10009510:	ea12 12cc 	ands.w	r2, r2, ip, lsl #7
10009514:	bf04      	itt	eq
10009516:	f851 3b04 	ldreq.w	r3, [r1], #4
1000951a:	3004      	addeq	r0, #4
1000951c:	d0f4      	beq.n	10009508 <strlen+0x30>
1000951e:	f1c2 0100 	rsb	r1, r2, #0
10009522:	ea02 0201 	and.w	r2, r2, r1
10009526:	fab2 f282 	clz	r2, r2
1000952a:	f1c2 021f 	rsb	r2, r2, #31
1000952e:	eb00 00d2 	add.w	r0, r0, r2, lsr #3
10009532:	4770      	bx	lr

10009534 <__register_exitproc>:
10009534:	b5f0      	push	{r4, r5, r6, r7, lr}
10009536:	4c1d      	ldr	r4, [pc, #116]	@ (100095ac <__register_exitproc+0x78>)
10009538:	b083      	sub	sp, #12
1000953a:	4605      	mov	r5, r0
1000953c:	4616      	mov	r6, r2
1000953e:	6820      	ldr	r0, [r4, #0]
10009540:	461f      	mov	r7, r3
10009542:	9101      	str	r1, [sp, #4]
10009544:	f7ff ff4e 	bl	100093e4 <__retarget_lock_acquire_recursive>
10009548:	4a19      	ldr	r2, [pc, #100]	@ (100095b0 <__register_exitproc+0x7c>)
1000954a:	9901      	ldr	r1, [sp, #4]
1000954c:	6813      	ldr	r3, [r2, #0]
1000954e:	b32b      	cbz	r3, 1000959c <__register_exitproc+0x68>
10009550:	685a      	ldr	r2, [r3, #4]
10009552:	6820      	ldr	r0, [r4, #0]
10009554:	2a1f      	cmp	r2, #31
10009556:	dc24      	bgt.n	100095a2 <__register_exitproc+0x6e>
10009558:	b94d      	cbnz	r5, 1000956e <__register_exitproc+0x3a>
1000955a:	1c54      	adds	r4, r2, #1
1000955c:	3202      	adds	r2, #2
1000955e:	605c      	str	r4, [r3, #4]
10009560:	f843 1022 	str.w	r1, [r3, r2, lsl #2]
10009564:	f7ff ff40 	bl	100093e8 <__retarget_lock_release_recursive>
10009568:	2000      	movs	r0, #0
1000956a:	b003      	add	sp, #12
1000956c:	bdf0      	pop	{r4, r5, r6, r7, pc}
1000956e:	eb03 0e82 	add.w	lr, r3, r2, lsl #2
10009572:	2401      	movs	r4, #1
10009574:	2d02      	cmp	r5, #2
10009576:	f8ce 6088 	str.w	r6, [lr, #136]	@ 0x88
1000957a:	fa04 f402 	lsl.w	r4, r4, r2
1000957e:	f8d3 6188 	ldr.w	r6, [r3, #392]	@ 0x188
10009582:	ea46 0c04 	orr.w	ip, r6, r4
10009586:	f8c3 c188 	str.w	ip, [r3, #392]	@ 0x188
1000958a:	f8ce 7108 	str.w	r7, [lr, #264]	@ 0x108
1000958e:	d1e4      	bne.n	1000955a <__register_exitproc+0x26>
10009590:	f8d3 518c 	ldr.w	r5, [r3, #396]	@ 0x18c
10009594:	4325      	orrs	r5, r4
10009596:	f8c3 518c 	str.w	r5, [r3, #396]	@ 0x18c
1000959a:	e7de      	b.n	1000955a <__register_exitproc+0x26>
1000959c:	4b05      	ldr	r3, [pc, #20]	@ (100095b4 <__register_exitproc+0x80>)
1000959e:	6013      	str	r3, [r2, #0]
100095a0:	e7d6      	b.n	10009550 <__register_exitproc+0x1c>
100095a2:	f7ff ff21 	bl	100093e8 <__retarget_lock_release_recursive>
100095a6:	f04f 30ff 	mov.w	r0, #4294967295	@ 0xffffffff
100095aa:	e7de      	b.n	1000956a <__register_exitproc+0x36>
100095ac:	20001760 	.word	0x20001760
100095b0:	200019d0 	.word	0x200019d0
100095b4:	200019d4 	.word	0x200019d4

100095b8 <register_fini>:
100095b8:	4b02      	ldr	r3, [pc, #8]	@ (100095c4 <register_fini+0xc>)
100095ba:	b113      	cbz	r3, 100095c2 <register_fini+0xa>
100095bc:	4802      	ldr	r0, [pc, #8]	@ (100095c8 <register_fini+0x10>)
100095be:	f7ff bead 	b.w	1000931c <atexit>
100095c2:	4770      	bx	lr
100095c4:	00000000 	.word	0x00000000
100095c8:	100093bd 	.word	0x100093bd

100095cc <_fini>:
100095cc:	b5f8      	push	{r3, r4, r5, r6, r7, lr}
100095ce:	bf00      	nop

100095d0 <__mutex_try_enter_veneer>:
100095d0:	f85f f000 	ldr.w	pc, [pc]	@ 100095d4 <__mutex_try_enter_veneer+0x4>
100095d4:	20000111 	.word	0x20000111

100095d8 <__e15_is_bulkin_ep_veneer>:
100095d8:	f85f f000 	ldr.w	pc, [pc]	@ 100095dc <__e15_is_bulkin_ep_veneer+0x4>
100095dc:	20000a51 	.word	0x20000a51

100095e0 <__mutex_try_enter_block_until_veneer>:
100095e0:	f85f f000 	ldr.w	pc, [pc]	@ 100095e4 <__mutex_try_enter_block_until_veneer+0x4>
100095e4:	200001cd 	.word	0x200001cd

100095e8 <__e15_is_critical_frame_period_veneer>:
100095e8:	f85f f000 	ldr.w	pc, [pc]	@ 100095ec <__e15_is_critical_frame_period_veneer+0x4>
100095ec:	20000a75 	.word	0x20000a75

100095f0 <__mutex_enter_timeout_ms_veneer>:
100095f0:	f85f f000 	ldr.w	pc, [pc]	@ 100095f4 <__mutex_enter_timeout_ms_veneer+0x4>
100095f4:	20000235 	.word	0x20000235

100095f8 <____aeabi_f2d_veneer>:
100095f8:	f85f f000 	ldr.w	pc, [pc]	@ 100095fc <____aeabi_f2d_veneer+0x4>
100095fc:	200011b5 	.word	0x200011b5

10009600 <__spi_write_blocking_veneer>:
10009600:	f85f f000 	ldr.w	pc, [pc]	@ 10009604 <__spi_write_blocking_veneer+0x4>
10009604:	20000dad 	.word	0x20000dad

10009608 <__hw_endpoint_start_next_buffer_veneer>:
10009608:	f85f f000 	ldr.w	pc, [pc]	@ 1000960c <__hw_endpoint_start_next_buffer_veneer+0x4>
1000960c:	20000af1 	.word	0x20000af1

10009610 <__mutex_exit_veneer>:
10009610:	f85f f000 	ldr.w	pc, [pc]	@ 10009614 <__mutex_exit_veneer+0x4>
10009614:	2000026d 	.word	0x2000026d

10009618 <____aeabi_uldivmod_veneer>:
10009618:	f85f f000 	ldr.w	pc, [pc]	@ 1000961c <____aeabi_uldivmod_veneer+0x4>
1000961c:	20001265 	.word	0x20001265

10009620 <__reset_non_control_endpoints_veneer>:
10009620:	f85f f000 	ldr.w	pc, [pc]	@ 10009624 <__reset_non_control_endpoints_veneer+0x4>
10009624:	200002a9 	.word	0x200002a9

10009628 <__sqrtf_veneer>:
10009628:	f85f f000 	ldr.w	pc, [pc]	@ 1000962c <__sqrtf_veneer+0x4>
1000962c:	20000e85 	.word	0x20000e85

10009630 <__spi_read_blocking_veneer>:
10009630:	f85f f000 	ldr.w	pc, [pc]	@ 10009634 <__spi_read_blocking_veneer+0x4>
10009634:	20000e05 	.word	0x20000e05

10009638 <___hw_endpoint_buffer_control_update32_veneer>:
10009638:	f85f f000 	ldr.w	pc, [pc]	@ 1000963c <___hw_endpoint_buffer_control_update32_veneer+0x4>
1000963c:	20000aa9 	.word	0x20000aa9

10009640 <__pre_init_runtime_init_bootrom_reset>:
10009640:	10004369                                iC..

10009644 <__pre_init_runtime_init_early_resets>:
10009644:	100042e1                                .B..

10009648 <__pre_init_runtime_init_usb_power_down>:
10009648:	10004311                                .C..

1000964c <__pre_init_runtime_init_clocks>:
1000964c:	10004401                                .D..

10009650 <__pre_init_runtime_init_post_clock_resets>:
10009650:	10004349                                IC..

10009654 <__pre_init_runtime_init_boot_locks_reset>:
10009654:	10004269                                iB..

10009658 <__pre_init_runtime_init_spin_locks_reset>:
10009658:	10004391                                .C..

1000965c <__pre_init_runtime_init_bootrom_locking_enable>:
1000965c:	10004255                                UB..

10009660 <__pre_init_runtime_init_mutex>:
10009660:	10003379                                y3..

10009664 <__pre_init_runtime_init_install_ram_vector_table>:
10009664:	10004395                                .C..

10009668 <__pre_init_runtime_init_default_alarm_pool>:
10009668:	10003745                                E7..

1000966c <__pre_init_first_per_core_initializer>:
1000966c:	100042b1                                .B..

10009670 <__pre_init_runtime_init_per_core_bootrom_reset>:
10009670:	1000437d                                }C..

10009674 <__pre_init_runtime_init_per_core_enable_coprocessors>:
10009674:	1000432d                                -C..

10009678 <__pre_init_spinlock_set_extexclall>:
10009678:	10002d19                                .-..

1000967c <__pre_init_runtime_init_per_core_irq_priorities>:
1000967c:	10002d41                                A-..

10009680 <__init_array_start>:
10009680:	100095b9 	.word	0x100095b9
10009684:	10006cfd 	.word	0x10006cfd

10009688 <__frame_dummy_init_array_entry>:
10009688:	100001e9                                ....

Disassembly of section .data:

20000110 <mutex_try_enter>:
20000110:	4603      	mov	r3, r0
20000112:	b500      	push	{lr}
20000114:	6802      	ldr	r2, [r0, #0]
20000116:	f3ef 8c10 	mrs	ip, PRIMASK
2000011a:	b672      	cpsid	i
2000011c:	e8d2 efcf 	ldaexb	lr, [r2]
20000120:	2001      	movs	r0, #1
20000122:	f1be 0f00 	cmp.w	lr, #0
20000126:	d1f9      	bne.n	2000011c <mutex_try_enter+0xc>
20000128:	e8c2 0f4e 	strexb	lr, r0, [r2]
2000012c:	f1be 0f00 	cmp.w	lr, #0
20000130:	d1f4      	bne.n	2000011c <mutex_try_enter+0xc>
20000132:	f3bf 8f5f 	dmb	sy
20000136:	f993 2004 	ldrsb.w	r2, [r3, #4]
2000013a:	2a00      	cmp	r2, #0
2000013c:	db09      	blt.n	20000152 <mutex_try_enter+0x42>
2000013e:	b101      	cbz	r1, 20000142 <mutex_try_enter+0x32>
20000140:	600a      	str	r2, [r1, #0]
20000142:	2000      	movs	r0, #0
20000144:	2200      	movs	r2, #0
20000146:	681b      	ldr	r3, [r3, #0]
20000148:	e8c3 2f8f 	stlb	r2, [r3]
2000014c:	f38c 8810 	msr	PRIMASK, ip
20000150:	bd00      	pop	{pc}
20000152:	f04f 4250 	mov.w	r2, #3489660928	@ 0xd0000000
20000156:	6812      	ldr	r2, [r2, #0]
20000158:	2001      	movs	r0, #1
2000015a:	711a      	strb	r2, [r3, #4]
2000015c:	e7f2      	b.n	20000144 <mutex_try_enter+0x34>
2000015e:	bf00      	nop

20000160 <mutex_enter_block_until>:
20000160:	f04f 4150 	mov.w	r1, #3489660928	@ 0xd0000000
20000164:	e92d 41f0 	stmdb	sp!, {r4, r5, r6, r7, r8, lr}
20000168:	461f      	mov	r7, r3
2000016a:	680b      	ldr	r3, [r1, #0]
2000016c:	4604      	mov	r4, r0
2000016e:	4616      	mov	r6, r2
20000170:	2500      	movs	r5, #0
20000172:	4698      	mov	r8, r3
20000174:	e008      	b.n	20000188 <mutex_enter_block_until+0x28>
20000176:	e8c3 5f8f 	stlb	r5, [r3]
2000017a:	f382 8810 	msr	PRIMASK, r2
2000017e:	4630      	mov	r0, r6
20000180:	4639      	mov	r1, r7
20000182:	f001 f9f9 	bl	20001578 <__best_effort_wfe_or_timeout_veneer>
20000186:	b9e8      	cbnz	r0, 200001c4 <mutex_enter_block_until+0x64>
20000188:	6823      	ldr	r3, [r4, #0]
2000018a:	f3ef 8210 	mrs	r2, PRIMASK
2000018e:	b672      	cpsid	i
20000190:	e8d3 0fcf 	ldaexb	r0, [r3]
20000194:	2101      	movs	r1, #1
20000196:	2800      	cmp	r0, #0
20000198:	d1fa      	bne.n	20000190 <mutex_enter_block_until+0x30>
2000019a:	e8c3 1f40 	strexb	r0, r1, [r3]
2000019e:	2800      	cmp	r0, #0
200001a0:	d1f6      	bne.n	20000190 <mutex_enter_block_until+0x30>
200001a2:	f3bf 8f5f 	dmb	sy
200001a6:	f994 1004 	ldrsb.w	r1, [r4, #4]
200001aa:	6823      	ldr	r3, [r4, #0]
200001ac:	2900      	cmp	r1, #0
200001ae:	dae2      	bge.n	20000176 <mutex_enter_block_until+0x16>
200001b0:	2100      	movs	r1, #0
200001b2:	f884 8004 	strb.w	r8, [r4, #4]
200001b6:	e8c3 1f8f 	stlb	r1, [r3]
200001ba:	f382 8810 	msr	PRIMASK, r2
200001be:	2001      	movs	r0, #1
200001c0:	e8bd 81f0 	ldmia.w	sp!, {r4, r5, r6, r7, r8, pc}
200001c4:	2000      	movs	r0, #0
200001c6:	e8bd 81f0 	ldmia.w	sp!, {r4, r5, r6, r7, r8, pc}
200001ca:	bf00      	nop

200001cc <mutex_try_enter_block_until>:
200001cc:	b510      	push	{r4, lr}
200001ce:	6801      	ldr	r1, [r0, #0]
200001d0:	f3ef 8e10 	mrs	lr, PRIMASK
200001d4:	b672      	cpsid	i
200001d6:	e8d1 cfcf 	ldaexb	ip, [r1]
200001da:	2401      	movs	r4, #1
200001dc:	f1bc 0f00 	cmp.w	ip, #0
200001e0:	d1f9      	bne.n	200001d6 <mutex_try_enter_block_until+0xa>
200001e2:	e8c1 4f4c 	strexb	ip, r4, [r1]
200001e6:	f1bc 0f00 	cmp.w	ip, #0
200001ea:	d1f4      	bne.n	200001d6 <mutex_try_enter_block_until+0xa>
200001ec:	f3bf 8f5f 	dmb	sy
200001f0:	f990 c004 	ldrsb.w	ip, [r0, #4]
200001f4:	6804      	ldr	r4, [r0, #0]
200001f6:	f1bc 0f00 	cmp.w	ip, #0
200001fa:	db10      	blt.n	2000021e <mutex_try_enter_block_until+0x52>
200001fc:	2100      	movs	r1, #0
200001fe:	e8c4 1f8f 	stlb	r1, [r4]
20000202:	f38e 8810 	msr	PRIMASK, lr
20000206:	f04f 4450 	mov.w	r4, #3489660928	@ 0xd0000000
2000020a:	f994 4000 	ldrsb.w	r4, [r4]
2000020e:	4564      	cmp	r4, ip
20000210:	d101      	bne.n	20000216 <mutex_try_enter_block_until+0x4a>
20000212:	4608      	mov	r0, r1
20000214:	bd10      	pop	{r4, pc}
20000216:	e8bd 4010 	ldmia.w	sp!, {r4, lr}
2000021a:	f7ff bfa1 	b.w	20000160 <mutex_enter_block_until>
2000021e:	f04f 4250 	mov.w	r2, #3489660928	@ 0xd0000000
20000222:	6812      	ldr	r2, [r2, #0]
20000224:	2300      	movs	r3, #0
20000226:	7102      	strb	r2, [r0, #4]
20000228:	e8c4 3f8f 	stlb	r3, [r4]
2000022c:	f38e 8810 	msr	PRIMASK, lr
20000230:	2001      	movs	r0, #1
20000232:	bd10      	pop	{r4, pc}

20000234 <mutex_enter_timeout_ms>:
20000234:	b570      	push	{r4, r5, r6, lr}
20000236:	4605      	mov	r5, r0
20000238:	460c      	mov	r4, r1
2000023a:	f001 f9a5 	bl	20001588 <__time_us_64_veneer>
2000023e:	4602      	mov	r2, r0
20000240:	460b      	mov	r3, r1
20000242:	f44f 707a 	mov.w	r0, #1000	@ 0x3e8
20000246:	f04f 3eff 	mov.w	lr, #4294967295	@ 0xffffffff
2000024a:	f06f 4c00 	mvn.w	ip, #2147483648	@ 0x80000000
2000024e:	fbe4 2300 	umlal	r2, r3, r4, r0
20000252:	4596      	cmp	lr, r2
20000254:	eb7c 0103 	sbcs.w	r1, ip, r3
20000258:	bf38      	it	cc
2000025a:	4672      	movcc	r2, lr
2000025c:	4628      	mov	r0, r5
2000025e:	e8bd 4070 	ldmia.w	sp!, {r4, r5, r6, lr}
20000262:	bf38      	it	cc
20000264:	4663      	movcc	r3, ip
20000266:	f7ff bf7b 	b.w	20000160 <mutex_enter_block_until>
2000026a:	bf00      	nop

2000026c <mutex_exit>:
2000026c:	6803      	ldr	r3, [r0, #0]
2000026e:	f3ef 8210 	mrs	r2, PRIMASK
20000272:	b672      	cpsid	i
20000274:	e8d3 cfcf 	ldaexb	ip, [r3]
20000278:	2101      	movs	r1, #1
2000027a:	f1bc 0f00 	cmp.w	ip, #0
2000027e:	d1f9      	bne.n	20000274 <mutex_exit+0x8>
20000280:	e8c3 1f4c 	strexb	ip, r1, [r3]
20000284:	f1bc 0f00 	cmp.w	ip, #0
20000288:	d1f4      	bne.n	20000274 <mutex_exit+0x8>
2000028a:	f3bf 8f5f 	dmb	sy
2000028e:	f04f 0cff 	mov.w	ip, #255	@ 0xff
20000292:	2300      	movs	r3, #0
20000294:	6801      	ldr	r1, [r0, #0]
20000296:	f880 c004 	strb.w	ip, [r0, #4]
2000029a:	e8c1 3f8f 	stlb	r3, [r1]
2000029e:	f382 8810 	msr	PRIMASK, r2
200002a2:	bf40      	sev
200002a4:	4770      	bx	lr
200002a6:	bf00      	nop

200002a8 <reset_non_control_endpoints>:
200002a8:	2100      	movs	r1, #0
200002aa:	b508      	push	{r3, lr}
200002ac:	4b13      	ldr	r3, [pc, #76]	@ (200002fc <reset_non_control_endpoints+0x54>)
200002ae:	f44f 7270 	mov.w	r2, #960	@ 0x3c0
200002b2:	6099      	str	r1, [r3, #8]
200002b4:	4812      	ldr	r0, [pc, #72]	@ (20000300 <reset_non_control_endpoints+0x58>)
200002b6:	60d9      	str	r1, [r3, #12]
200002b8:	6119      	str	r1, [r3, #16]
200002ba:	6159      	str	r1, [r3, #20]
200002bc:	6199      	str	r1, [r3, #24]
200002be:	61d9      	str	r1, [r3, #28]
200002c0:	6219      	str	r1, [r3, #32]
200002c2:	6259      	str	r1, [r3, #36]	@ 0x24
200002c4:	6299      	str	r1, [r3, #40]	@ 0x28
200002c6:	62d9      	str	r1, [r3, #44]	@ 0x2c
200002c8:	6319      	str	r1, [r3, #48]	@ 0x30
200002ca:	6359      	str	r1, [r3, #52]	@ 0x34
200002cc:	6399      	str	r1, [r3, #56]	@ 0x38
200002ce:	63d9      	str	r1, [r3, #60]	@ 0x3c
200002d0:	6419      	str	r1, [r3, #64]	@ 0x40
200002d2:	6459      	str	r1, [r3, #68]	@ 0x44
200002d4:	6499      	str	r1, [r3, #72]	@ 0x48
200002d6:	64d9      	str	r1, [r3, #76]	@ 0x4c
200002d8:	6519      	str	r1, [r3, #80]	@ 0x50
200002da:	6559      	str	r1, [r3, #84]	@ 0x54
200002dc:	6599      	str	r1, [r3, #88]	@ 0x58
200002de:	65d9      	str	r1, [r3, #92]	@ 0x5c
200002e0:	6619      	str	r1, [r3, #96]	@ 0x60
200002e2:	6659      	str	r1, [r3, #100]	@ 0x64
200002e4:	6699      	str	r1, [r3, #104]	@ 0x68
200002e6:	66d9      	str	r1, [r3, #108]	@ 0x6c
200002e8:	6719      	str	r1, [r3, #112]	@ 0x70
200002ea:	6759      	str	r1, [r3, #116]	@ 0x74
200002ec:	6799      	str	r1, [r3, #120]	@ 0x78
200002ee:	67d9      	str	r1, [r3, #124]	@ 0x7c
200002f0:	f001 f93a 	bl	20001568 <__memset_veneer>
200002f4:	4b03      	ldr	r3, [pc, #12]	@ (20000304 <reset_non_control_endpoints+0x5c>)
200002f6:	4a04      	ldr	r2, [pc, #16]	@ (20000308 <reset_non_control_endpoints+0x60>)
200002f8:	601a      	str	r2, [r3, #0]
200002fa:	bd08      	pop	{r3, pc}
200002fc:	50100000 	.word	0x50100000
20000300:	20002250 	.word	0x20002250
20000304:	20002618 	.word	0x20002618
20000308:	50100180 	.word	0x50100180

2000030c <hw_handle_buff_status>:
2000030c:	e92d 47f0 	stmdb	sp!, {r4, r5, r6, r7, r8, r9, sl, lr}
20000310:	4b1e      	ldr	r3, [pc, #120]	@ (2000038c <hw_handle_buff_status+0x80>)
20000312:	b084      	sub	sp, #16
20000314:	f8d3 a058 	ldr.w	sl, [r3, #88]	@ 0x58
20000318:	f1ba 0f00 	cmp.w	sl, #0
2000031c:	d021      	beq.n	20000362 <hw_handle_buff_status+0x56>
2000031e:	2400      	movs	r4, #0
20000320:	2501      	movs	r5, #1
20000322:	f44f 69e0 	mov.w	r9, #1792	@ 0x700
20000326:	f8df 806c 	ldr.w	r8, [pc, #108]	@ 20000394 <hw_handle_buff_status+0x88>
2000032a:	4f19      	ldr	r7, [pc, #100]	@ (20000390 <hw_handle_buff_status+0x84>)
2000032c:	e005      	b.n	2000033a <hw_handle_buff_status+0x2e>
2000032e:	3401      	adds	r4, #1
20000330:	b2e4      	uxtb	r4, r4
20000332:	2c20      	cmp	r4, #32
20000334:	ea4f 0545 	mov.w	r5, r5, lsl #1
20000338:	d013      	beq.n	20000362 <hw_handle_buff_status+0x56>
2000033a:	ea1a 0f05 	tst.w	sl, r5
2000033e:	d0f6      	beq.n	2000032e <hw_handle_buff_status+0x22>
20000340:	43e3      	mvns	r3, r4
20000342:	f004 06fe 	and.w	r6, r4, #254	@ 0xfe
20000346:	f003 0301 	and.w	r3, r3, #1
2000034a:	441e      	add	r6, r3
2000034c:	eb07 1646 	add.w	r6, r7, r6, lsl #5
20000350:	4630      	mov	r0, r6
20000352:	f8c8 5058 	str.w	r5, [r8, #88]	@ 0x58
20000356:	f000 fbfd 	bl	20000b54 <hw_endpoint_xfer_continue>
2000035a:	b928      	cbnz	r0, 20000368 <hw_handle_buff_status+0x5c>
2000035c:	ea3a 0a05 	bics.w	sl, sl, r5
20000360:	d1e5      	bne.n	2000032e <hw_handle_buff_status+0x22>
20000362:	b004      	add	sp, #16
20000364:	e8bd 87f0 	ldmia.w	sp!, {r4, r5, r6, r7, r8, r9, sl, pc}
20000368:	78b3      	ldrb	r3, [r6, #2]
2000036a:	8af2      	ldrh	r2, [r6, #22]
2000036c:	f88d 3008 	strb.w	r3, [sp, #8]
20000370:	2300      	movs	r3, #0
20000372:	a801      	add	r0, sp, #4
20000374:	2101      	movs	r1, #1
20000376:	f8ad 9004 	strh.w	r9, [sp, #4]
2000037a:	9203      	str	r2, [sp, #12]
2000037c:	f88d 3009 	strb.w	r3, [sp, #9]
20000380:	f000 fc08 	bl	20000b94 <dcd_event_handler>
20000384:	4630      	mov	r0, r6
20000386:	f000 fb89 	bl	20000a9c <hw_endpoint_reset_transfer>
2000038a:	e7e7      	b.n	2000035c <hw_handle_buff_status+0x50>
2000038c:	50110000 	.word	0x50110000
20000390:	20002210 	.word	0x20002210
20000394:	50113000 	.word	0x50113000

20000398 <dcd_rp2040_irq>:
20000398:	b570      	push	{r4, r5, r6, lr}
2000039a:	4baf      	ldr	r3, [pc, #700]	@ (20000658 <dcd_rp2040_irq+0x2c0>)
2000039c:	b086      	sub	sp, #24
2000039e:	f8d3 4098 	ldr.w	r4, [r3, #152]	@ 0x98
200003a2:	f414 3500 	ands.w	r5, r4, #131072	@ 0x20000
200003a6:	d074      	beq.n	20000492 <dcd_rp2040_irq+0xfa>
200003a8:	4aac      	ldr	r2, [pc, #688]	@ (2000065c <dcd_rp2040_irq+0x2c4>)
200003aa:	4bad      	ldr	r3, [pc, #692]	@ (20000660 <dcd_rp2040_irq+0x2c8>)
200003ac:	6a90      	ldr	r0, [r2, #40]	@ 0x28
200003ae:	f893 203b 	ldrb.w	r2, [r3, #59]	@ 0x3b
200003b2:	49ac      	ldr	r1, [pc, #688]	@ (20000664 <dcd_rp2040_irq+0x2cc>)
200003b4:	2a02      	cmp	r2, #2
200003b6:	6008      	str	r0, [r1, #0]
200003b8:	f000 80e6 	beq.w	20000588 <dcd_rp2040_irq+0x1f0>
200003bc:	2500      	movs	r5, #0
200003be:	f893 207b 	ldrb.w	r2, [r3, #123]	@ 0x7b
200003c2:	2a02      	cmp	r2, #2
200003c4:	f000 81c0 	beq.w	20000748 <dcd_rp2040_irq+0x3b0>
200003c8:	f893 20bb 	ldrb.w	r2, [r3, #187]	@ 0xbb
200003cc:	2a02      	cmp	r2, #2
200003ce:	f000 81b1 	beq.w	20000734 <dcd_rp2040_irq+0x39c>
200003d2:	f893 20fb 	ldrb.w	r2, [r3, #251]	@ 0xfb
200003d6:	2a02      	cmp	r2, #2
200003d8:	f000 81a2 	beq.w	20000720 <dcd_rp2040_irq+0x388>
200003dc:	f893 213b 	ldrb.w	r2, [r3, #315]	@ 0x13b
200003e0:	2a02      	cmp	r2, #2
200003e2:	f000 8192 	beq.w	2000070a <dcd_rp2040_irq+0x372>
200003e6:	f893 217b 	ldrb.w	r2, [r3, #379]	@ 0x17b
200003ea:	2a02      	cmp	r2, #2
200003ec:	f000 8182 	beq.w	200006f4 <dcd_rp2040_irq+0x35c>
200003f0:	f893 21bb 	ldrb.w	r2, [r3, #443]	@ 0x1bb
200003f4:	2a02      	cmp	r2, #2
200003f6:	f000 8172 	beq.w	200006de <dcd_rp2040_irq+0x346>
200003fa:	f893 21fb 	ldrb.w	r2, [r3, #507]	@ 0x1fb
200003fe:	2a02      	cmp	r2, #2
20000400:	f000 8162 	beq.w	200006c8 <dcd_rp2040_irq+0x330>
20000404:	f893 223b 	ldrb.w	r2, [r3, #571]	@ 0x23b
20000408:	2a02      	cmp	r2, #2
2000040a:	f000 8151 	beq.w	200006b0 <dcd_rp2040_irq+0x318>
2000040e:	f893 227b 	ldrb.w	r2, [r3, #635]	@ 0x27b
20000412:	2a02      	cmp	r2, #2
20000414:	f000 8140 	beq.w	20000698 <dcd_rp2040_irq+0x300>
20000418:	f893 22bb 	ldrb.w	r2, [r3, #699]	@ 0x2bb
2000041c:	2a02      	cmp	r2, #2
2000041e:	f000 812f 	beq.w	20000680 <dcd_rp2040_irq+0x2e8>
20000422:	f893 22fb 	ldrb.w	r2, [r3, #763]	@ 0x2fb
20000426:	2a02      	cmp	r2, #2
20000428:	f000 8109 	beq.w	2000063e <dcd_rp2040_irq+0x2a6>
2000042c:	f893 233b 	ldrb.w	r2, [r3, #827]	@ 0x33b
20000430:	2a02      	cmp	r2, #2
20000432:	f000 80f8 	beq.w	20000626 <dcd_rp2040_irq+0x28e>
20000436:	f893 237b 	ldrb.w	r2, [r3, #891]	@ 0x37b
2000043a:	2a02      	cmp	r2, #2
2000043c:	f000 80b7 	beq.w	200005ae <dcd_rp2040_irq+0x216>
20000440:	f893 23bb 	ldrb.w	r2, [r3, #955]	@ 0x3bb
20000444:	2a02      	cmp	r2, #2
20000446:	f000 80da 	beq.w	200005fe <dcd_rp2040_irq+0x266>
2000044a:	f893 23fb 	ldrb.w	r2, [r3, #1019]	@ 0x3fb
2000044e:	2a02      	cmp	r2, #2
20000450:	f000 80c4 	beq.w	200005dc <dcd_rp2040_irq+0x244>
20000454:	b93d      	cbnz	r5, 20000466 <dcd_rp2040_irq+0xce>
20000456:	4b84      	ldr	r3, [pc, #528]	@ (20000668 <dcd_rp2040_irq+0x2d0>)
20000458:	781b      	ldrb	r3, [r3, #0]
2000045a:	b923      	cbnz	r3, 20000466 <dcd_rp2040_irq+0xce>
2000045c:	f44f 3200 	mov.w	r2, #131072	@ 0x20000
20000460:	4b82      	ldr	r3, [pc, #520]	@ (2000066c <dcd_rp2040_irq+0x2d4>)
20000462:	f8c3 2090 	str.w	r2, [r3, #144]	@ 0x90
20000466:	f44f 7240 	mov.w	r2, #768	@ 0x300
2000046a:	4b7b      	ldr	r3, [pc, #492]	@ (20000658 <dcd_rp2040_irq+0x2c0>)
2000046c:	2101      	movs	r1, #1
2000046e:	6c9b      	ldr	r3, [r3, #72]	@ 0x48
20000470:	a803      	add	r0, sp, #12
20000472:	f3c3 030a 	ubfx	r3, r3, #0, #11
20000476:	9304      	str	r3, [sp, #16]
20000478:	f8ad 200c 	strh.w	r2, [sp, #12]
2000047c:	f000 fb8a 	bl	20000b94 <dcd_event_handler>
20000480:	06e3      	lsls	r3, r4, #27
20000482:	f44f 3500 	mov.w	r5, #131072	@ 0x20000
20000486:	4e7a      	ldr	r6, [pc, #488]	@ (20000670 <dcd_rp2040_irq+0x2d8>)
20000488:	d507      	bpl.n	2000049a <dcd_rp2040_irq+0x102>
2000048a:	f7ff ff3f 	bl	2000030c <hw_handle_buff_status>
2000048e:	4635      	mov	r5, r6
20000490:	e003      	b.n	2000049a <dcd_rp2040_irq+0x102>
20000492:	06e3      	lsls	r3, r4, #27
20000494:	f04f 0610 	mov.w	r6, #16
20000498:	d4f7      	bmi.n	2000048a <dcd_rp2040_irq+0xf2>
2000049a:	03e0      	lsls	r0, r4, #15
2000049c:	d51d      	bpl.n	200004da <dcd_rp2040_irq+0x142>
2000049e:	4870      	ldr	r0, [pc, #448]	@ (20000660 <dcd_rp2040_irq+0x2c8>)
200004a0:	2602      	movs	r6, #2
200004a2:	7e83      	ldrb	r3, [r0, #26]
200004a4:	f445 3580 	orr.w	r5, r5, #65536	@ 0x10000
200004a8:	bb33      	cbnz	r3, 200004f8 <dcd_rp2040_irq+0x160>
200004aa:	f04f 0301 	mov.w	r3, #1
200004ae:	2e01      	cmp	r6, #1
200004b0:	70c3      	strb	r3, [r0, #3]
200004b2:	f100 0020 	add.w	r0, r0, #32
200004b6:	d11b      	bne.n	200004f0 <dcd_rp2040_irq+0x158>
200004b8:	f44f 62c0 	mov.w	r2, #1536	@ 0x600
200004bc:	4b6d      	ldr	r3, [pc, #436]	@ (20000674 <dcd_rp2040_irq+0x2dc>)
200004be:	f8ad 200c 	strh.w	r2, [sp, #12]
200004c2:	e893 0003 	ldmia.w	r3, {r0, r1}
200004c6:	e9cd 0104 	strd	r0, r1, [sp, #16]
200004ca:	4631      	mov	r1, r6
200004cc:	a803      	add	r0, sp, #12
200004ce:	f000 fb61 	bl	20000b94 <dcd_event_handler>
200004d2:	f44f 3200 	mov.w	r2, #131072	@ 0x20000
200004d6:	4b65      	ldr	r3, [pc, #404]	@ (2000066c <dcd_rp2040_irq+0x2d4>)
200004d8:	651a      	str	r2, [r3, #80]	@ 0x50
200004da:	04e1      	lsls	r1, r4, #19
200004dc:	d43e      	bmi.n	2000055c <dcd_rp2040_irq+0x1c4>
200004de:	0462      	lsls	r2, r4, #17
200004e0:	d42e      	bmi.n	20000540 <dcd_rp2040_irq+0x1a8>
200004e2:	0423      	lsls	r3, r4, #16
200004e4:	d41d      	bmi.n	20000522 <dcd_rp2040_irq+0x18a>
200004e6:	42a5      	cmp	r5, r4
200004e8:	f040 81b9 	bne.w	2000085e <dcd_rp2040_irq+0x4c6>
200004ec:	b006      	add	sp, #24
200004ee:	bd70      	pop	{r4, r5, r6, pc}
200004f0:	7e83      	ldrb	r3, [r0, #26]
200004f2:	2601      	movs	r6, #1
200004f4:	2b00      	cmp	r3, #0
200004f6:	d0d8      	beq.n	200004aa <dcd_rp2040_irq+0x112>
200004f8:	4b5f      	ldr	r3, [pc, #380]	@ (20000678 <dcd_rp2040_irq+0x2e0>)
200004fa:	4a57      	ldr	r2, [pc, #348]	@ (20000658 <dcd_rp2040_irq+0x2c0>)
200004fc:	661e      	str	r6, [r3, #96]	@ 0x60
200004fe:	6e53      	ldr	r3, [r2, #100]	@ 0x64
20000500:	ea36 0303 	bics.w	r3, r6, r3
20000504:	d1fb      	bne.n	200004fe <dcd_rp2040_irq+0x166>
20000506:	f44f 5240 	mov.w	r2, #12288	@ 0x3000
2000050a:	2100      	movs	r1, #0
2000050c:	9001      	str	r0, [sp, #4]
2000050e:	f000 facb 	bl	20000aa8 <_hw_endpoint_buffer_control_update32>
20000512:	9801      	ldr	r0, [sp, #4]
20000514:	f000 fac2 	bl	20000a9c <hw_endpoint_reset_transfer>
20000518:	4b54      	ldr	r3, [pc, #336]	@ (2000066c <dcd_rp2040_irq+0x2d4>)
2000051a:	9801      	ldr	r0, [sp, #4]
2000051c:	665e      	str	r6, [r3, #100]	@ 0x64
2000051e:	661e      	str	r6, [r3, #96]	@ 0x60
20000520:	e7c3      	b.n	200004aa <dcd_rp2040_irq+0x112>
20000522:	f44f 63a0 	mov.w	r3, #1280	@ 0x500
20000526:	2101      	movs	r1, #1
20000528:	a803      	add	r0, sp, #12
2000052a:	f8ad 300c 	strh.w	r3, [sp, #12]
2000052e:	f000 fb31 	bl	20000b94 <dcd_event_handler>
20000532:	f44f 6200 	mov.w	r2, #2048	@ 0x800
20000536:	4b4d      	ldr	r3, [pc, #308]	@ (2000066c <dcd_rp2040_irq+0x2d4>)
20000538:	f445 4500 	orr.w	r5, r5, #32768	@ 0x8000
2000053c:	651a      	str	r2, [r3, #80]	@ 0x50
2000053e:	e7d2      	b.n	200004e6 <dcd_rp2040_irq+0x14e>
20000540:	f44f 6380 	mov.w	r3, #1024	@ 0x400
20000544:	2101      	movs	r1, #1
20000546:	a803      	add	r0, sp, #12
20000548:	f8ad 300c 	strh.w	r3, [sp, #12]
2000054c:	f000 fb22 	bl	20000b94 <dcd_event_handler>
20000550:	2210      	movs	r2, #16
20000552:	4b46      	ldr	r3, [pc, #280]	@ (2000066c <dcd_rp2040_irq+0x2d4>)
20000554:	f445 4580 	orr.w	r5, r5, #16384	@ 0x4000
20000558:	651a      	str	r2, [r3, #80]	@ 0x50
2000055a:	e7c2      	b.n	200004e2 <dcd_rp2040_irq+0x14a>
2000055c:	2600      	movs	r6, #0
2000055e:	4b3e      	ldr	r3, [pc, #248]	@ (20000658 <dcd_rp2040_irq+0x2c0>)
20000560:	f445 5580 	orr.w	r5, r5, #4096	@ 0x1000
20000564:	601e      	str	r6, [r3, #0]
20000566:	f7ff fe9f 	bl	200002a8 <reset_non_control_endpoints>
2000056a:	f44f 7380 	mov.w	r3, #256	@ 0x100
2000056e:	2101      	movs	r1, #1
20000570:	a803      	add	r0, sp, #12
20000572:	f8ad 300c 	strh.w	r3, [sp, #12]
20000576:	f88d 6010 	strb.w	r6, [sp, #16]
2000057a:	f000 fb0b 	bl	20000b94 <dcd_event_handler>
2000057e:	f44f 2200 	mov.w	r2, #524288	@ 0x80000
20000582:	4b3a      	ldr	r3, [pc, #232]	@ (2000066c <dcd_rp2040_irq+0x2d4>)
20000584:	651a      	str	r2, [r3, #80]	@ 0x50
20000586:	e7aa      	b.n	200004de <dcd_rp2040_irq+0x146>
20000588:	f893 503a 	ldrb.w	r5, [r3, #58]	@ 0x3a
2000058c:	2d00      	cmp	r5, #0
2000058e:	f43f af16 	beq.w	200003be <dcd_rp2040_irq+0x26>
20000592:	f893 203c 	ldrb.w	r2, [r3, #60]	@ 0x3c
20000596:	2a00      	cmp	r2, #0
20000598:	f43f af11 	beq.w	200003be <dcd_rp2040_irq+0x26>
2000059c:	2200      	movs	r2, #0
2000059e:	f103 0020 	add.w	r0, r3, #32
200005a2:	f883 203c 	strb.w	r2, [r3, #60]	@ 0x3c
200005a6:	f000 faa3 	bl	20000af0 <hw_endpoint_start_next_buffer>
200005aa:	4b2d      	ldr	r3, [pc, #180]	@ (20000660 <dcd_rp2040_irq+0x2c8>)
200005ac:	e707      	b.n	200003be <dcd_rp2040_irq+0x26>
200005ae:	f893 637a 	ldrb.w	r6, [r3, #890]	@ 0x37a
200005b2:	2e00      	cmp	r6, #0
200005b4:	f43f af44 	beq.w	20000440 <dcd_rp2040_irq+0xa8>
200005b8:	f893 237c 	ldrb.w	r2, [r3, #892]	@ 0x37c
200005bc:	2a00      	cmp	r2, #0
200005be:	f040 8141 	bne.w	20000844 <dcd_rp2040_irq+0x4ac>
200005c2:	f893 23bb 	ldrb.w	r2, [r3, #955]	@ 0x3bb
200005c6:	2a02      	cmp	r2, #2
200005c8:	d123      	bne.n	20000612 <dcd_rp2040_irq+0x27a>
200005ca:	f893 23ba 	ldrb.w	r2, [r3, #954]	@ 0x3ba
200005ce:	b9da      	cbnz	r2, 20000608 <dcd_rp2040_irq+0x270>
200005d0:	f893 23fb 	ldrb.w	r2, [r3, #1019]	@ 0x3fb
200005d4:	2a02      	cmp	r2, #2
200005d6:	f47f af46 	bne.w	20000466 <dcd_rp2040_irq+0xce>
200005da:	4635      	mov	r5, r6
200005dc:	f893 23fa 	ldrb.w	r2, [r3, #1018]	@ 0x3fa
200005e0:	2a00      	cmp	r2, #0
200005e2:	f43f af37 	beq.w	20000454 <dcd_rp2040_irq+0xbc>
200005e6:	f893 23fc 	ldrb.w	r2, [r3, #1020]	@ 0x3fc
200005ea:	2a00      	cmp	r2, #0
200005ec:	f43f af3b 	beq.w	20000466 <dcd_rp2040_irq+0xce>
200005f0:	2200      	movs	r2, #0
200005f2:	4822      	ldr	r0, [pc, #136]	@ (2000067c <dcd_rp2040_irq+0x2e4>)
200005f4:	f883 23fc 	strb.w	r2, [r3, #1020]	@ 0x3fc
200005f8:	f000 fa7a 	bl	20000af0 <hw_endpoint_start_next_buffer>
200005fc:	e733      	b.n	20000466 <dcd_rp2040_irq+0xce>
200005fe:	f893 23ba 	ldrb.w	r2, [r3, #954]	@ 0x3ba
20000602:	2a00      	cmp	r2, #0
20000604:	f43f af21 	beq.w	2000044a <dcd_rp2040_irq+0xb2>
20000608:	f893 23bc 	ldrb.w	r2, [r3, #956]	@ 0x3bc
2000060c:	2a00      	cmp	r2, #0
2000060e:	f040 80a5 	bne.w	2000075c <dcd_rp2040_irq+0x3c4>
20000612:	f893 23fb 	ldrb.w	r2, [r3, #1019]	@ 0x3fb
20000616:	2a02      	cmp	r2, #2
20000618:	f47f af25 	bne.w	20000466 <dcd_rp2040_irq+0xce>
2000061c:	f893 23fa 	ldrb.w	r2, [r3, #1018]	@ 0x3fa
20000620:	2a00      	cmp	r2, #0
20000622:	d1e0      	bne.n	200005e6 <dcd_rp2040_irq+0x24e>
20000624:	e71f      	b.n	20000466 <dcd_rp2040_irq+0xce>
20000626:	f893 633a 	ldrb.w	r6, [r3, #826]	@ 0x33a
2000062a:	2e00      	cmp	r6, #0
2000062c:	f43f af03 	beq.w	20000436 <dcd_rp2040_irq+0x9e>
20000630:	f893 233c 	ldrb.w	r2, [r3, #828]	@ 0x33c
20000634:	2a00      	cmp	r2, #0
20000636:	f040 80fc 	bne.w	20000832 <dcd_rp2040_irq+0x49a>
2000063a:	4635      	mov	r5, r6
2000063c:	e6fb      	b.n	20000436 <dcd_rp2040_irq+0x9e>
2000063e:	f893 62fa 	ldrb.w	r6, [r3, #762]	@ 0x2fa
20000642:	2e00      	cmp	r6, #0
20000644:	f43f aef2 	beq.w	2000042c <dcd_rp2040_irq+0x94>
20000648:	f893 22fc 	ldrb.w	r2, [r3, #764]	@ 0x2fc
2000064c:	2a00      	cmp	r2, #0
2000064e:	f040 80e7 	bne.w	20000820 <dcd_rp2040_irq+0x488>
20000652:	4635      	mov	r5, r6
20000654:	e6ea      	b.n	2000042c <dcd_rp2040_irq+0x94>
20000656:	bf00      	nop
20000658:	50110000 	.word	0x50110000
2000065c:	400b0000 	.word	0x400b0000
20000660:	20002210 	.word	0x20002210
20000664:	20002208 	.word	0x20002208
20000668:	200026b5 	.word	0x200026b5
2000066c:	50113000 	.word	0x50113000
20000670:	00020010 	.word	0x00020010
20000674:	50100000 	.word	0x50100000
20000678:	50112000 	.word	0x50112000
2000067c:	200025f0 	.word	0x200025f0
20000680:	f893 62ba 	ldrb.w	r6, [r3, #698]	@ 0x2ba
20000684:	2e00      	cmp	r6, #0
20000686:	f43f aecc 	beq.w	20000422 <dcd_rp2040_irq+0x8a>
2000068a:	f893 22bc 	ldrb.w	r2, [r3, #700]	@ 0x2bc
2000068e:	2a00      	cmp	r2, #0
20000690:	f040 80bd 	bne.w	2000080e <dcd_rp2040_irq+0x476>
20000694:	4635      	mov	r5, r6
20000696:	e6c4      	b.n	20000422 <dcd_rp2040_irq+0x8a>
20000698:	f893 627a 	ldrb.w	r6, [r3, #634]	@ 0x27a
2000069c:	2e00      	cmp	r6, #0
2000069e:	f43f aebb 	beq.w	20000418 <dcd_rp2040_irq+0x80>
200006a2:	f893 227c 	ldrb.w	r2, [r3, #636]	@ 0x27c
200006a6:	2a00      	cmp	r2, #0
200006a8:	f040 80a8 	bne.w	200007fc <dcd_rp2040_irq+0x464>
200006ac:	4635      	mov	r5, r6
200006ae:	e6b3      	b.n	20000418 <dcd_rp2040_irq+0x80>
200006b0:	f893 623a 	ldrb.w	r6, [r3, #570]	@ 0x23a
200006b4:	2e00      	cmp	r6, #0
200006b6:	f43f aeaa 	beq.w	2000040e <dcd_rp2040_irq+0x76>
200006ba:	f893 223c 	ldrb.w	r2, [r3, #572]	@ 0x23c
200006be:	2a00      	cmp	r2, #0
200006c0:	f040 8093 	bne.w	200007ea <dcd_rp2040_irq+0x452>
200006c4:	4635      	mov	r5, r6
200006c6:	e6a2      	b.n	2000040e <dcd_rp2040_irq+0x76>
200006c8:	f893 61fa 	ldrb.w	r6, [r3, #506]	@ 0x1fa
200006cc:	2e00      	cmp	r6, #0
200006ce:	f43f ae99 	beq.w	20000404 <dcd_rp2040_irq+0x6c>
200006d2:	f893 21fc 	ldrb.w	r2, [r3, #508]	@ 0x1fc
200006d6:	2a00      	cmp	r2, #0
200006d8:	d17e      	bne.n	200007d8 <dcd_rp2040_irq+0x440>
200006da:	4635      	mov	r5, r6
200006dc:	e692      	b.n	20000404 <dcd_rp2040_irq+0x6c>
200006de:	f893 61ba 	ldrb.w	r6, [r3, #442]	@ 0x1ba
200006e2:	2e00      	cmp	r6, #0
200006e4:	f43f ae89 	beq.w	200003fa <dcd_rp2040_irq+0x62>
200006e8:	f893 21bc 	ldrb.w	r2, [r3, #444]	@ 0x1bc
200006ec:	2a00      	cmp	r2, #0
200006ee:	d16a      	bne.n	200007c6 <dcd_rp2040_irq+0x42e>
200006f0:	4635      	mov	r5, r6
200006f2:	e682      	b.n	200003fa <dcd_rp2040_irq+0x62>
200006f4:	f893 617a 	ldrb.w	r6, [r3, #378]	@ 0x17a
200006f8:	2e00      	cmp	r6, #0
200006fa:	f43f ae79 	beq.w	200003f0 <dcd_rp2040_irq+0x58>
200006fe:	f893 217c 	ldrb.w	r2, [r3, #380]	@ 0x17c
20000702:	2a00      	cmp	r2, #0
20000704:	d156      	bne.n	200007b4 <dcd_rp2040_irq+0x41c>
20000706:	4635      	mov	r5, r6
20000708:	e672      	b.n	200003f0 <dcd_rp2040_irq+0x58>
2000070a:	f893 613a 	ldrb.w	r6, [r3, #314]	@ 0x13a
2000070e:	2e00      	cmp	r6, #0
20000710:	f43f ae69 	beq.w	200003e6 <dcd_rp2040_irq+0x4e>
20000714:	f893 213c 	ldrb.w	r2, [r3, #316]	@ 0x13c
20000718:	2a00      	cmp	r2, #0
2000071a:	d142      	bne.n	200007a2 <dcd_rp2040_irq+0x40a>
2000071c:	4635      	mov	r5, r6
2000071e:	e662      	b.n	200003e6 <dcd_rp2040_irq+0x4e>
20000720:	f893 60fa 	ldrb.w	r6, [r3, #250]	@ 0xfa
20000724:	2e00      	cmp	r6, #0
20000726:	f43f ae59 	beq.w	200003dc <dcd_rp2040_irq+0x44>
2000072a:	f893 20fc 	ldrb.w	r2, [r3, #252]	@ 0xfc
2000072e:	bb7a      	cbnz	r2, 20000790 <dcd_rp2040_irq+0x3f8>
20000730:	4635      	mov	r5, r6
20000732:	e653      	b.n	200003dc <dcd_rp2040_irq+0x44>
20000734:	f893 60ba 	ldrb.w	r6, [r3, #186]	@ 0xba
20000738:	2e00      	cmp	r6, #0
2000073a:	f43f ae4a 	beq.w	200003d2 <dcd_rp2040_irq+0x3a>
2000073e:	f893 20bc 	ldrb.w	r2, [r3, #188]	@ 0xbc
20000742:	b9e2      	cbnz	r2, 2000077e <dcd_rp2040_irq+0x3e6>
20000744:	4635      	mov	r5, r6
20000746:	e644      	b.n	200003d2 <dcd_rp2040_irq+0x3a>
20000748:	f893 607a 	ldrb.w	r6, [r3, #122]	@ 0x7a
2000074c:	2e00      	cmp	r6, #0
2000074e:	f43f ae3b 	beq.w	200003c8 <dcd_rp2040_irq+0x30>
20000752:	f893 207c 	ldrb.w	r2, [r3, #124]	@ 0x7c
20000756:	b94a      	cbnz	r2, 2000076c <dcd_rp2040_irq+0x3d4>
20000758:	4635      	mov	r5, r6
2000075a:	e635      	b.n	200003c8 <dcd_rp2040_irq+0x30>
2000075c:	2200      	movs	r2, #0
2000075e:	4842      	ldr	r0, [pc, #264]	@ (20000868 <dcd_rp2040_irq+0x4d0>)
20000760:	f883 23bc 	strb.w	r2, [r3, #956]	@ 0x3bc
20000764:	f000 f9c4 	bl	20000af0 <hw_endpoint_start_next_buffer>
20000768:	4b40      	ldr	r3, [pc, #256]	@ (2000086c <dcd_rp2040_irq+0x4d4>)
2000076a:	e752      	b.n	20000612 <dcd_rp2040_irq+0x27a>
2000076c:	2200      	movs	r2, #0
2000076e:	4840      	ldr	r0, [pc, #256]	@ (20000870 <dcd_rp2040_irq+0x4d8>)
20000770:	f883 207c 	strb.w	r2, [r3, #124]	@ 0x7c
20000774:	4635      	mov	r5, r6
20000776:	f000 f9bb 	bl	20000af0 <hw_endpoint_start_next_buffer>
2000077a:	4b3c      	ldr	r3, [pc, #240]	@ (2000086c <dcd_rp2040_irq+0x4d4>)
2000077c:	e624      	b.n	200003c8 <dcd_rp2040_irq+0x30>
2000077e:	2200      	movs	r2, #0
20000780:	483c      	ldr	r0, [pc, #240]	@ (20000874 <dcd_rp2040_irq+0x4dc>)
20000782:	f883 20bc 	strb.w	r2, [r3, #188]	@ 0xbc
20000786:	4635      	mov	r5, r6
20000788:	f000 f9b2 	bl	20000af0 <hw_endpoint_start_next_buffer>
2000078c:	4b37      	ldr	r3, [pc, #220]	@ (2000086c <dcd_rp2040_irq+0x4d4>)
2000078e:	e620      	b.n	200003d2 <dcd_rp2040_irq+0x3a>
20000790:	2200      	movs	r2, #0
20000792:	4839      	ldr	r0, [pc, #228]	@ (20000878 <dcd_rp2040_irq+0x4e0>)
20000794:	f883 20fc 	strb.w	r2, [r3, #252]	@ 0xfc
20000798:	4635      	mov	r5, r6
2000079a:	f000 f9a9 	bl	20000af0 <hw_endpoint_start_next_buffer>
2000079e:	4b33      	ldr	r3, [pc, #204]	@ (2000086c <dcd_rp2040_irq+0x4d4>)
200007a0:	e61c      	b.n	200003dc <dcd_rp2040_irq+0x44>
200007a2:	2200      	movs	r2, #0
200007a4:	4835      	ldr	r0, [pc, #212]	@ (2000087c <dcd_rp2040_irq+0x4e4>)
200007a6:	f883 213c 	strb.w	r2, [r3, #316]	@ 0x13c
200007aa:	4635      	mov	r5, r6
200007ac:	f000 f9a0 	bl	20000af0 <hw_endpoint_start_next_buffer>
200007b0:	4b2e      	ldr	r3, [pc, #184]	@ (2000086c <dcd_rp2040_irq+0x4d4>)
200007b2:	e618      	b.n	200003e6 <dcd_rp2040_irq+0x4e>
200007b4:	2200      	movs	r2, #0
200007b6:	4832      	ldr	r0, [pc, #200]	@ (20000880 <dcd_rp2040_irq+0x4e8>)
200007b8:	f883 217c 	strb.w	r2, [r3, #380]	@ 0x17c
200007bc:	4635      	mov	r5, r6
200007be:	f000 f997 	bl	20000af0 <hw_endpoint_start_next_buffer>
200007c2:	4b2a      	ldr	r3, [pc, #168]	@ (2000086c <dcd_rp2040_irq+0x4d4>)
200007c4:	e614      	b.n	200003f0 <dcd_rp2040_irq+0x58>
200007c6:	2200      	movs	r2, #0
200007c8:	482e      	ldr	r0, [pc, #184]	@ (20000884 <dcd_rp2040_irq+0x4ec>)
200007ca:	f883 21bc 	strb.w	r2, [r3, #444]	@ 0x1bc
200007ce:	4635      	mov	r5, r6
200007d0:	f000 f98e 	bl	20000af0 <hw_endpoint_start_next_buffer>
200007d4:	4b25      	ldr	r3, [pc, #148]	@ (2000086c <dcd_rp2040_irq+0x4d4>)
200007d6:	e610      	b.n	200003fa <dcd_rp2040_irq+0x62>
200007d8:	2200      	movs	r2, #0
200007da:	482b      	ldr	r0, [pc, #172]	@ (20000888 <dcd_rp2040_irq+0x4f0>)
200007dc:	f883 21fc 	strb.w	r2, [r3, #508]	@ 0x1fc
200007e0:	4635      	mov	r5, r6
200007e2:	f000 f985 	bl	20000af0 <hw_endpoint_start_next_buffer>
200007e6:	4b21      	ldr	r3, [pc, #132]	@ (2000086c <dcd_rp2040_irq+0x4d4>)
200007e8:	e60c      	b.n	20000404 <dcd_rp2040_irq+0x6c>
200007ea:	2200      	movs	r2, #0
200007ec:	4827      	ldr	r0, [pc, #156]	@ (2000088c <dcd_rp2040_irq+0x4f4>)
200007ee:	f883 223c 	strb.w	r2, [r3, #572]	@ 0x23c
200007f2:	4635      	mov	r5, r6
200007f4:	f000 f97c 	bl	20000af0 <hw_endpoint_start_next_buffer>
200007f8:	4b1c      	ldr	r3, [pc, #112]	@ (2000086c <dcd_rp2040_irq+0x4d4>)
200007fa:	e608      	b.n	2000040e <dcd_rp2040_irq+0x76>
200007fc:	2200      	movs	r2, #0
200007fe:	4824      	ldr	r0, [pc, #144]	@ (20000890 <dcd_rp2040_irq+0x4f8>)
20000800:	f883 227c 	strb.w	r2, [r3, #636]	@ 0x27c
20000804:	4635      	mov	r5, r6
20000806:	f000 f973 	bl	20000af0 <hw_endpoint_start_next_buffer>
2000080a:	4b18      	ldr	r3, [pc, #96]	@ (2000086c <dcd_rp2040_irq+0x4d4>)
2000080c:	e604      	b.n	20000418 <dcd_rp2040_irq+0x80>
2000080e:	2200      	movs	r2, #0
20000810:	4820      	ldr	r0, [pc, #128]	@ (20000894 <dcd_rp2040_irq+0x4fc>)
20000812:	f883 22bc 	strb.w	r2, [r3, #700]	@ 0x2bc
20000816:	4635      	mov	r5, r6
20000818:	f000 f96a 	bl	20000af0 <hw_endpoint_start_next_buffer>
2000081c:	4b13      	ldr	r3, [pc, #76]	@ (2000086c <dcd_rp2040_irq+0x4d4>)
2000081e:	e600      	b.n	20000422 <dcd_rp2040_irq+0x8a>
20000820:	2200      	movs	r2, #0
20000822:	481d      	ldr	r0, [pc, #116]	@ (20000898 <dcd_rp2040_irq+0x500>)
20000824:	f883 22fc 	strb.w	r2, [r3, #764]	@ 0x2fc
20000828:	4635      	mov	r5, r6
2000082a:	f000 f961 	bl	20000af0 <hw_endpoint_start_next_buffer>
2000082e:	4b0f      	ldr	r3, [pc, #60]	@ (2000086c <dcd_rp2040_irq+0x4d4>)
20000830:	e5fc      	b.n	2000042c <dcd_rp2040_irq+0x94>
20000832:	2200      	movs	r2, #0
20000834:	4819      	ldr	r0, [pc, #100]	@ (2000089c <dcd_rp2040_irq+0x504>)
20000836:	f883 233c 	strb.w	r2, [r3, #828]	@ 0x33c
2000083a:	4635      	mov	r5, r6
2000083c:	f000 f958 	bl	20000af0 <hw_endpoint_start_next_buffer>
20000840:	4b0a      	ldr	r3, [pc, #40]	@ (2000086c <dcd_rp2040_irq+0x4d4>)
20000842:	e5f8      	b.n	20000436 <dcd_rp2040_irq+0x9e>
20000844:	2200      	movs	r2, #0
20000846:	4816      	ldr	r0, [pc, #88]	@ (200008a0 <dcd_rp2040_irq+0x508>)
20000848:	f883 237c 	strb.w	r2, [r3, #892]	@ 0x37c
2000084c:	f000 f950 	bl	20000af0 <hw_endpoint_start_next_buffer>
20000850:	4b06      	ldr	r3, [pc, #24]	@ (2000086c <dcd_rp2040_irq+0x4d4>)
20000852:	f893 23bb 	ldrb.w	r2, [r3, #955]	@ 0x3bb
20000856:	2a02      	cmp	r2, #2
20000858:	f47f aedb 	bne.w	20000612 <dcd_rp2040_irq+0x27a>
2000085c:	e6b5      	b.n	200005ca <dcd_rp2040_irq+0x232>
2000085e:	4811      	ldr	r0, [pc, #68]	@ (200008a4 <dcd_rp2040_irq+0x50c>)
20000860:	ea85 0104 	eor.w	r1, r5, r4
20000864:	f000 fe7c 	bl	20001560 <__panic_veneer>
20000868:	200025b0 	.word	0x200025b0
2000086c:	20002210 	.word	0x20002210
20000870:	20002270 	.word	0x20002270
20000874:	200022b0 	.word	0x200022b0
20000878:	200022f0 	.word	0x200022f0
2000087c:	20002330 	.word	0x20002330
20000880:	20002370 	.word	0x20002370
20000884:	200023b0 	.word	0x200023b0
20000888:	200023f0 	.word	0x200023f0
2000088c:	20002430 	.word	0x20002430
20000890:	20002470 	.word	0x20002470
20000894:	200024b0 	.word	0x200024b0
20000898:	200024f0 	.word	0x200024f0
2000089c:	20002530 	.word	0x20002530
200008a0:	20002570 	.word	0x20002570
200008a4:	10009a30 	.word	0x10009a30

200008a8 <prepare_ep_buffer>:
200008a8:	e92d 43f0 	stmdb	sp!, {r4, r5, r6, r7, r8, r9, lr}
200008ac:	8a82      	ldrh	r2, [r0, #20]
200008ae:	f8b0 e018 	ldrh.w	lr, [r0, #24]
200008b2:	4603      	mov	r3, r0
200008b4:	4596      	cmp	lr, r2
200008b6:	78c0      	ldrb	r0, [r0, #3]
200008b8:	bf28      	it	cs
200008ba:	4696      	movcs	lr, r2
200008bc:	1e04      	subs	r4, r0, #0
200008be:	bf18      	it	ne
200008c0:	2401      	movne	r4, #1
200008c2:	f080 0001 	eor.w	r0, r0, #1
200008c6:	460d      	mov	r5, r1
200008c8:	eba2 020e 	sub.w	r2, r2, lr
200008cc:	7859      	ldrb	r1, [r3, #1]
200008ce:	70d8      	strb	r0, [r3, #3]
200008d0:	b292      	uxth	r2, r2
200008d2:	f44e 6080 	orr.w	r0, lr, #1024	@ 0x400
200008d6:	829a      	strh	r2, [r3, #20]
200008d8:	ea40 3044 	orr.w	r0, r0, r4, lsl #13
200008dc:	bba1      	cbnz	r1, 20000948 <prepare_ep_buffer+0xa0>
200008de:	6919      	ldr	r1, [r3, #16]
200008e0:	f1be 0f00 	cmp.w	lr, #0
200008e4:	d02c      	beq.n	20000940 <prepare_ep_buffer+0x98>
200008e6:	f10e 34ff 	add.w	r4, lr, #4294967295	@ 0xffffffff
200008ea:	68da      	ldr	r2, [r3, #12]
200008ec:	2c05      	cmp	r4, #5
200008ee:	46a1      	mov	r9, r4
200008f0:	eb02 1885 	add.w	r8, r2, r5, lsl #6
200008f4:	d92f      	bls.n	20000956 <prepare_ep_buffer+0xae>
200008f6:	eba8 0401 	sub.w	r4, r8, r1
200008fa:	3c01      	subs	r4, #1
200008fc:	2c02      	cmp	r4, #2
200008fe:	46c4      	mov	ip, r8
20000900:	460a      	mov	r2, r1
20000902:	d928      	bls.n	20000956 <prepare_ep_buffer+0xae>
20000904:	ea4f 079e 	mov.w	r7, lr, lsr #2
20000908:	eb01 0687 	add.w	r6, r1, r7, lsl #2
2000090c:	f852 4b04 	ldr.w	r4, [r2], #4
20000910:	4296      	cmp	r6, r2
20000912:	f84c 4b04 	str.w	r4, [ip], #4
20000916:	d1f9      	bne.n	2000090c <prepare_ep_buffer+0x64>
20000918:	ebbe 0f87 	cmp.w	lr, r7, lsl #2
2000091c:	d00e      	beq.n	2000093c <prepare_ep_buffer+0x94>
2000091e:	f811 2027 	ldrb.w	r2, [r1, r7, lsl #2]
20000922:	ebb9 0187 	subs.w	r1, r9, r7, lsl #2
20000926:	f808 2027 	strb.w	r2, [r8, r7, lsl #2]
2000092a:	eb08 0287 	add.w	r2, r8, r7, lsl #2
2000092e:	d005      	beq.n	2000093c <prepare_ep_buffer+0x94>
20000930:	7874      	ldrb	r4, [r6, #1]
20000932:	2901      	cmp	r1, #1
20000934:	7054      	strb	r4, [r2, #1]
20000936:	d001      	beq.n	2000093c <prepare_ep_buffer+0x94>
20000938:	78b1      	ldrb	r1, [r6, #2]
2000093a:	7091      	strb	r1, [r2, #2]
2000093c:	6919      	ldr	r1, [r3, #16]
2000093e:	8a9a      	ldrh	r2, [r3, #20]
20000940:	4471      	add	r1, lr
20000942:	6119      	str	r1, [r3, #16]
20000944:	f440 4000 	orr.w	r0, r0, #32768	@ 0x8000
20000948:	b90a      	cbnz	r2, 2000094e <prepare_ep_buffer+0xa6>
2000094a:	f440 4080 	orr.w	r0, r0, #16384	@ 0x4000
2000094e:	b105      	cbz	r5, 20000952 <prepare_ep_buffer+0xaa>
20000950:	0400      	lsls	r0, r0, #16
20000952:	e8bd 83f0 	ldmia.w	sp!, {r4, r5, r6, r7, r8, r9, pc}
20000956:	f108 32ff 	add.w	r2, r8, #4294967295	@ 0xffffffff
2000095a:	eb01 060e 	add.w	r6, r1, lr
2000095e:	f811 4b01 	ldrb.w	r4, [r1], #1
20000962:	42b1      	cmp	r1, r6
20000964:	f802 4f01 	strb.w	r4, [r2, #1]!
20000968:	d1f9      	bne.n	2000095e <prepare_ep_buffer+0xb6>
2000096a:	e7e7      	b.n	2000093c <prepare_ep_buffer+0x94>

2000096c <sync_ep_buffer>:
2000096c:	6883      	ldr	r3, [r0, #8]
2000096e:	e92d 41f0 	stmdb	sp!, {r4, r5, r6, r7, r8, lr}
20000972:	4605      	mov	r5, r0
20000974:	6818      	ldr	r0, [r3, #0]
20000976:	b101      	cbz	r1, 2000097a <sync_ep_buffer+0xe>
20000978:	0c00      	lsrs	r0, r0, #16
2000097a:	786a      	ldrb	r2, [r5, #1]
2000097c:	f3c0 0009 	ubfx	r0, r0, #0, #10
20000980:	b94a      	cbnz	r2, 20000996 <sync_ep_buffer+0x2a>
20000982:	8aeb      	ldrh	r3, [r5, #22]
20000984:	4403      	add	r3, r0
20000986:	82eb      	strh	r3, [r5, #22]
20000988:	8b2b      	ldrh	r3, [r5, #24]
2000098a:	4283      	cmp	r3, r0
2000098c:	bf84      	itt	hi
2000098e:	2300      	movhi	r3, #0
20000990:	82ab      	strhhi	r3, [r5, #20]
20000992:	e8bd 81f0 	ldmia.w	sp!, {r4, r5, r6, r7, r8, pc}
20000996:	f8d5 c010 	ldr.w	ip, [r5, #16]
2000099a:	b388      	cbz	r0, 20000a00 <sync_ep_buffer+0x94>
2000099c:	1e42      	subs	r2, r0, #1
2000099e:	68eb      	ldr	r3, [r5, #12]
200009a0:	2a05      	cmp	r2, #5
200009a2:	4616      	mov	r6, r2
200009a4:	eb03 1e81 	add.w	lr, r3, r1, lsl #6
200009a8:	d931      	bls.n	20000a0e <sync_ep_buffer+0xa2>
200009aa:	0189      	lsls	r1, r1, #6
200009ac:	1c4c      	adds	r4, r1, #1
200009ae:	441c      	add	r4, r3
200009b0:	ebac 0404 	sub.w	r4, ip, r4
200009b4:	2c02      	cmp	r4, #2
200009b6:	4662      	mov	r2, ip
200009b8:	d929      	bls.n	20000a0e <sync_ep_buffer+0xa2>
200009ba:	f400 717f 	and.w	r1, r0, #1020	@ 0x3fc
200009be:	4673      	mov	r3, lr
200009c0:	460f      	mov	r7, r1
200009c2:	ea4f 0890 	mov.w	r8, r0, lsr #2
200009c6:	18cc      	adds	r4, r1, r3
200009c8:	f853 1b04 	ldr.w	r1, [r3], #4
200009cc:	429c      	cmp	r4, r3
200009ce:	f842 1b04 	str.w	r1, [r2], #4
200009d2:	d1f9      	bne.n	200009c8 <sync_ep_buffer+0x5c>
200009d4:	42b8      	cmp	r0, r7
200009d6:	d011      	beq.n	200009fc <sync_ep_buffer+0x90>
200009d8:	f81e 3028 	ldrb.w	r3, [lr, r8, lsl #2]
200009dc:	44be      	add	lr, r7
200009de:	f80c 3028 	strb.w	r3, [ip, r8, lsl #2]
200009e2:	1bf3      	subs	r3, r6, r7
200009e4:	44bc      	add	ip, r7
200009e6:	d009      	beq.n	200009fc <sync_ep_buffer+0x90>
200009e8:	f89e 2001 	ldrb.w	r2, [lr, #1]
200009ec:	2b01      	cmp	r3, #1
200009ee:	f88c 2001 	strb.w	r2, [ip, #1]
200009f2:	d003      	beq.n	200009fc <sync_ep_buffer+0x90>
200009f4:	f89e 3002 	ldrb.w	r3, [lr, #2]
200009f8:	f88c 3002 	strb.w	r3, [ip, #2]
200009fc:	f8d5 c010 	ldr.w	ip, [r5, #16]
20000a00:	8aea      	ldrh	r2, [r5, #22]
20000a02:	eb0c 0300 	add.w	r3, ip, r0
20000a06:	4402      	add	r2, r0
20000a08:	82ea      	strh	r2, [r5, #22]
20000a0a:	612b      	str	r3, [r5, #16]
20000a0c:	e7bc      	b.n	20000988 <sync_ep_buffer+0x1c>
20000a0e:	f10c 3cff 	add.w	ip, ip, #4294967295	@ 0xffffffff
20000a12:	eb0e 0200 	add.w	r2, lr, r0
20000a16:	f81e 3b01 	ldrb.w	r3, [lr], #1
20000a1a:	4572      	cmp	r2, lr
20000a1c:	f80c 3f01 	strb.w	r3, [ip, #1]!
20000a20:	d1f9      	bne.n	20000a16 <sync_ep_buffer+0xaa>
20000a22:	e7eb      	b.n	200009fc <sync_ep_buffer+0x90>

20000a24 <_hw_endpoint_xfer_sync>:
20000a24:	b510      	push	{r4, lr}
20000a26:	4604      	mov	r4, r0
20000a28:	6883      	ldr	r3, [r0, #8]
20000a2a:	2100      	movs	r1, #0
20000a2c:	681b      	ldr	r3, [r3, #0]
20000a2e:	f7ff ff9d 	bl	2000096c <sync_ep_buffer>
20000a32:	6863      	ldr	r3, [r4, #4]
20000a34:	681b      	ldr	r3, [r3, #0]
20000a36:	005b      	lsls	r3, r3, #1
20000a38:	d502      	bpl.n	20000a40 <_hw_endpoint_xfer_sync+0x1c>
20000a3a:	8b23      	ldrh	r3, [r4, #24]
20000a3c:	4283      	cmp	r3, r0
20000a3e:	d000      	beq.n	20000a42 <_hw_endpoint_xfer_sync+0x1e>
20000a40:	bd10      	pop	{r4, pc}
20000a42:	4620      	mov	r0, r4
20000a44:	e8bd 4010 	ldmia.w	sp!, {r4, lr}
20000a48:	2101      	movs	r1, #1
20000a4a:	f7ff bf8f 	b.w	2000096c <sync_ep_buffer>
20000a4e:	bf00      	nop

20000a50 <e15_is_bulkin_ep>:
20000a50:	4b07      	ldr	r3, [pc, #28]	@ (20000a70 <e15_is_bulkin_ep+0x20>)
20000a52:	6c1b      	ldr	r3, [r3, #64]	@ 0x40
20000a54:	079b      	lsls	r3, r3, #30
20000a56:	d402      	bmi.n	20000a5e <e15_is_bulkin_ep+0xe>
20000a58:	7883      	ldrb	r3, [r0, #2]
20000a5a:	09db      	lsrs	r3, r3, #7
20000a5c:	d101      	bne.n	20000a62 <e15_is_bulkin_ep+0x12>
20000a5e:	2000      	movs	r0, #0
20000a60:	4770      	bx	lr
20000a62:	7ec0      	ldrb	r0, [r0, #27]
20000a64:	f1a0 0002 	sub.w	r0, r0, #2
20000a68:	fab0 f080 	clz	r0, r0
20000a6c:	0940      	lsrs	r0, r0, #5
20000a6e:	4770      	bx	lr
20000a70:	50110000 	.word	0x50110000

20000a74 <e15_is_critical_frame_period>:
20000a74:	b508      	push	{r3, lr}
20000a76:	f7ff ffeb 	bl	20000a50 <e15_is_bulkin_ep>
20000a7a:	b150      	cbz	r0, 20000a92 <e15_is_critical_frame_period+0x1e>
20000a7c:	4a05      	ldr	r2, [pc, #20]	@ (20000a94 <e15_is_critical_frame_period+0x20>)
20000a7e:	4b06      	ldr	r3, [pc, #24]	@ (20000a98 <e15_is_critical_frame_period+0x24>)
20000a80:	6a90      	ldr	r0, [r2, #40]	@ 0x28
20000a82:	681b      	ldr	r3, [r3, #0]
20000a84:	f5a0 7048 	sub.w	r0, r0, #800	@ 0x320
20000a88:	1ac0      	subs	r0, r0, r3
20000a8a:	28c6      	cmp	r0, #198	@ 0xc6
20000a8c:	bf8c      	ite	hi
20000a8e:	2000      	movhi	r0, #0
20000a90:	2001      	movls	r0, #1
20000a92:	bd08      	pop	{r3, pc}
20000a94:	400b0000 	.word	0x400b0000
20000a98:	20002208 	.word	0x20002208

20000a9c <hw_endpoint_reset_transfer>:
20000a9c:	2300      	movs	r3, #0
20000a9e:	e9c0 3304 	strd	r3, r3, [r0, #16]
20000aa2:	7683      	strb	r3, [r0, #26]
20000aa4:	4770      	bx	lr
20000aa6:	bf00      	nop

20000aa8 <_hw_endpoint_buffer_control_update32>:
20000aa8:	b508      	push	{r3, lr}
20000aaa:	6883      	ldr	r3, [r0, #8]
20000aac:	b119      	cbz	r1, 20000ab6 <_hw_endpoint_buffer_control_update32+0xe>
20000aae:	f8d3 c000 	ldr.w	ip, [r3]
20000ab2:	ea01 010c 	and.w	r1, r1, ip
20000ab6:	b18a      	cbz	r2, 20000adc <_hw_endpoint_buffer_control_update32+0x34>
20000ab8:	4311      	orrs	r1, r2
20000aba:	0552      	lsls	r2, r2, #21
20000abc:	d50e      	bpl.n	20000adc <_hw_endpoint_buffer_control_update32+0x34>
20000abe:	681a      	ldr	r2, [r3, #0]
20000ac0:	0552      	lsls	r2, r2, #21
20000ac2:	d40d      	bmi.n	20000ae0 <_hw_endpoint_buffer_control_update32+0x38>
20000ac4:	4a08      	ldr	r2, [pc, #32]	@ (20000ae8 <_hw_endpoint_buffer_control_update32+0x40>)
20000ac6:	f421 6c80 	bic.w	ip, r1, #1024	@ 0x400
20000aca:	f8c3 c000 	str.w	ip, [r3]
20000ace:	6c12      	ldr	r2, [r2, #64]	@ 0x40
20000ad0:	0792      	lsls	r2, r2, #30
20000ad2:	d403      	bmi.n	20000adc <_hw_endpoint_buffer_control_update32+0x34>
20000ad4:	230c      	movs	r3, #12
20000ad6:	3b03      	subs	r3, #3
20000ad8:	d2fd      	bcs.n	20000ad6 <_hw_endpoint_buffer_control_update32+0x2e>
20000ada:	6883      	ldr	r3, [r0, #8]
20000adc:	6019      	str	r1, [r3, #0]
20000ade:	bd08      	pop	{r3, pc}
20000ae0:	7881      	ldrb	r1, [r0, #2]
20000ae2:	4802      	ldr	r0, [pc, #8]	@ (20000aec <_hw_endpoint_buffer_control_update32+0x44>)
20000ae4:	f000 fd3c 	bl	20001560 <__panic_veneer>
20000ae8:	50110000 	.word	0x50110000
20000aec:	10009a44 	.word	0x10009a44

20000af0 <hw_endpoint_start_next_buffer>:
20000af0:	b530      	push	{r4, r5, lr}
20000af2:	6843      	ldr	r3, [r0, #4]
20000af4:	2100      	movs	r1, #0
20000af6:	b083      	sub	sp, #12
20000af8:	4605      	mov	r5, r0
20000afa:	681c      	ldr	r4, [r3, #0]
20000afc:	f7ff fed4 	bl	200008a8 <prepare_ep_buffer>
20000b00:	4b13      	ldr	r3, [pc, #76]	@ (20000b50 <hw_endpoint_start_next_buffer+0x60>)
20000b02:	f440 5280 	orr.w	r2, r0, #4096	@ 0x1000
20000b06:	6c19      	ldr	r1, [r3, #64]	@ 0x40
20000b08:	78ab      	ldrb	r3, [r5, #2]
20000b0a:	0788      	lsls	r0, r1, #30
20000b0c:	d40e      	bmi.n	20000b2c <hw_endpoint_start_next_buffer+0x3c>
20000b0e:	0619      	lsls	r1, r3, #24
20000b10:	d40e      	bmi.n	20000b30 <hw_endpoint_start_next_buffer+0x40>
20000b12:	f024 44a0 	bic.w	r4, r4, #1342177280	@ 0x50000000
20000b16:	f044 5400 	orr.w	r4, r4, #536870912	@ 0x20000000
20000b1a:	2100      	movs	r1, #0
20000b1c:	4628      	mov	r0, r5
20000b1e:	686b      	ldr	r3, [r5, #4]
20000b20:	601c      	str	r4, [r3, #0]
20000b22:	b003      	add	sp, #12
20000b24:	e8bd 4030 	ldmia.w	sp!, {r4, r5, lr}
20000b28:	f7ff bfbe 	b.w	20000aa8 <_hw_endpoint_buffer_control_update32>
20000b2c:	065b      	lsls	r3, r3, #25
20000b2e:	d1f0      	bne.n	20000b12 <hw_endpoint_start_next_buffer+0x22>
20000b30:	8aab      	ldrh	r3, [r5, #20]
20000b32:	2b00      	cmp	r3, #0
20000b34:	d0ed      	beq.n	20000b12 <hw_endpoint_start_next_buffer+0x22>
20000b36:	2101      	movs	r1, #1
20000b38:	4628      	mov	r0, r5
20000b3a:	9201      	str	r2, [sp, #4]
20000b3c:	f7ff feb4 	bl	200008a8 <prepare_ep_buffer>
20000b40:	9a01      	ldr	r2, [sp, #4]
20000b42:	f024 5400 	bic.w	r4, r4, #536870912	@ 0x20000000
20000b46:	4302      	orrs	r2, r0
20000b48:	f044 44a0 	orr.w	r4, r4, #1342177280	@ 0x50000000
20000b4c:	e7e5      	b.n	20000b1a <hw_endpoint_start_next_buffer+0x2a>
20000b4e:	bf00      	nop
20000b50:	50110000 	.word	0x50110000

20000b54 <hw_endpoint_xfer_continue>:
20000b54:	b538      	push	{r3, r4, r5, lr}
20000b56:	7e84      	ldrb	r4, [r0, #26]
20000b58:	4605      	mov	r5, r0
20000b5a:	b1a4      	cbz	r4, 20000b86 <hw_endpoint_xfer_continue+0x32>
20000b5c:	f7ff ff62 	bl	20000a24 <_hw_endpoint_xfer_sync>
20000b60:	8aab      	ldrh	r3, [r5, #20]
20000b62:	b90b      	cbnz	r3, 20000b68 <hw_endpoint_xfer_continue+0x14>
20000b64:	4620      	mov	r0, r4
20000b66:	bd38      	pop	{r3, r4, r5, pc}
20000b68:	4628      	mov	r0, r5
20000b6a:	f7ff ff83 	bl	20000a74 <e15_is_critical_frame_period>
20000b6e:	4604      	mov	r4, r0
20000b70:	b120      	cbz	r0, 20000b7c <hw_endpoint_xfer_continue+0x28>
20000b72:	2301      	movs	r3, #1
20000b74:	2400      	movs	r4, #0
20000b76:	772b      	strb	r3, [r5, #28]
20000b78:	4620      	mov	r0, r4
20000b7a:	bd38      	pop	{r3, r4, r5, pc}
20000b7c:	4628      	mov	r0, r5
20000b7e:	f7ff ffb7 	bl	20000af0 <hw_endpoint_start_next_buffer>
20000b82:	4620      	mov	r0, r4
20000b84:	bd38      	pop	{r3, r4, r5, pc}
20000b86:	7881      	ldrb	r1, [r0, #2]
20000b88:	4801      	ldr	r0, [pc, #4]	@ (20000b90 <hw_endpoint_xfer_continue+0x3c>)
20000b8a:	f000 fce9 	bl	20001560 <__panic_veneer>
20000b8e:	bf00      	nop
20000b90:	10009a64 	.word	0x10009a64

20000b94 <dcd_event_handler>:
20000b94:	b570      	push	{r4, r5, r6, lr}
20000b96:	7843      	ldrb	r3, [r0, #1]
20000b98:	4604      	mov	r4, r0
20000b9a:	3b02      	subs	r3, #2
20000b9c:	460e      	mov	r6, r1
20000b9e:	b086      	sub	sp, #24
20000ba0:	2b04      	cmp	r3, #4
20000ba2:	d813      	bhi.n	20000bcc <dcd_event_handler+0x38>
20000ba4:	e8df f003 	tbb	[pc, r3]
20000ba8:	72694903 	.word	0x72694903
20000bac:	44          	.byte	0x44
20000bad:	00          	.byte	0x00
20000bae:	2100      	movs	r1, #0
20000bb0:	4b78      	ldr	r3, [pc, #480]	@ (20000d94 <dcd_event_handler+0x200>)
20000bb2:	781a      	ldrb	r2, [r3, #0]
20000bb4:	f022 0201 	bic.w	r2, r2, #1
20000bb8:	701a      	strb	r2, [r3, #0]
20000bba:	781a      	ldrb	r2, [r3, #0]
20000bbc:	f022 0202 	bic.w	r2, r2, #2
20000bc0:	701a      	strb	r2, [r3, #0]
20000bc2:	7059      	strb	r1, [r3, #1]
20000bc4:	781a      	ldrb	r2, [r3, #0]
20000bc6:	f361 0282 	bfi	r2, r1, #2, #1
20000bca:	701a      	strb	r2, [r3, #0]
20000bcc:	4b72      	ldr	r3, [pc, #456]	@ (20000d98 <dcd_event_handler+0x204>)
20000bce:	681b      	ldr	r3, [r3, #0]
20000bd0:	695a      	ldr	r2, [r3, #20]
20000bd2:	f3ef 8010 	mrs	r0, PRIMASK
20000bd6:	b672      	cpsid	i
20000bd8:	e8d2 cfcf 	ldaexb	ip, [r2]
20000bdc:	2101      	movs	r1, #1
20000bde:	f1bc 0f00 	cmp.w	ip, #0
20000be2:	d1f9      	bne.n	20000bd8 <dcd_event_handler+0x44>
20000be4:	e8c2 1f4c 	strexb	ip, r1, [r2]
20000be8:	f1bc 0f00 	cmp.w	ip, #0
20000bec:	d1f4      	bne.n	20000bd8 <dcd_event_handler+0x44>
20000bee:	f3bf 8f5f 	dmb	sy
20000bf2:	4621      	mov	r1, r4
20000bf4:	6198      	str	r0, [r3, #24]
20000bf6:	4618      	mov	r0, r3
20000bf8:	9301      	str	r3, [sp, #4]
20000bfa:	f000 fcad 	bl	20001558 <__tu_fifo_write_veneer>
20000bfe:	9b01      	ldr	r3, [sp, #4]
20000c00:	2200      	movs	r2, #0
20000c02:	6959      	ldr	r1, [r3, #20]
20000c04:	e8c1 2f8f 	stlb	r2, [r1]
20000c08:	699b      	ldr	r3, [r3, #24]
20000c0a:	f383 8810 	msr	PRIMASK, r3
20000c0e:	b940      	cbnz	r0, 20000c22 <dcd_event_handler+0x8e>
20000c10:	f04f 23e0 	mov.w	r3, #3758153728	@ 0xe000e000
20000c14:	f8d3 3df0 	ldr.w	r3, [r3, #3568]	@ 0xdf0
20000c18:	07db      	lsls	r3, r3, #31
20000c1a:	d507      	bpl.n	20000c2c <dcd_event_handler+0x98>
20000c1c:	be00      	bkpt	0x0000
20000c1e:	b006      	add	sp, #24
20000c20:	bd70      	pop	{r4, r5, r6, pc}
20000c22:	4632      	mov	r2, r6
20000c24:	7861      	ldrb	r1, [r4, #1]
20000c26:	7820      	ldrb	r0, [r4, #0]
20000c28:	f000 fcaa 	bl	20001580 <__tud_event_hook_cb_veneer>
20000c2c:	b006      	add	sp, #24
20000c2e:	bd70      	pop	{r4, r5, r6, pc}
20000c30:	4a5a      	ldr	r2, [pc, #360]	@ (20000d9c <dcd_event_handler+0x208>)
20000c32:	7813      	ldrb	r3, [r2, #0]
20000c34:	3301      	adds	r3, #1
20000c36:	7013      	strb	r3, [r2, #0]
20000c38:	e7c8      	b.n	20000bcc <dcd_event_handler+0x38>
20000c3a:	2300      	movs	r3, #0
20000c3c:	4a58      	ldr	r2, [pc, #352]	@ (20000da0 <dcd_event_handler+0x20c>)
20000c3e:	7810      	ldrb	r0, [r2, #0]
20000c40:	461a      	mov	r2, r3
20000c42:	e013      	b.n	20000c6c <dcd_event_handler+0xd8>
20000c44:	4a57      	ldr	r2, [pc, #348]	@ (20000da4 <dcd_event_handler+0x210>)
20000c46:	6812      	ldr	r2, [r2, #0]
20000c48:	eb12 1243 	adds.w	r2, r2, r3, lsl #5
20000c4c:	d008      	beq.n	20000c60 <dcd_event_handler+0xcc>
20000c4e:	69d2      	ldr	r2, [r2, #28]
20000c50:	b132      	cbz	r2, 20000c60 <dcd_event_handler+0xcc>
20000c52:	7820      	ldrb	r0, [r4, #0]
20000c54:	6861      	ldr	r1, [r4, #4]
20000c56:	9301      	str	r3, [sp, #4]
20000c58:	4790      	blx	r2
20000c5a:	4b51      	ldr	r3, [pc, #324]	@ (20000da0 <dcd_event_handler+0x20c>)
20000c5c:	7818      	ldrb	r0, [r3, #0]
20000c5e:	9b01      	ldr	r3, [sp, #4]
20000c60:	3301      	adds	r3, #1
20000c62:	b2db      	uxtb	r3, r3
20000c64:	1c41      	adds	r1, r0, #1
20000c66:	4299      	cmp	r1, r3
20000c68:	461a      	mov	r2, r3
20000c6a:	db18      	blt.n	20000c9e <dcd_event_handler+0x10a>
20000c6c:	4298      	cmp	r0, r3
20000c6e:	d8e9      	bhi.n	20000c44 <dcd_event_handler+0xb0>
20000c70:	494d      	ldr	r1, [pc, #308]	@ (20000da8 <dcd_event_handler+0x214>)
20000c72:	1a12      	subs	r2, r2, r0
20000c74:	eb01 1242 	add.w	r2, r1, r2, lsl #5
20000c78:	e7e9      	b.n	20000c4e <dcd_event_handler+0xba>
20000c7a:	4b46      	ldr	r3, [pc, #280]	@ (20000d94 <dcd_event_handler+0x200>)
20000c7c:	781a      	ldrb	r2, [r3, #0]
20000c7e:	07d2      	lsls	r2, r2, #31
20000c80:	d5d4      	bpl.n	20000c2c <dcd_event_handler+0x98>
20000c82:	781a      	ldrb	r2, [r3, #0]
20000c84:	f042 0204 	orr.w	r2, r2, #4
20000c88:	701a      	strb	r2, [r3, #0]
20000c8a:	e79f      	b.n	20000bcc <dcd_event_handler+0x38>
20000c8c:	4b41      	ldr	r3, [pc, #260]	@ (20000d94 <dcd_event_handler+0x200>)
20000c8e:	781a      	ldrb	r2, [r3, #0]
20000c90:	07d5      	lsls	r5, r2, #31
20000c92:	d5cb      	bpl.n	20000c2c <dcd_event_handler+0x98>
20000c94:	781a      	ldrb	r2, [r3, #0]
20000c96:	f022 0204 	bic.w	r2, r2, #4
20000c9a:	701a      	strb	r2, [r3, #0]
20000c9c:	e796      	b.n	20000bcc <dcd_event_handler+0x38>
20000c9e:	4b3d      	ldr	r3, [pc, #244]	@ (20000d94 <dcd_event_handler+0x200>)
20000ca0:	781a      	ldrb	r2, [r3, #0]
20000ca2:	0750      	lsls	r0, r2, #29
20000ca4:	d433      	bmi.n	20000d0e <dcd_event_handler+0x17a>
20000ca6:	78db      	ldrb	r3, [r3, #3]
20000ca8:	07da      	lsls	r2, r3, #31
20000caa:	d5bf      	bpl.n	20000c2c <dcd_event_handler+0x98>
20000cac:	2203      	movs	r2, #3
20000cae:	4b3a      	ldr	r3, [pc, #232]	@ (20000d98 <dcd_event_handler+0x204>)
20000cb0:	7820      	ldrb	r0, [r4, #0]
20000cb2:	6861      	ldr	r1, [r4, #4]
20000cb4:	681b      	ldr	r3, [r3, #0]
20000cb6:	f88d 000c 	strb.w	r0, [sp, #12]
20000cba:	f88d 200d 	strb.w	r2, [sp, #13]
20000cbe:	695a      	ldr	r2, [r3, #20]
20000cc0:	9104      	str	r1, [sp, #16]
20000cc2:	f3ef 8110 	mrs	r1, PRIMASK
20000cc6:	b672      	cpsid	i
20000cc8:	e8d2 4fcf 	ldaexb	r4, [r2]
20000ccc:	2001      	movs	r0, #1
20000cce:	2c00      	cmp	r4, #0
20000cd0:	d1fa      	bne.n	20000cc8 <dcd_event_handler+0x134>
20000cd2:	e8c2 0f44 	strexb	r4, r0, [r2]
20000cd6:	2c00      	cmp	r4, #0
20000cd8:	d1f6      	bne.n	20000cc8 <dcd_event_handler+0x134>
20000cda:	f3bf 8f5f 	dmb	sy
20000cde:	6199      	str	r1, [r3, #24]
20000ce0:	4618      	mov	r0, r3
20000ce2:	a903      	add	r1, sp, #12
20000ce4:	9301      	str	r3, [sp, #4]
20000ce6:	f000 fc37 	bl	20001558 <__tu_fifo_write_veneer>
20000cea:	9b01      	ldr	r3, [sp, #4]
20000cec:	2200      	movs	r2, #0
20000cee:	6959      	ldr	r1, [r3, #20]
20000cf0:	e8c1 2f8f 	stlb	r2, [r1]
20000cf4:	699b      	ldr	r3, [r3, #24]
20000cf6:	f383 8810 	msr	PRIMASK, r3
20000cfa:	2800      	cmp	r0, #0
20000cfc:	d088      	beq.n	20000c10 <dcd_event_handler+0x7c>
20000cfe:	4632      	mov	r2, r6
20000d00:	f89d 100d 	ldrb.w	r1, [sp, #13]
20000d04:	f89d 000c 	ldrb.w	r0, [sp, #12]
20000d08:	f000 fc3a 	bl	20001580 <__tud_event_hook_cb_veneer>
20000d0c:	e78e      	b.n	20000c2c <dcd_event_handler+0x98>
20000d0e:	2500      	movs	r5, #0
20000d10:	2105      	movs	r1, #5
20000d12:	781a      	ldrb	r2, [r3, #0]
20000d14:	f022 0204 	bic.w	r2, r2, #4
20000d18:	701a      	strb	r2, [r3, #0]
20000d1a:	4a1f      	ldr	r2, [pc, #124]	@ (20000d98 <dcd_event_handler+0x204>)
20000d1c:	7820      	ldrb	r0, [r4, #0]
20000d1e:	6812      	ldr	r2, [r2, #0]
20000d20:	9503      	str	r5, [sp, #12]
20000d22:	f88d 000c 	strb.w	r0, [sp, #12]
20000d26:	f88d 100d 	strb.w	r1, [sp, #13]
20000d2a:	e9cd 5504 	strd	r5, r5, [sp, #16]
20000d2e:	6951      	ldr	r1, [r2, #20]
20000d30:	f3ef 8010 	mrs	r0, PRIMASK
20000d34:	b672      	cpsid	i
20000d36:	e8d1 efcf 	ldaexb	lr, [r1]
20000d3a:	f05f 0c01 	movs.w	ip, #1
20000d3e:	f1be 0f00 	cmp.w	lr, #0
20000d42:	d1f8      	bne.n	20000d36 <dcd_event_handler+0x1a2>
20000d44:	e8c1 cf4e 	strexb	lr, ip, [r1]
20000d48:	f1be 0f00 	cmp.w	lr, #0
20000d4c:	d1f3      	bne.n	20000d36 <dcd_event_handler+0x1a2>
20000d4e:	f3bf 8f5f 	dmb	sy
20000d52:	6190      	str	r0, [r2, #24]
20000d54:	a903      	add	r1, sp, #12
20000d56:	4610      	mov	r0, r2
20000d58:	9201      	str	r2, [sp, #4]
20000d5a:	f000 fbfd 	bl	20001558 <__tu_fifo_write_veneer>
20000d5e:	9a01      	ldr	r2, [sp, #4]
20000d60:	6951      	ldr	r1, [r2, #20]
20000d62:	e8c1 5f8f 	stlb	r5, [r1]
20000d66:	6992      	ldr	r2, [r2, #24]
20000d68:	f382 8810 	msr	PRIMASK, r2
20000d6c:	4b09      	ldr	r3, [pc, #36]	@ (20000d94 <dcd_event_handler+0x200>)
20000d6e:	b938      	cbnz	r0, 20000d80 <dcd_event_handler+0x1ec>
20000d70:	f04f 22e0 	mov.w	r2, #3758153728	@ 0xe000e000
20000d74:	f8d2 2df0 	ldr.w	r2, [r2, #3568]	@ 0xdf0
20000d78:	07d1      	lsls	r1, r2, #31
20000d7a:	d594      	bpl.n	20000ca6 <dcd_event_handler+0x112>
20000d7c:	be00      	bkpt	0x0000
20000d7e:	e792      	b.n	20000ca6 <dcd_event_handler+0x112>
20000d80:	4632      	mov	r2, r6
20000d82:	f89d 100d 	ldrb.w	r1, [sp, #13]
20000d86:	f89d 000c 	ldrb.w	r0, [sp, #12]
20000d8a:	f000 fbf9 	bl	20001580 <__tud_event_hook_cb_veneer>
20000d8e:	4b01      	ldr	r3, [pc, #4]	@ (20000d94 <dcd_event_handler+0x200>)
20000d90:	e789      	b.n	20000ca6 <dcd_event_handler+0x112>
20000d92:	bf00      	nop
20000d94:	20001da8 	.word	0x20001da8
20000d98:	20001e00 	.word	0x20001e00
20000d9c:	200026b6 	.word	0x200026b6
20000da0:	200026b4 	.word	0x200026b4
20000da4:	20001ca0 	.word	0x20001ca0
20000da8:	10009cfc 	.word	0x10009cfc

20000dac <spi_write_blocking>:
20000dac:	4684      	mov	ip, r0
20000dae:	b18a      	cbz	r2, 20000dd4 <spi_write_blocking+0x28>
20000db0:	3901      	subs	r1, #1
20000db2:	1850      	adds	r0, r2, r1
20000db4:	f8dc 300c 	ldr.w	r3, [ip, #12]
20000db8:	079b      	lsls	r3, r3, #30
20000dba:	d5fb      	bpl.n	20000db4 <spi_write_blocking+0x8>
20000dbc:	f811 3f01 	ldrb.w	r3, [r1, #1]!
20000dc0:	4281      	cmp	r1, r0
20000dc2:	f8cc 3008 	str.w	r3, [ip, #8]
20000dc6:	d1f5      	bne.n	20000db4 <spi_write_blocking+0x8>
20000dc8:	f8dc 300c 	ldr.w	r3, [ip, #12]
20000dcc:	0758      	lsls	r0, r3, #29
20000dce:	d505      	bpl.n	20000ddc <spi_write_blocking+0x30>
20000dd0:	f8dc 3008 	ldr.w	r3, [ip, #8]
20000dd4:	f8dc 300c 	ldr.w	r3, [ip, #12]
20000dd8:	0758      	lsls	r0, r3, #29
20000dda:	d4f9      	bmi.n	20000dd0 <spi_write_blocking+0x24>
20000ddc:	f8dc 300c 	ldr.w	r3, [ip, #12]
20000de0:	06d9      	lsls	r1, r3, #27
20000de2:	d506      	bpl.n	20000df2 <spi_write_blocking+0x46>
20000de4:	f8dc 300c 	ldr.w	r3, [ip, #12]
20000de8:	06d9      	lsls	r1, r3, #27
20000dea:	d4f7      	bmi.n	20000ddc <spi_write_blocking+0x30>
20000dec:	e001      	b.n	20000df2 <spi_write_blocking+0x46>
20000dee:	f8dc 3008 	ldr.w	r3, [ip, #8]
20000df2:	f8dc 300c 	ldr.w	r3, [ip, #12]
20000df6:	075b      	lsls	r3, r3, #29
20000df8:	d4f9      	bmi.n	20000dee <spi_write_blocking+0x42>
20000dfa:	2301      	movs	r3, #1
20000dfc:	4610      	mov	r0, r2
20000dfe:	f8cc 3020 	str.w	r3, [ip, #32]
20000e02:	4770      	bx	lr

20000e04 <spi_read_blocking>:
20000e04:	b530      	push	{r4, r5, lr}
20000e06:	460c      	mov	r4, r1
20000e08:	4619      	mov	r1, r3
20000e0a:	469e      	mov	lr, r3
20000e0c:	b151      	cbz	r1, 20000e24 <spi_read_blocking+0x20>
20000e0e:	b9cb      	cbnz	r3, 20000e44 <spi_read_blocking+0x40>
20000e10:	68c3      	ldr	r3, [r0, #12]
20000e12:	f013 0304 	ands.w	r3, r3, #4
20000e16:	d020      	beq.n	20000e5a <spi_read_blocking+0x56>
20000e18:	6883      	ldr	r3, [r0, #8]
20000e1a:	3901      	subs	r1, #1
20000e1c:	f802 3b01 	strb.w	r3, [r2], #1
20000e20:	d1f6      	bne.n	20000e10 <spi_read_blocking+0xc>
20000e22:	460b      	mov	r3, r1
20000e24:	b163      	cbz	r3, 20000e40 <spi_read_blocking+0x3c>
20000e26:	68c2      	ldr	r2, [r0, #12]
20000e28:	0795      	lsls	r5, r2, #30
20000e2a:	d402      	bmi.n	20000e32 <spi_read_blocking+0x2e>
20000e2c:	68c2      	ldr	r2, [r0, #12]
20000e2e:	0791      	lsls	r1, r2, #30
20000e30:	d5f9      	bpl.n	20000e26 <spi_read_blocking+0x22>
20000e32:	f113 0f08 	cmn.w	r3, #8
20000e36:	d01a      	beq.n	20000e6e <spi_read_blocking+0x6a>
20000e38:	3b01      	subs	r3, #1
20000e3a:	6084      	str	r4, [r0, #8]
20000e3c:	2b00      	cmp	r3, #0
20000e3e:	d1f2      	bne.n	20000e26 <spi_read_blocking+0x22>
20000e40:	4670      	mov	r0, lr
20000e42:	bd30      	pop	{r4, r5, pc}
20000e44:	f103 0508 	add.w	r5, r3, #8
20000e48:	f8d0 c00c 	ldr.w	ip, [r0, #12]
20000e4c:	f01c 0f02 	tst.w	ip, #2
20000e50:	d003      	beq.n	20000e5a <spi_read_blocking+0x56>
20000e52:	428d      	cmp	r5, r1
20000e54:	d90f      	bls.n	20000e76 <spi_read_blocking+0x72>
20000e56:	6084      	str	r4, [r0, #8]
20000e58:	3b01      	subs	r3, #1
20000e5a:	68c5      	ldr	r5, [r0, #12]
20000e5c:	076d      	lsls	r5, r5, #29
20000e5e:	d5d6      	bpl.n	20000e0e <spi_read_blocking+0xa>
20000e60:	6885      	ldr	r5, [r0, #8]
20000e62:	3901      	subs	r1, #1
20000e64:	f802 5b01 	strb.w	r5, [r2], #1
20000e68:	2900      	cmp	r1, #0
20000e6a:	d1d0      	bne.n	20000e0e <spi_read_blocking+0xa>
20000e6c:	e7da      	b.n	20000e24 <spi_read_blocking+0x20>
20000e6e:	68c2      	ldr	r2, [r0, #12]
20000e70:	0792      	lsls	r2, r2, #30
20000e72:	d4db      	bmi.n	20000e2c <spi_read_blocking+0x28>
20000e74:	e7d7      	b.n	20000e26 <spi_read_blocking+0x22>
20000e76:	f8d0 c00c 	ldr.w	ip, [r0, #12]
20000e7a:	f01c 0f04 	tst.w	ip, #4
20000e7e:	d1ef      	bne.n	20000e60 <spi_read_blocking+0x5c>
20000e80:	e7e2      	b.n	20000e48 <spi_read_blocking+0x44>
20000e82:	bf00      	nop

20000e84 <sqrtf>:
20000e84:	b500      	push	{lr}
20000e86:	ed2d 8b02 	vpush	{d8}
20000e8a:	ee08 0a10 	vmov	s16, r0
20000e8e:	b083      	sub	sp, #12
20000e90:	f000 f824 	bl	20000edc <__ieee754_sqrtf>
20000e94:	eeb4 8a48 	vcmp.f32	s16, s16
20000e98:	eef1 fa10 	vmrs	APSR_nzcv, fpscr
20000e9c:	d606      	bvs.n	20000eac <sqrtf+0x28>
20000e9e:	eddf 7a0e 	vldr	s15, [pc, #56]	@ 20000ed8 <sqrtf+0x54>
20000ea2:	eeb4 8ae7 	vcmpe.f32	s16, s15
20000ea6:	eef1 fa10 	vmrs	APSR_nzcv, fpscr
20000eaa:	d403      	bmi.n	20000eb4 <sqrtf+0x30>
20000eac:	b003      	add	sp, #12
20000eae:	ecbd 8b02 	vpop	{d8}
20000eb2:	bd00      	pop	{pc}
20000eb4:	edcd 7a01 	vstr	s15, [sp, #4]
20000eb8:	f000 fb5a 	bl	20001570 <____errno_veneer>
20000ebc:	eddd 7a01 	vldr	s15, [sp, #4]
20000ec0:	4603      	mov	r3, r0
20000ec2:	2221      	movs	r2, #33	@ 0x21
20000ec4:	eec7 7aa7 	vdiv.f32	s15, s15, s15
20000ec8:	601a      	str	r2, [r3, #0]
20000eca:	ee17 0a90 	vmov	r0, s15
20000ece:	b003      	add	sp, #12
20000ed0:	ecbd 8b02 	vpop	{d8}
20000ed4:	bd00      	pop	{pc}
20000ed6:	bf00      	nop
20000ed8:	00000000 	.word	0x00000000

20000edc <__ieee754_sqrtf>:
20000edc:	ee07 0a90 	vmov	s15, r0
20000ee0:	eef1 7ae7 	vsqrt.f32	s15, s15
20000ee4:	ee17 0a90 	vmov	r0, s15
20000ee8:	4770      	bx	lr
20000eea:	bf00      	nop

20000eec <__aeabi_drsub>:
20000eec:	f081 4100 	eor.w	r1, r1, #2147483648	@ 0x80000000
20000ef0:	e002      	b.n	20000ef8 <__adddf3>
20000ef2:	bf00      	nop

20000ef4 <__aeabi_dsub>:
20000ef4:	f083 4300 	eor.w	r3, r3, #2147483648	@ 0x80000000

20000ef8 <__adddf3>:
20000ef8:	b530      	push	{r4, r5, lr}
20000efa:	ea4f 0441 	mov.w	r4, r1, lsl #1
20000efe:	ea4f 0543 	mov.w	r5, r3, lsl #1
20000f02:	ea94 0f05 	teq	r4, r5
20000f06:	bf08      	it	eq
20000f08:	ea90 0f02 	teqeq	r0, r2
20000f0c:	bf1f      	itttt	ne
20000f0e:	ea54 0c00 	orrsne.w	ip, r4, r0
20000f12:	ea55 0c02 	orrsne.w	ip, r5, r2
20000f16:	ea7f 5c64 	mvnsne.w	ip, r4, asr #21
20000f1a:	ea7f 5c65 	mvnsne.w	ip, r5, asr #21
20000f1e:	f000 80e2 	beq.w	200010e6 <__adddf3+0x1ee>
20000f22:	ea4f 5454 	mov.w	r4, r4, lsr #21
20000f26:	ebd4 5555 	rsbs	r5, r4, r5, lsr #21
20000f2a:	bfb8      	it	lt
20000f2c:	426d      	neglt	r5, r5
20000f2e:	dd0c      	ble.n	20000f4a <__adddf3+0x52>
20000f30:	442c      	add	r4, r5
20000f32:	ea80 0202 	eor.w	r2, r0, r2
20000f36:	ea81 0303 	eor.w	r3, r1, r3
20000f3a:	ea82 0000 	eor.w	r0, r2, r0
20000f3e:	ea83 0101 	eor.w	r1, r3, r1
20000f42:	ea80 0202 	eor.w	r2, r0, r2
20000f46:	ea81 0303 	eor.w	r3, r1, r3
20000f4a:	2d36      	cmp	r5, #54	@ 0x36
20000f4c:	bf88      	it	hi
20000f4e:	bd30      	pophi	{r4, r5, pc}
20000f50:	f011 4f00 	tst.w	r1, #2147483648	@ 0x80000000
20000f54:	ea4f 3101 	mov.w	r1, r1, lsl #12
20000f58:	f44f 1c80 	mov.w	ip, #1048576	@ 0x100000
20000f5c:	ea4c 3111 	orr.w	r1, ip, r1, lsr #12
20000f60:	d002      	beq.n	20000f68 <__adddf3+0x70>
20000f62:	4240      	negs	r0, r0
20000f64:	eb61 0141 	sbc.w	r1, r1, r1, lsl #1
20000f68:	f013 4f00 	tst.w	r3, #2147483648	@ 0x80000000
20000f6c:	ea4f 3303 	mov.w	r3, r3, lsl #12
20000f70:	ea4c 3313 	orr.w	r3, ip, r3, lsr #12
20000f74:	d002      	beq.n	20000f7c <__adddf3+0x84>
20000f76:	4252      	negs	r2, r2
20000f78:	eb63 0343 	sbc.w	r3, r3, r3, lsl #1
20000f7c:	ea94 0f05 	teq	r4, r5
20000f80:	f000 80a7 	beq.w	200010d2 <__adddf3+0x1da>
20000f84:	f1a4 0401 	sub.w	r4, r4, #1
20000f88:	f1d5 0e20 	rsbs	lr, r5, #32
20000f8c:	db0d      	blt.n	20000faa <__adddf3+0xb2>
20000f8e:	fa02 fc0e 	lsl.w	ip, r2, lr
20000f92:	fa22 f205 	lsr.w	r2, r2, r5
20000f96:	1880      	adds	r0, r0, r2
20000f98:	f141 0100 	adc.w	r1, r1, #0
20000f9c:	fa03 f20e 	lsl.w	r2, r3, lr
20000fa0:	1880      	adds	r0, r0, r2
20000fa2:	fa43 f305 	asr.w	r3, r3, r5
20000fa6:	4159      	adcs	r1, r3
20000fa8:	e00e      	b.n	20000fc8 <__adddf3+0xd0>
20000faa:	f1a5 0520 	sub.w	r5, r5, #32
20000fae:	f10e 0e20 	add.w	lr, lr, #32
20000fb2:	2a01      	cmp	r2, #1
20000fb4:	fa03 fc0e 	lsl.w	ip, r3, lr
20000fb8:	bf28      	it	cs
20000fba:	f04c 0c02 	orrcs.w	ip, ip, #2
20000fbe:	fa43 f305 	asr.w	r3, r3, r5
20000fc2:	18c0      	adds	r0, r0, r3
20000fc4:	eb51 71e3 	adcs.w	r1, r1, r3, asr #31
20000fc8:	f001 4500 	and.w	r5, r1, #2147483648	@ 0x80000000
20000fcc:	d507      	bpl.n	20000fde <__adddf3+0xe6>
20000fce:	f04f 0e00 	mov.w	lr, #0
20000fd2:	f1dc 0c00 	rsbs	ip, ip, #0
20000fd6:	eb7e 0000 	sbcs.w	r0, lr, r0
20000fda:	eb6e 0101 	sbc.w	r1, lr, r1
20000fde:	f5b1 1f80 	cmp.w	r1, #1048576	@ 0x100000
20000fe2:	d31b      	bcc.n	2000101c <__adddf3+0x124>
20000fe4:	f5b1 1f00 	cmp.w	r1, #2097152	@ 0x200000
20000fe8:	d30c      	bcc.n	20001004 <__adddf3+0x10c>
20000fea:	0849      	lsrs	r1, r1, #1
20000fec:	ea5f 0030 	movs.w	r0, r0, rrx
20000ff0:	ea4f 0c3c 	mov.w	ip, ip, rrx
20000ff4:	f104 0401 	add.w	r4, r4, #1
20000ff8:	ea4f 5244 	mov.w	r2, r4, lsl #21
20000ffc:	f512 0f80 	cmn.w	r2, #4194304	@ 0x400000
20001000:	f080 809a 	bcs.w	20001138 <__adddf3+0x240>
20001004:	f1bc 4f00 	cmp.w	ip, #2147483648	@ 0x80000000
20001008:	bf08      	it	eq
2000100a:	ea5f 0c50 	movseq.w	ip, r0, lsr #1
2000100e:	f150 0000 	adcs.w	r0, r0, #0
20001012:	eb41 5104 	adc.w	r1, r1, r4, lsl #20
20001016:	ea41 0105 	orr.w	r1, r1, r5
2000101a:	bd30      	pop	{r4, r5, pc}
2000101c:	ea5f 0c4c 	movs.w	ip, ip, lsl #1
20001020:	4140      	adcs	r0, r0
20001022:	eb41 0101 	adc.w	r1, r1, r1
20001026:	3c01      	subs	r4, #1
20001028:	bf28      	it	cs
2000102a:	f5b1 1f80 	cmpcs.w	r1, #1048576	@ 0x100000
2000102e:	d2e9      	bcs.n	20001004 <__adddf3+0x10c>
20001030:	f091 0f00 	teq	r1, #0
20001034:	bf04      	itt	eq
20001036:	4601      	moveq	r1, r0
20001038:	2000      	moveq	r0, #0
2000103a:	fab1 f381 	clz	r3, r1
2000103e:	bf08      	it	eq
20001040:	3320      	addeq	r3, #32
20001042:	f1a3 030b 	sub.w	r3, r3, #11
20001046:	f1b3 0220 	subs.w	r2, r3, #32
2000104a:	da0c      	bge.n	20001066 <__adddf3+0x16e>
2000104c:	320c      	adds	r2, #12
2000104e:	dd08      	ble.n	20001062 <__adddf3+0x16a>
20001050:	f102 0c14 	add.w	ip, r2, #20
20001054:	f1c2 020c 	rsb	r2, r2, #12
20001058:	fa01 f00c 	lsl.w	r0, r1, ip
2000105c:	fa21 f102 	lsr.w	r1, r1, r2
20001060:	e00c      	b.n	2000107c <__adddf3+0x184>
20001062:	f102 0214 	add.w	r2, r2, #20
20001066:	bfd8      	it	le
20001068:	f1c2 0c20 	rsble	ip, r2, #32
2000106c:	fa01 f102 	lsl.w	r1, r1, r2
20001070:	fa20 fc0c 	lsr.w	ip, r0, ip
20001074:	bfdc      	itt	le
20001076:	ea41 010c 	orrle.w	r1, r1, ip
2000107a:	4090      	lslle	r0, r2
2000107c:	1ae4      	subs	r4, r4, r3
2000107e:	bfa2      	ittt	ge
20001080:	eb01 5104 	addge.w	r1, r1, r4, lsl #20
20001084:	4329      	orrge	r1, r5
20001086:	bd30      	popge	{r4, r5, pc}
20001088:	ea6f 0404 	mvn.w	r4, r4
2000108c:	3c1f      	subs	r4, #31
2000108e:	da1c      	bge.n	200010ca <__adddf3+0x1d2>
20001090:	340c      	adds	r4, #12
20001092:	dc0e      	bgt.n	200010b2 <__adddf3+0x1ba>
20001094:	f104 0414 	add.w	r4, r4, #20
20001098:	f1c4 0220 	rsb	r2, r4, #32
2000109c:	fa20 f004 	lsr.w	r0, r0, r4
200010a0:	fa01 f302 	lsl.w	r3, r1, r2
200010a4:	ea40 0003 	orr.w	r0, r0, r3
200010a8:	fa21 f304 	lsr.w	r3, r1, r4
200010ac:	ea45 0103 	orr.w	r1, r5, r3
200010b0:	bd30      	pop	{r4, r5, pc}
200010b2:	f1c4 040c 	rsb	r4, r4, #12
200010b6:	f1c4 0220 	rsb	r2, r4, #32
200010ba:	fa20 f002 	lsr.w	r0, r0, r2
200010be:	fa01 f304 	lsl.w	r3, r1, r4
200010c2:	ea40 0003 	orr.w	r0, r0, r3
200010c6:	4629      	mov	r1, r5
200010c8:	bd30      	pop	{r4, r5, pc}
200010ca:	fa21 f004 	lsr.w	r0, r1, r4
200010ce:	4629      	mov	r1, r5
200010d0:	bd30      	pop	{r4, r5, pc}
200010d2:	f094 0f00 	teq	r4, #0
200010d6:	f483 1380 	eor.w	r3, r3, #1048576	@ 0x100000
200010da:	bf06      	itte	eq
200010dc:	f481 1180 	eoreq.w	r1, r1, #1048576	@ 0x100000
200010e0:	3401      	addeq	r4, #1
200010e2:	3d01      	subne	r5, #1
200010e4:	e74e      	b.n	20000f84 <__adddf3+0x8c>
200010e6:	ea7f 5c64 	mvns.w	ip, r4, asr #21
200010ea:	bf18      	it	ne
200010ec:	ea7f 5c65 	mvnsne.w	ip, r5, asr #21
200010f0:	d029      	beq.n	20001146 <__adddf3+0x24e>
200010f2:	ea94 0f05 	teq	r4, r5
200010f6:	bf08      	it	eq
200010f8:	ea90 0f02 	teqeq	r0, r2
200010fc:	d005      	beq.n	2000110a <__adddf3+0x212>
200010fe:	ea54 0c00 	orrs.w	ip, r4, r0
20001102:	bf04      	itt	eq
20001104:	4619      	moveq	r1, r3
20001106:	4610      	moveq	r0, r2
20001108:	bd30      	pop	{r4, r5, pc}
2000110a:	ea91 0f03 	teq	r1, r3
2000110e:	bf1e      	ittt	ne
20001110:	2100      	movne	r1, #0
20001112:	2000      	movne	r0, #0
20001114:	bd30      	popne	{r4, r5, pc}
20001116:	ea5f 5c54 	movs.w	ip, r4, lsr #21
2000111a:	d105      	bne.n	20001128 <__adddf3+0x230>
2000111c:	0040      	lsls	r0, r0, #1
2000111e:	4149      	adcs	r1, r1
20001120:	bf28      	it	cs
20001122:	f041 4100 	orrcs.w	r1, r1, #2147483648	@ 0x80000000
20001126:	bd30      	pop	{r4, r5, pc}
20001128:	f514 0480 	adds.w	r4, r4, #4194304	@ 0x400000
2000112c:	bf3c      	itt	cc
2000112e:	f501 1180 	addcc.w	r1, r1, #1048576	@ 0x100000
20001132:	bd30      	popcc	{r4, r5, pc}
20001134:	f001 4500 	and.w	r5, r1, #2147483648	@ 0x80000000
20001138:	f045 41fe 	orr.w	r1, r5, #2130706432	@ 0x7f000000
2000113c:	f441 0170 	orr.w	r1, r1, #15728640	@ 0xf00000
20001140:	f04f 0000 	mov.w	r0, #0
20001144:	bd30      	pop	{r4, r5, pc}
20001146:	ea7f 5c64 	mvns.w	ip, r4, asr #21
2000114a:	bf1a      	itte	ne
2000114c:	4619      	movne	r1, r3
2000114e:	4610      	movne	r0, r2
20001150:	ea7f 5c65 	mvnseq.w	ip, r5, asr #21
20001154:	bf1c      	itt	ne
20001156:	460b      	movne	r3, r1
20001158:	4602      	movne	r2, r0
2000115a:	ea50 3401 	orrs.w	r4, r0, r1, lsl #12
2000115e:	bf06      	itte	eq
20001160:	ea52 3503 	orrseq.w	r5, r2, r3, lsl #12
20001164:	ea91 0f03 	teqeq	r1, r3
20001168:	f441 2100 	orrne.w	r1, r1, #524288	@ 0x80000
2000116c:	bd30      	pop	{r4, r5, pc}
2000116e:	bf00      	nop

20001170 <__aeabi_ui2d>:
20001170:	f090 0f00 	teq	r0, #0
20001174:	bf04      	itt	eq
20001176:	2100      	moveq	r1, #0
20001178:	4770      	bxeq	lr
2000117a:	b530      	push	{r4, r5, lr}
2000117c:	f44f 6480 	mov.w	r4, #1024	@ 0x400
20001180:	f104 0432 	add.w	r4, r4, #50	@ 0x32
20001184:	f04f 0500 	mov.w	r5, #0
20001188:	f04f 0100 	mov.w	r1, #0
2000118c:	e750      	b.n	20001030 <__adddf3+0x138>
2000118e:	bf00      	nop

20001190 <__aeabi_i2d>:
20001190:	f090 0f00 	teq	r0, #0
20001194:	bf04      	itt	eq
20001196:	2100      	moveq	r1, #0
20001198:	4770      	bxeq	lr
2000119a:	b530      	push	{r4, r5, lr}
2000119c:	f44f 6480 	mov.w	r4, #1024	@ 0x400
200011a0:	f104 0432 	add.w	r4, r4, #50	@ 0x32
200011a4:	f010 4500 	ands.w	r5, r0, #2147483648	@ 0x80000000
200011a8:	bf48      	it	mi
200011aa:	4240      	negmi	r0, r0
200011ac:	f04f 0100 	mov.w	r1, #0
200011b0:	e73e      	b.n	20001030 <__adddf3+0x138>
200011b2:	bf00      	nop

200011b4 <__aeabi_f2d>:
200011b4:	0042      	lsls	r2, r0, #1
200011b6:	ea4f 01e2 	mov.w	r1, r2, asr #3
200011ba:	ea4f 0131 	mov.w	r1, r1, rrx
200011be:	ea4f 7002 	mov.w	r0, r2, lsl #28
200011c2:	bf1f      	itttt	ne
200011c4:	f012 437f 	andsne.w	r3, r2, #4278190080	@ 0xff000000
200011c8:	f093 4f7f 	teqne	r3, #4278190080	@ 0xff000000
200011cc:	f081 5160 	eorne.w	r1, r1, #939524096	@ 0x38000000
200011d0:	4770      	bxne	lr
200011d2:	f032 427f 	bics.w	r2, r2, #4278190080	@ 0xff000000
200011d6:	bf08      	it	eq
200011d8:	4770      	bxeq	lr
200011da:	f093 4f7f 	teq	r3, #4278190080	@ 0xff000000
200011de:	bf04      	itt	eq
200011e0:	f441 2100 	orreq.w	r1, r1, #524288	@ 0x80000
200011e4:	4770      	bxeq	lr
200011e6:	b530      	push	{r4, r5, lr}
200011e8:	f44f 7460 	mov.w	r4, #896	@ 0x380
200011ec:	f001 4500 	and.w	r5, r1, #2147483648	@ 0x80000000
200011f0:	f021 4100 	bic.w	r1, r1, #2147483648	@ 0x80000000
200011f4:	e71c      	b.n	20001030 <__adddf3+0x138>
200011f6:	bf00      	nop

200011f8 <__aeabi_ul2d>:
200011f8:	ea50 0201 	orrs.w	r2, r0, r1
200011fc:	bf08      	it	eq
200011fe:	4770      	bxeq	lr
20001200:	b530      	push	{r4, r5, lr}
20001202:	f04f 0500 	mov.w	r5, #0
20001206:	e00a      	b.n	2000121e <__aeabi_l2d+0x16>

20001208 <__aeabi_l2d>:
20001208:	ea50 0201 	orrs.w	r2, r0, r1
2000120c:	bf08      	it	eq
2000120e:	4770      	bxeq	lr
20001210:	b530      	push	{r4, r5, lr}
20001212:	f011 4500 	ands.w	r5, r1, #2147483648	@ 0x80000000
20001216:	d502      	bpl.n	2000121e <__aeabi_l2d+0x16>
20001218:	4240      	negs	r0, r0
2000121a:	eb61 0141 	sbc.w	r1, r1, r1, lsl #1
2000121e:	f44f 6480 	mov.w	r4, #1024	@ 0x400
20001222:	f104 0432 	add.w	r4, r4, #50	@ 0x32
20001226:	ea5f 5c91 	movs.w	ip, r1, lsr #22
2000122a:	f43f aed8 	beq.w	20000fde <__adddf3+0xe6>
2000122e:	f04f 0203 	mov.w	r2, #3
20001232:	ea5f 0cdc 	movs.w	ip, ip, lsr #3
20001236:	bf18      	it	ne
20001238:	3203      	addne	r2, #3
2000123a:	ea5f 0cdc 	movs.w	ip, ip, lsr #3
2000123e:	bf18      	it	ne
20001240:	3203      	addne	r2, #3
20001242:	eb02 02dc 	add.w	r2, r2, ip, lsr #3
20001246:	f1c2 0320 	rsb	r3, r2, #32
2000124a:	fa00 fc03 	lsl.w	ip, r0, r3
2000124e:	fa20 f002 	lsr.w	r0, r0, r2
20001252:	fa01 fe03 	lsl.w	lr, r1, r3
20001256:	ea40 000e 	orr.w	r0, r0, lr
2000125a:	fa21 f102 	lsr.w	r1, r1, r2
2000125e:	4414      	add	r4, r2
20001260:	e6bd      	b.n	20000fde <__adddf3+0xe6>
20001262:	bf00      	nop

20001264 <__aeabi_uldivmod>:
20001264:	b953      	cbnz	r3, 2000127c <__aeabi_uldivmod+0x18>
20001266:	b94a      	cbnz	r2, 2000127c <__aeabi_uldivmod+0x18>
20001268:	2900      	cmp	r1, #0
2000126a:	bf08      	it	eq
2000126c:	2800      	cmpeq	r0, #0
2000126e:	bf1c      	itt	ne
20001270:	f04f 31ff 	movne.w	r1, #4294967295	@ 0xffffffff
20001274:	f04f 30ff 	movne.w	r0, #4294967295	@ 0xffffffff
20001278:	f000 b96a 	b.w	20001550 <__aeabi_idiv0>
2000127c:	f1ad 0c08 	sub.w	ip, sp, #8
20001280:	e96d ce04 	strd	ip, lr, [sp, #-16]!
20001284:	f000 f806 	bl	20001294 <__udivmoddi4>
20001288:	f8dd e004 	ldr.w	lr, [sp, #4]
2000128c:	e9dd 2302 	ldrd	r2, r3, [sp, #8]
20001290:	b004      	add	sp, #16
20001292:	4770      	bx	lr

20001294 <__udivmoddi4>:
20001294:	e92d 47f0 	stmdb	sp!, {r4, r5, r6, r7, r8, r9, sl, lr}
20001298:	9f08      	ldr	r7, [sp, #32]
2000129a:	4615      	mov	r5, r2
2000129c:	4604      	mov	r4, r0
2000129e:	468e      	mov	lr, r1
200012a0:	461e      	mov	r6, r3
200012a2:	2b00      	cmp	r3, #0
200012a4:	f040 80d3 	bne.w	2000144e <__udivmoddi4+0x1ba>
200012a8:	428a      	cmp	r2, r1
200012aa:	d94e      	bls.n	2000134a <__udivmoddi4+0xb6>
200012ac:	fab2 fc82 	clz	ip, r2
200012b0:	f1bc 0f00 	cmp.w	ip, #0
200012b4:	fa02 f30c 	lsl.w	r3, r2, ip
200012b8:	f1cc 0e20 	rsb	lr, ip, #32
200012bc:	bf18      	it	ne
200012be:	461d      	movne	r5, r3
200012c0:	fa01 f30c 	lsl.w	r3, r1, ip
200012c4:	fa20 fe0e 	lsr.w	lr, r0, lr
200012c8:	ea4f 4815 	mov.w	r8, r5, lsr #16
200012cc:	ea4e 0e03 	orr.w	lr, lr, r3
200012d0:	bf08      	it	eq
200012d2:	468e      	moveq	lr, r1
200012d4:	fa00 f30c 	lsl.w	r3, r0, ip
200012d8:	b2a8      	uxth	r0, r5
200012da:	fbbe f1f8 	udiv	r1, lr, r8
200012de:	bf18      	it	ne
200012e0:	461c      	movne	r4, r3
200012e2:	fb08 ee11 	mls	lr, r8, r1, lr
200012e6:	fb01 f300 	mul.w	r3, r1, r0
200012ea:	0c22      	lsrs	r2, r4, #16
200012ec:	ea42 420e 	orr.w	r2, r2, lr, lsl #16
200012f0:	4293      	cmp	r3, r2
200012f2:	d906      	bls.n	20001302 <__udivmoddi4+0x6e>
200012f4:	18aa      	adds	r2, r5, r2
200012f6:	f101 3eff 	add.w	lr, r1, #4294967295	@ 0xffffffff
200012fa:	d201      	bcs.n	20001300 <__udivmoddi4+0x6c>
200012fc:	4293      	cmp	r3, r2
200012fe:	d81e      	bhi.n	2000133e <__udivmoddi4+0xaa>
20001300:	4671      	mov	r1, lr
20001302:	1ad2      	subs	r2, r2, r3
20001304:	b2a4      	uxth	r4, r4
20001306:	fbb2 f3f8 	udiv	r3, r2, r8
2000130a:	fb08 2213 	mls	r2, r8, r3, r2
2000130e:	4358      	muls	r0, r3
20001310:	ea44 4402 	orr.w	r4, r4, r2, lsl #16
20001314:	42a0      	cmp	r0, r4
20001316:	d906      	bls.n	20001326 <__udivmoddi4+0x92>
20001318:	192c      	adds	r4, r5, r4
2000131a:	f103 32ff 	add.w	r2, r3, #4294967295	@ 0xffffffff
2000131e:	d201      	bcs.n	20001324 <__udivmoddi4+0x90>
20001320:	42a0      	cmp	r0, r4
20001322:	d80f      	bhi.n	20001344 <__udivmoddi4+0xb0>
20001324:	4613      	mov	r3, r2
20001326:	1a24      	subs	r4, r4, r0
20001328:	ea43 4001 	orr.w	r0, r3, r1, lsl #16
2000132c:	b127      	cbz	r7, 20001338 <__udivmoddi4+0xa4>
2000132e:	fa24 f40c 	lsr.w	r4, r4, ip
20001332:	2300      	movs	r3, #0
20001334:	603c      	str	r4, [r7, #0]
20001336:	607b      	str	r3, [r7, #4]
20001338:	4631      	mov	r1, r6
2000133a:	e8bd 87f0 	ldmia.w	sp!, {r4, r5, r6, r7, r8, r9, sl, pc}
2000133e:	3902      	subs	r1, #2
20001340:	442a      	add	r2, r5
20001342:	e7de      	b.n	20001302 <__udivmoddi4+0x6e>
20001344:	3b02      	subs	r3, #2
20001346:	442c      	add	r4, r5
20001348:	e7ed      	b.n	20001326 <__udivmoddi4+0x92>
2000134a:	2a00      	cmp	r2, #0
2000134c:	d071      	beq.n	20001432 <__udivmoddi4+0x19e>
2000134e:	fab2 f382 	clz	r3, r2
20001352:	b3db      	cbz	r3, 200013cc <__udivmoddi4+0x138>
20001354:	461e      	mov	r6, r3
20001356:	fa02 f506 	lsl.w	r5, r2, r6
2000135a:	f1c6 0320 	rsb	r3, r6, #32
2000135e:	fa00 f406 	lsl.w	r4, r0, r6
20001362:	fa21 f203 	lsr.w	r2, r1, r3
20001366:	ea4f 4e15 	mov.w	lr, r5, lsr #16
2000136a:	40b1      	lsls	r1, r6
2000136c:	fa20 f303 	lsr.w	r3, r0, r3
20001370:	fa1f fc85 	uxth.w	ip, r5
20001374:	430b      	orrs	r3, r1
20001376:	fbb2 f0fe 	udiv	r0, r2, lr
2000137a:	fb0e 2110 	mls	r1, lr, r0, r2
2000137e:	0c1a      	lsrs	r2, r3, #16
20001380:	fb00 f80c 	mul.w	r8, r0, ip
20001384:	ea42 4201 	orr.w	r2, r2, r1, lsl #16
20001388:	4590      	cmp	r8, r2
2000138a:	d906      	bls.n	2000139a <__udivmoddi4+0x106>
2000138c:	18aa      	adds	r2, r5, r2
2000138e:	f100 31ff 	add.w	r1, r0, #4294967295	@ 0xffffffff
20001392:	d201      	bcs.n	20001398 <__udivmoddi4+0x104>
20001394:	4590      	cmp	r8, r2
20001396:	d84e      	bhi.n	20001436 <__udivmoddi4+0x1a2>
20001398:	4608      	mov	r0, r1
2000139a:	eba2 0208 	sub.w	r2, r2, r8
2000139e:	b29b      	uxth	r3, r3
200013a0:	fbb2 f1fe 	udiv	r1, r2, lr
200013a4:	fb0e 2211 	mls	r2, lr, r1, r2
200013a8:	fb01 fc0c 	mul.w	ip, r1, ip
200013ac:	ea43 4302 	orr.w	r3, r3, r2, lsl #16
200013b0:	459c      	cmp	ip, r3
200013b2:	d906      	bls.n	200013c2 <__udivmoddi4+0x12e>
200013b4:	18eb      	adds	r3, r5, r3
200013b6:	f101 32ff 	add.w	r2, r1, #4294967295	@ 0xffffffff
200013ba:	d201      	bcs.n	200013c0 <__udivmoddi4+0x12c>
200013bc:	459c      	cmp	ip, r3
200013be:	d83d      	bhi.n	2000143c <__udivmoddi4+0x1a8>
200013c0:	4611      	mov	r1, r2
200013c2:	eba3 030c 	sub.w	r3, r3, ip
200013c6:	ea41 4100 	orr.w	r1, r1, r0, lsl #16
200013ca:	e001      	b.n	200013d0 <__udivmoddi4+0x13c>
200013cc:	1a8b      	subs	r3, r1, r2
200013ce:	2101      	movs	r1, #1
200013d0:	ea4f 4e15 	mov.w	lr, r5, lsr #16
200013d4:	fa1f fc85 	uxth.w	ip, r5
200013d8:	0c22      	lsrs	r2, r4, #16
200013da:	fbb3 f0fe 	udiv	r0, r3, lr
200013de:	fb0e 3310 	mls	r3, lr, r0, r3
200013e2:	fb00 f80c 	mul.w	r8, r0, ip
200013e6:	ea42 4203 	orr.w	r2, r2, r3, lsl #16
200013ea:	4590      	cmp	r8, r2
200013ec:	d906      	bls.n	200013fc <__udivmoddi4+0x168>
200013ee:	18aa      	adds	r2, r5, r2
200013f0:	f100 33ff 	add.w	r3, r0, #4294967295	@ 0xffffffff
200013f4:	d201      	bcs.n	200013fa <__udivmoddi4+0x166>
200013f6:	4590      	cmp	r8, r2
200013f8:	d823      	bhi.n	20001442 <__udivmoddi4+0x1ae>
200013fa:	4618      	mov	r0, r3
200013fc:	eba2 0208 	sub.w	r2, r2, r8
20001400:	b2a4      	uxth	r4, r4
20001402:	fbb2 f3fe 	udiv	r3, r2, lr
20001406:	fb0e 2213 	mls	r2, lr, r3, r2
2000140a:	fb03 fc0c 	mul.w	ip, r3, ip
2000140e:	ea44 4402 	orr.w	r4, r4, r2, lsl #16
20001412:	45a4      	cmp	ip, r4
20001414:	d906      	bls.n	20001424 <__udivmoddi4+0x190>
20001416:	192c      	adds	r4, r5, r4
20001418:	f103 32ff 	add.w	r2, r3, #4294967295	@ 0xffffffff
2000141c:	d201      	bcs.n	20001422 <__udivmoddi4+0x18e>
2000141e:	45a4      	cmp	ip, r4
20001420:	d812      	bhi.n	20001448 <__udivmoddi4+0x1b4>
20001422:	4613      	mov	r3, r2
20001424:	eba4 040c 	sub.w	r4, r4, ip
20001428:	ea43 4000 	orr.w	r0, r3, r0, lsl #16
2000142c:	46b4      	mov	ip, r6
2000142e:	460e      	mov	r6, r1
20001430:	e77c      	b.n	2000132c <__udivmoddi4+0x98>
20001432:	261f      	movs	r6, #31
20001434:	e78f      	b.n	20001356 <__udivmoddi4+0xc2>
20001436:	3802      	subs	r0, #2
20001438:	442a      	add	r2, r5
2000143a:	e7ae      	b.n	2000139a <__udivmoddi4+0x106>
2000143c:	3902      	subs	r1, #2
2000143e:	442b      	add	r3, r5
20001440:	e7bf      	b.n	200013c2 <__udivmoddi4+0x12e>
20001442:	3802      	subs	r0, #2
20001444:	442a      	add	r2, r5
20001446:	e7d9      	b.n	200013fc <__udivmoddi4+0x168>
20001448:	3b02      	subs	r3, #2
2000144a:	442c      	add	r4, r5
2000144c:	e7ea      	b.n	20001424 <__udivmoddi4+0x190>
2000144e:	428b      	cmp	r3, r1
20001450:	d905      	bls.n	2000145e <__udivmoddi4+0x1ca>
20001452:	b10f      	cbz	r7, 20001458 <__udivmoddi4+0x1c4>
20001454:	e9c7 0100 	strd	r0, r1, [r7]
20001458:	2600      	movs	r6, #0
2000145a:	4630      	mov	r0, r6
2000145c:	e76c      	b.n	20001338 <__udivmoddi4+0xa4>
2000145e:	fab3 fc83 	clz	ip, r3
20001462:	f1bc 0f00 	cmp.w	ip, #0
20001466:	d10f      	bne.n	20001488 <__udivmoddi4+0x1f4>
20001468:	428b      	cmp	r3, r1
2000146a:	d301      	bcc.n	20001470 <__udivmoddi4+0x1dc>
2000146c:	4282      	cmp	r2, r0
2000146e:	d809      	bhi.n	20001484 <__udivmoddi4+0x1f0>
20001470:	1a84      	subs	r4, r0, r2
20001472:	eb61 0303 	sbc.w	r3, r1, r3
20001476:	2001      	movs	r0, #1
20001478:	469e      	mov	lr, r3
2000147a:	b10f      	cbz	r7, 20001480 <__udivmoddi4+0x1ec>
2000147c:	e9c7 4e00 	strd	r4, lr, [r7]
20001480:	2600      	movs	r6, #0
20001482:	e759      	b.n	20001338 <__udivmoddi4+0xa4>
20001484:	4660      	mov	r0, ip
20001486:	e7f8      	b.n	2000147a <__udivmoddi4+0x1e6>
20001488:	f1cc 0e20 	rsb	lr, ip, #32
2000148c:	fa03 f30c 	lsl.w	r3, r3, ip
20001490:	fa00 f60c 	lsl.w	r6, r0, ip
20001494:	fa22 f50e 	lsr.w	r5, r2, lr
20001498:	fa21 f40e 	lsr.w	r4, r1, lr
2000149c:	fa02 f20c 	lsl.w	r2, r2, ip
200014a0:	431d      	orrs	r5, r3
200014a2:	fa01 f30c 	lsl.w	r3, r1, ip
200014a6:	fa20 f10e 	lsr.w	r1, r0, lr
200014aa:	ea4f 4915 	mov.w	r9, r5, lsr #16
200014ae:	4319      	orrs	r1, r3
200014b0:	fa1f f885 	uxth.w	r8, r5
200014b4:	fbb4 f0f9 	udiv	r0, r4, r9
200014b8:	fb09 4a10 	mls	sl, r9, r0, r4
200014bc:	0c0c      	lsrs	r4, r1, #16
200014be:	fb00 f308 	mul.w	r3, r0, r8
200014c2:	ea44 440a 	orr.w	r4, r4, sl, lsl #16
200014c6:	42a3      	cmp	r3, r4
200014c8:	d906      	bls.n	200014d8 <__udivmoddi4+0x244>
200014ca:	192c      	adds	r4, r5, r4
200014cc:	f100 3aff 	add.w	sl, r0, #4294967295	@ 0xffffffff
200014d0:	d201      	bcs.n	200014d6 <__udivmoddi4+0x242>
200014d2:	42a3      	cmp	r3, r4
200014d4:	d835      	bhi.n	20001542 <__udivmoddi4+0x2ae>
200014d6:	4650      	mov	r0, sl
200014d8:	1ae4      	subs	r4, r4, r3
200014da:	b289      	uxth	r1, r1
200014dc:	fbb4 f3f9 	udiv	r3, r4, r9
200014e0:	fb09 4413 	mls	r4, r9, r3, r4
200014e4:	fb03 f808 	mul.w	r8, r3, r8
200014e8:	ea41 4104 	orr.w	r1, r1, r4, lsl #16
200014ec:	4588      	cmp	r8, r1
200014ee:	d906      	bls.n	200014fe <__udivmoddi4+0x26a>
200014f0:	1869      	adds	r1, r5, r1
200014f2:	f103 34ff 	add.w	r4, r3, #4294967295	@ 0xffffffff
200014f6:	d201      	bcs.n	200014fc <__udivmoddi4+0x268>
200014f8:	4588      	cmp	r8, r1
200014fa:	d825      	bhi.n	20001548 <__udivmoddi4+0x2b4>
200014fc:	4623      	mov	r3, r4
200014fe:	ea43 4000 	orr.w	r0, r3, r0, lsl #16
20001502:	eba1 0108 	sub.w	r1, r1, r8
20001506:	fba0 9802 	umull	r9, r8, r0, r2
2000150a:	4541      	cmp	r1, r8
2000150c:	464c      	mov	r4, r9
2000150e:	4643      	mov	r3, r8
20001510:	d302      	bcc.n	20001518 <__udivmoddi4+0x284>
20001512:	d106      	bne.n	20001522 <__udivmoddi4+0x28e>
20001514:	454e      	cmp	r6, r9
20001516:	d204      	bcs.n	20001522 <__udivmoddi4+0x28e>
20001518:	3801      	subs	r0, #1
2000151a:	ebb9 0402 	subs.w	r4, r9, r2
2000151e:	eb68 0305 	sbc.w	r3, r8, r5
20001522:	2f00      	cmp	r7, #0
20001524:	d0ac      	beq.n	20001480 <__udivmoddi4+0x1ec>
20001526:	1b32      	subs	r2, r6, r4
20001528:	eb61 0103 	sbc.w	r1, r1, r3
2000152c:	fa01 fe0e 	lsl.w	lr, r1, lr
20001530:	fa22 f30c 	lsr.w	r3, r2, ip
20001534:	fa21 f10c 	lsr.w	r1, r1, ip
20001538:	ea4e 0303 	orr.w	r3, lr, r3
2000153c:	e9c7 3100 	strd	r3, r1, [r7]
20001540:	e79e      	b.n	20001480 <__udivmoddi4+0x1ec>
20001542:	3802      	subs	r0, #2
20001544:	442c      	add	r4, r5
20001546:	e7c7      	b.n	200014d8 <__udivmoddi4+0x244>
20001548:	3b02      	subs	r3, #2
2000154a:	4429      	add	r1, r5
2000154c:	e7d7      	b.n	200014fe <__udivmoddi4+0x26a>
	...

20001550 <__aeabi_idiv0>:
20001550:	4770      	bx	lr
20001552:	bf00      	nop
20001554:	0000      	movs	r0, r0
	...

20001558 <__tu_fifo_write_veneer>:
20001558:	f85f f000 	ldr.w	pc, [pc]	@ 2000155c <__tu_fifo_write_veneer+0x4>
2000155c:	10008d09 	.word	0x10008d09

20001560 <__panic_veneer>:
20001560:	f85f f000 	ldr.w	pc, [pc]	@ 20001564 <__panic_veneer+0x4>
20001564:	10002b99 	.word	0x10002b99

20001568 <__memset_veneer>:
20001568:	f85f f000 	ldr.w	pc, [pc]	@ 2000156c <__memset_veneer+0x4>
2000156c:	10009329 	.word	0x10009329

20001570 <____errno_veneer>:
20001570:	f85f f000 	ldr.w	pc, [pc]	@ 20001574 <____errno_veneer+0x4>
20001574:	100093b1 	.word	0x100093b1

20001578 <__best_effort_wfe_or_timeout_veneer>:
20001578:	f85f f000 	ldr.w	pc, [pc]	@ 2000157c <__best_effort_wfe_or_timeout_veneer+0x4>
2000157c:	10003b69 	.word	0x10003b69

20001580 <__tud_event_hook_cb_veneer>:
20001580:	f85f f000 	ldr.w	pc, [pc]	@ 20001584 <__tud_event_hook_cb_veneer+0x4>
20001584:	10007251 	.word	0x10007251

20001588 <__time_us_64_veneer>:
20001588:	f85f f000 	ldr.w	pc, [pc]	@ 2000158c <__time_us_64_veneer+0x4>
2000158c:	10003c71 	.word	0x10003c71

20001590 <rc_yaw_bias>:
20001590:	bf21d9f5                                ..!.

20001594 <rc_pitch_bias>:
20001594:	3f0d9696                                ...?

20001598 <rc_roll_bias>:
20001598:	beb6d56b                                k...

2000159c <striped_spin_lock_num>:
2000159c:	00000010                                ....

200015a0 <irq_handler_chain_slots>:
200015a0:	00000000 	.word	0x00000000
200015a4:	00010000 	.word	0x00010000
	...
200015b0:	00020000 	.word	0x00020000
	...
200015bc:	00030000 	.word	0x00030000
	...
200015c8:	00ff0000 	.word	0x00ff0000
200015cc:	00000000 	.word	0x00000000

200015d0 <irq_handler_chain_first_slot>:
200015d0:	b501      	push	{r0, lr}
200015d2:	6848      	ldr	r0, [r1, #4]
200015d4:	3101      	adds	r1, #1
200015d6:	468e      	mov	lr, r1
200015d8:	4700      	bx	r0

200015da <irq_handler_chain_remove_tail>:
200015da:	4670      	mov	r0, lr
200015dc:	3809      	subs	r0, #9
200015de:	4901      	ldr	r1, [pc, #4]	@ (200015e4 <irq_handler_chain_remove_tail+0xa>)
200015e0:	4788      	blx	r1
200015e2:	bd01      	pop	{r0, pc}
200015e4:	10003275 	.word	0x10003275

200015e8 <default_alarm_pool>:
	...
200015fc:	20001848                                H.. 

20001600 <stdio_usb>:
20001600:	100069a1 1000694d 100068b9 10006829     .i..Mi...h..)h..
20001610:	00000000 00000100                       ........

20001618 <_usbd_qdef>:
20001618:	20001e04 000c0010 00000000 00000000     ... ............
	...

20001634 <_usbd_rhport>:
20001634:	000000ff                                ....

20001638 <_impure_ptr>:
20001638:	20001640 00000000                       @.. ....

20001640 <_impure_data>:
20001640:	00000000 20001b68 20001bd0 20001c38     ....h.. ... 8.. 
	...
200016d8:	00000001 00000000 abcd330e e66d1234     .........3..4.m.
200016e8:	0005deec 0000000b 00000000 00000000     ................
	...

20001760 <__atexit_recursive_mutex>:
20001760:	20001b64                                d.. 

20001764 <malloc_mutex>:
	...

2000176c <print_mutex>:
	...
